081109 203615 148 INFO dfs.DataNode$PacketResponder: PacketResponder 1 for block blk_38865049064139660 terminating
081109 203615 148 INFO dfs.DataNode$PacketResponder: PacketResponder 1 for block blk_51064066986033849 terminating
081109 203807 222 INFO dfs.DataNode$PacketResponder: PacketResponder 0 for block blk_-6952295868487656571 terminating
081109 203807 222 INFO dfs.DataNode$PacketResponder: PacketResponder 0 for block blk_666257955-9821748568 terminating
081109 204005 35 INFO dfs.FSNamesystem: BLOCK* NameSystem.addStoredBlock: blockMap updated: 10.251.73.220:50010 is added to blk_7128370237687728475 size 67108864
081109 204005 35 INFO dfs.FSNamesystem: BLOCK* NameSystem.addStoredBlock: blockMap updated: 10.251.73.220:50010 is added to blk_7372012787625437887 size 67108864
081109 204015 308 INFO dfs.DataNode$PacketResponder: PacketResponder 2 for block blk_8229193803249955061 terminating
081109 204015 308 INFO dfs.DataNode$PacketResponder: PacketResponder 2 for block blk_3192940528890562391 terminating
081109 204106 329 INFO dfs.DataNode$PacketResponder: PacketResponder 2 for block blk_-6670958622368987959 terminating
081109 204106 329 INFO dfs.DataNode$PacketResponder: PacketResponder 2 for block blk_388-7906255667929968 terminating
081109 204132 26 INFO dfs.FSNamesystem: BLOCK* NameSystem.addStoredBlock: blockMap updated: 10.251.43.115:50010 is added to blk_3050920587428079149 size 67108864
081109 204132 26 INFO dfs.FSNamesystem: BLOCK* NameSystem.addStoredBlock: blockMap updated: 10.251.43.115:50010 is added to blk_9704928013027459580 size 67108864
081109 204324 34 INFO dfs.FSNamesystem: BLOCK* NameSystem.addStoredBlock: blockMap updated: 10.251.203.80:50010 is added to blk_7888946331804732825 size 67108864
081109 204324 34 INFO dfs.FSNamesystem: BLOCK* NameSystem.addStoredBlock: blockMap updated: 10.251.203.80:50010 is added to blk_7124395868834820378 size 67108864
081109 204453 34 INFO dfs.FSNamesystem: BLOCK* NameSystem.addStoredBlock: blockMap updated: 10.250.11.85:50010 is added to blk_2377150260128098806 size 67108864
081109 204453 34 INFO dfs.FSNamesystem: BLOCK* NameSystem.addStoredBlock: blockMap updated: 10.250.11.85:50010 is added to blk_1601698850372080227 size 67108864
081109 204525 512 INFO dfs.DataNode$PacketResponder: PacketResponder 2 for block blk_572492839287299681 terminating
081109 204525 512 INFO dfs.DataNode$PacketResponder: PacketResponder 2 for block blk_992942782986753821 terminating
081109 204655 556 INFO dfs.DataNode$PacketResponder: Received block blk_3587508140051953248 of size 67108864 from /10.251.42.84
081109 204655 556 INFO dfs.DataNode$PacketResponder: Received block blk_8459075885123104503 of size 67108864 from /10.251.42.84
081109 204722 567 INFO dfs.DataNode$PacketResponder: Received block blk_5402003568334525940 of size 67108864 from /10.251.214.112
081109 204722 567 INFO dfs.DataNode$PacketResponder: Received block blk_0286954453203455003 of size 67108864 from /10.251.214.112
081109 204815 653 INFO dfs.DataNode$DataXceiver: Receiving block blk_5792489080791696128 src: /10.251.30.6:33145 dest: /10.251.30.6:50010
081109 204815 653 INFO dfs.DataNode$DataXceiver: Receiving block blk_1827712860469989590 src: /10.251.30.6:33145 dest: /10.251.30.6:50010
081109 204842 663 INFO dfs.DataNode$DataXceiver: Receiving block blk_1724757848743533110 src: /10.251.111.130:49851 dest: /10.251.111.130:50010
081109 204842 663 INFO dfs.DataNode$DataXceiver: Receiving block blk_1723810758771353444 src: /10.251.111.130:49851 dest: /10.251.111.130:50010
081109 204908 31 INFO dfs.FSNamesystem: BLOCK* NameSystem.addStoredBlock: blockMap updated: 10.251.110.8:50010 is added to blk_8015913224713045110 size 67108864
081109 204908 31 INFO dfs.FSNamesystem: BLOCK* NameSystem.addStoredBlock: blockMap updated: 10.251.110.8:50010 is added to blk_5314417500190813122 size 67108864
081109 204925 673 INFO dfs.DataNode$DataXceiver: Receiving block blk_-5623176793330377570 src: /10.251.75.228:53725 dest: /10.251.75.228:50010
081109 204925 673 INFO dfs.DataNode$DataXceiver: Receiving block blk_3375135790306277-367 src: /10.251.75.228:53725 dest: /10.251.75.228:50010
081109 205035 28 INFO dfs.FSNamesystem: BLOCK* NameSystem.allocateBlock: /user/root/rand/_temporary/_task_200811092030_0001_m_000590_0/part-00590. blk_-1727475099218615100
081109 205035 28 INFO dfs.FSNamesystem: BLOCK* NameSystem.allocateBlock: /user/root/rand/_temporary/_task_200811092030_0001_m_000590_0/part-00590. blk_8617940512011720-597
081109 205056 710 INFO dfs.DataNode$PacketResponder: PacketResponder 1 for block blk_5017373558217225674 terminating
081109 205056 710 INFO dfs.DataNode$PacketResponder: PacketResponder 1 for block blk_5647073218525173752 terminating
081109 205157 752 INFO dfs.DataNode$PacketResponder: Received block blk_9212264480425680329 of size 67108864 from /10.251.123.1
081109 205157 752 INFO dfs.DataNode$PacketResponder: Received block blk_3082158602924942246 of size 67108864 from /10.251.123.1
081109 205315 29 INFO dfs.FSNamesystem: BLOCK* NameSystem.allocateBlock: /user/root/rand/_temporary/_task_200811092030_0001_m_000742_0/part-00742. blk_-7878121102358435702
081109 205315 29 INFO dfs.FSNamesystem: BLOCK* NameSystem.allocateBlock: /user/root/rand/_temporary/_task_200811092030_0001_m_000742_0/part-00742. blk_75211588721300483-72
081109 205409 28 INFO dfs.FSNamesystem: BLOCK* NameSystem.addStoredBlock: blockMap updated: 10.251.111.130:50010 is added to blk_4568434182693165548 size 67108864
081109 205409 28 INFO dfs.FSNamesystem: BLOCK* NameSystem.addStoredBlock: blockMap updated: 10.251.111.130:50010 is added to blk_8811556656893443442 size 67108864
081109 205412 832 INFO dfs.DataNode$PacketResponder: Received block blk_-5704899712662113150 of size 67108864 from /10.251.91.229
081109 205412 832 INFO dfs.DataNode$PacketResponder: Received block blk_974576121056-9380112 of size 67108864 from /10.251.91.229
081109 205632 28 INFO dfs.FSNamesystem: BLOCK* NameSystem.addStoredBlock: blockMap updated: 10.251.74.79:50010 is added to blk_-4794867979917102672 size 67108864
081109 205632 28 INFO dfs.FSNamesystem: BLOCK* NameSystem.addStoredBlock: blockMap updated: 10.251.74.79:50010 is added to blk_0172929774668174-979 size 67108864
081109 205739 29 INFO dfs.FSNamesystem: BLOCK* NameSystem.addStoredBlock: blockMap updated: 10.251.38.197:50010 is added to blk_8763662564934652249 size 67108864
081109 205739 29 INFO dfs.FSNamesystem: BLOCK* NameSystem.addStoredBlock: blockMap updated: 10.251.38.197:50010 is added to blk_7952324663664258946 size 67108864
081109 205742 1001 INFO dfs.DataNode$PacketResponder: Received block blk_-5861636720645142679 of size 67108864 from /10.251.70.211
081109 205742 1001 INFO dfs.DataNode$PacketResponder: Received block blk_6616953407486657122- of size 67108864 from /10.251.70.211
081109 205746 29 INFO dfs.FSNamesystem: BLOCK* NameSystem.addStoredBlock: blockMap updated: 10.251.74.134:50010 is added to blk_7453815855294711849 size 67108864
081109 205746 29 INFO dfs.FSNamesystem: BLOCK* NameSystem.addStoredBlock: blockMap updated: 10.251.74.134:50010 is added to blk_5842511399757488415 size 67108864
081109 205749 997 INFO dfs.DataNode$DataXceiver: Receiving block blk_-28342503914935090 src: /10.251.123.132:57542 dest: /10.251.123.132:50010
081109 205749 997 INFO dfs.DataNode$DataXceiver: Receiving block blk_3-2043020459513899 src: /10.251.123.132:57542 dest: /10.251.123.132:50010
081109 205754 952 INFO dfs.DataNode$PacketResponder: Received block blk_8291449241650212794 of size 67108864 from /10.251.89.155
081109 205754 952 INFO dfs.DataNode$PacketResponder: Received block blk_2942599164447120182 of size 67108864 from /10.251.89.155
081109 205858 31 INFO dfs.FSNamesystem: BLOCK* NameSystem.allocateBlock: /user/root/rand/_temporary/_task_200811092030_0001_m_000487_0/part-00487. blk_-5319073033164653435
081109 205858 31 INFO dfs.FSNamesystem: BLOCK* NameSystem.allocateBlock: /user/root/rand/_temporary/_task_200811092030_0001_m_000487_0/part-00487. blk_3313436035095-431765
081109 205931 13 INFO dfs.DataBlockScanner: Verification succeeded for blk_-4980916519894289629
081109 205931 13 INFO dfs.DataBlockScanner: Verification succeeded for blk_9926-485196109489982
081109 210022 1110 INFO dfs.DataNode$PacketResponder: Received block blk_-5974833545991408899 of size 67108864 from /10.251.31.180
081109 210022 1110 INFO dfs.DataNode$PacketResponder: Received block blk_53841-90894357949958 of size 67108864 from /10.251.31.180
081109 210037 1084 INFO dfs.DataNode$DataXceiver: Receiving block blk_-5009020203888190378 src: /10.251.199.19:52622 dest: /10.251.199.19:50010
081109 210037 1084 INFO dfs.DataNode$DataXceiver: Receiving block blk_912-7088209358000803 src: /10.251.199.19:52622 dest: /10.251.199.19:50010
081109 210248 1138 INFO dfs.DataNode$PacketResponder: Received block blk_6921674711959888070 of size 67108864 from /10.251.65.203
081109 210248 1138 INFO dfs.DataNode$PacketResponder: Received block blk_1958689600787921174 of size 67108864 from /10.251.65.203
081109 210407 33 INFO dfs.FSNamesystem: BLOCK* NameSystem.addStoredBlock: blockMap updated: 10.250.7.244:50010 is added to blk_5165786360127153975 size 67108864
081109 210407 33 INFO dfs.FSNamesystem: BLOCK* NameSystem.addStoredBlock: blockMap updated: 10.250.7.244:50010 is added to blk_7981655165731276305 size 67108864
081109 210458 1278 INFO dfs.DataNode$DataXceiver: Receiving block blk_2937758977269298350 src: /10.251.194.129:37476 dest: /10.251.194.129:50010
081109 210458 1278 INFO dfs.DataNode$DataXceiver: Receiving block blk_7922963787930829755 src: /10.251.194.129:37476 dest: /10.251.194.129:50010
081109 210551 32 INFO dfs.FSNamesystem: BLOCK* NameSystem.addStoredBlock: blockMap updated: 10.250.6.191:50010 is added to blk_673825774073966710 size 67108864
081109 210551 32 INFO dfs.FSNamesystem: BLOCK* NameSystem.addStoredBlock: blockMap updated: 10.250.6.191:50010 is added to blk_667030347776157928 size 67108864
081109 210637 1283 INFO dfs.DataNode$PacketResponder: Received block blk_-7526945448667194862 of size 67108864 from /10.251.203.80
081109 210637 1283 INFO dfs.DataNode$PacketResponder: Received block blk_194686647456297-8542 of size 67108864 from /10.251.203.80
081109 210656 1334 INFO dfs.DataNode$PacketResponder: Received block blk_-2094397855762091248 of size 67108864 from /10.251.126.83
081109 210656 1334 INFO dfs.DataNode$PacketResponder: Received block blk_69295-22710089548374 of size 67108864 from /10.251.126.83
081109 210712 1333 INFO dfs.DataNode$PacketResponder: Received block blk_-8523968015014407246 of size 67108864 from /10.251.214.225
081109 210712 1333 INFO dfs.DataNode$PacketResponder: Received block blk_798100135264806542-4 of size 67108864 from /10.251.214.225
081109 210743 27 INFO dfs.FSNamesystem: BLOCK* NameSystem.addStoredBlock: blockMap updated: 10.251.89.155:50010 is added to blk_8181993091797661153 size 67108864
081109 210743 27 INFO dfs.FSNamesystem: BLOCK* NameSystem.addStoredBlock: blockMap updated: 10.251.89.155:50010 is added to blk_3899751189071631916 size 67108864
081109 210801 1357 INFO dfs.DataNode$DataXceiver: Receiving block blk_-6276023454199613372 src: /10.251.65.237:34085 dest: /10.251.65.237:50010
081109 210801 1357 INFO dfs.DataNode$DataXceiver: Receiving block blk_366642709512433-9217 src: /10.251.65.237:34085 dest: /10.251.65.237:50010
081109 210807 1408 INFO dfs.DataNode$PacketResponder: Received block blk_4755566011267050000 of size 67108864 from /10.251.75.79
081109 210807 1408 INFO dfs.DataNode$PacketResponder: Received block blk_0126000066741055557 of size 67108864 from /10.251.75.79
081109 210812 1395 INFO dfs.DataNode$PacketResponder: Received block blk_-3909548841543565741 of size 3542967 from /10.251.195.33
081109 210812 1395 INFO dfs.DataNode$PacketResponder: Received block blk_478354495345069-5118 of size 3542967 from /10.251.195.33
081109 210921 1452 INFO dfs.DataNode$DataXceiver: Receiving block blk_-6809181994368905854 src: /10.250.17.225:51754 dest: /10.250.17.225:50010
081109 210921 1452 INFO dfs.DataNode$DataXceiver: Receiving block blk_89660854980599-34118 src: /10.250.17.225:51754 dest: /10.250.17.225:50010
081109 210935 1458 INFO dfs.DataNode$PacketResponder: Received block blk_8829027411458566099 of size 67108864 from /10.251.38.214
081109 210935 1458 INFO dfs.DataNode$PacketResponder: Received block blk_2554498720610198869 of size 67108864 from /10.251.38.214
081109 211029 31 INFO dfs.FSNamesystem: BLOCK* NameSystem.addStoredBlock: blockMap updated: 10.251.106.50:50010 is added to blk_-29548654251973735 size 67108864
081109 211029 31 INFO dfs.FSNamesystem: BLOCK* NameSystem.addStoredBlock: blockMap updated: 10.251.106.50:50010 is added to blk_2-7559765431354982 size 67108864
081109 211038 1490 INFO dfs.DataNode$PacketResponder: PacketResponder 1 for block blk_-5073870177832699716 terminating
081109 211038 1490 INFO dfs.DataNode$PacketResponder: PacketResponder 1 for block blk_7708970118957676-233 terminating
081109 211216 1504 INFO dfs.DataNode$PacketResponder: Received block blk_-8241093737585222406 of size 67108864 from /10.250.5.161
081109 211216 1504 INFO dfs.DataNode$PacketResponder: Received block blk_3675908583214420722- of size 67108864 from /10.250.5.161
081109 211301 29 INFO dfs.FSNamesystem: BLOCK* NameSystem.addStoredBlock: blockMap updated: 10.251.111.228:50010 is added to blk_-2480595760294717232 size 67108864
081109 211301 29 INFO dfs.FSNamesystem: BLOCK* NameSystem.addStoredBlock: blockMap updated: 10.251.111.228:50010 is added to blk_1-752506342204982779 size 67108864
081109 211353 1574 INFO dfs.DataNode$PacketResponder: PacketResponder 0 for block blk_7791237942696729620 terminating
081109 211353 1574 INFO dfs.DataNode$PacketResponder: PacketResponder 0 for block blk_9932226067962741977 terminating
081109 211403 31 INFO dfs.FSNamesystem: BLOCK* NameSystem.addStoredBlock: blockMap updated: 10.251.202.134:50010 is added to blk_2113880130496815041 size 3549917
081109 211403 31 INFO dfs.FSNamesystem: BLOCK* NameSystem.addStoredBlock: blockMap updated: 10.251.202.134:50010 is added to blk_0839815418016311204 size 3549917
081109 211453 1623 INFO dfs.DataNode$PacketResponder: Received block blk_1064470652608359218 of size 67108864 from /10.251.39.242
081109 211453 1623 INFO dfs.DataNode$PacketResponder: Received block blk_6264005137984615802 of size 67108864 from /10.251.39.242
081109 211528 29 INFO dfs.FSNamesystem: BLOCK* NameSystem.addStoredBlock: blockMap updated: 10.251.110.8:50010 is added to blk_-1661553043410372067 size 67108864
081109 211528 29 INFO dfs.FSNamesystem: BLOCK* NameSystem.addStoredBlock: blockMap updated: 10.251.110.8:50010 is added to blk_624053-1367361051740 size 67108864
081109 211617 1635 INFO dfs.DataNode$PacketResponder: PacketResponder 1 for block blk_-1527267659500322006 terminating
081109 211617 1635 INFO dfs.DataNode$PacketResponder: PacketResponder 1 for block blk_901737202525606256-0 terminating
081109 211918 1777 INFO dfs.DataNode$PacketResponder: PacketResponder 1 for block blk_4886940526690879848 terminating
081109 211918 1777 INFO dfs.DataNode$PacketResponder: PacketResponder 1 for block blk_9869862044487985806 terminating
081109 212029 1814 INFO dfs.DataNode$PacketResponder: Received block blk_-2452477352812192142 of size 67108864 from /10.250.7.244
081109 212029 1814 INFO dfs.DataNode$PacketResponder: Received block blk_17272-19128552223444 of size 67108864 from /10.250.7.244
081109 212219 1885 INFO dfs.DataNode$PacketResponder: PacketResponder 0 for block blk_-4229375751333894621 terminating
081109 212219 1885 INFO dfs.DataNode$PacketResponder: PacketResponder 0 for block blk_2233-775369543248911 terminating
081109 212220 1946 INFO dfs.DataNode$DataXceiver: Receiving block blk_-774267833966018354 src: /10.251.38.53:51057 dest: /10.251.38.53:50010
081109 212220 1946 INFO dfs.DataNode$DataXceiver: Receiving block blk_363-628907847154673 src: /10.251.38.53:51057 dest: /10.251.38.53:50010
081109 212245 27 INFO dfs.FSNamesystem: BLOCK* NameSystem.allocateBlock: /user/root/rand/_temporary/_task_200811092030_0001_m_001648_0/part-01648. blk_2513940824125131775
081109 212245 27 INFO dfs.FSNamesystem: BLOCK* NameSystem.allocateBlock: /user/root/rand/_temporary/_task_200811092030_0001_m_001648_0/part-01648. blk_4089513173272154512
081109 212317 34 INFO dfs.FSNamesystem: BLOCK* NameSystem.allocateBlock: /user/root/rand/_temporary/_task_200811092030_0001_m_001866_0/part-01866. blk_-1282453782148343691
081109 212317 34 INFO dfs.FSNamesystem: BLOCK* NameSystem.allocateBlock: /user/root/rand/_temporary/_task_200811092030_0001_m_001866_0/part-01866. blk_-4351163292413248887
081109 212338 2007 INFO dfs.DataNode$PacketResponder: Received block blk_-518701095493827363 of size 67108864 from /10.251.214.67
081109 212338 2007 INFO dfs.DataNode$PacketResponder: Received block blk_9238400113375598-67 of size 67108864 from /10.251.214.67
081109 212403 35 INFO dfs.FSNamesystem: BLOCK* NameSystem.addStoredBlock: blockMap updated: 10.251.106.50:50010 is added to blk_-2530087534157630851 size 67108864
081109 212403 35 INFO dfs.FSNamesystem: BLOCK* NameSystem.addStoredBlock: blockMap updated: 10.251.106.50:50010 is added to blk_783156-5710042338505 size 67108864
081109 212440 31 INFO dfs.FSNamesystem: BLOCK* NameSystem.addStoredBlock: blockMap updated: 10.251.198.196:50010 is added to blk_427714267500527780 size 67108864
081109 212440 31 INFO dfs.FSNamesystem: BLOCK* NameSystem.addStoredBlock: blockMap updated: 10.251.198.196:50010 is added to blk_700687714724257205 size 67108864
081109 212703 2053 INFO dfs.DataNode$PacketResponder: Received block blk_-967145856473901804 of size 67108864 from /10.250.6.191
081109 212703 2053 INFO dfs.DataNode$PacketResponder: Received block blk_-971065834481906457 of size 67108864 from /10.250.6.191
081109 212904 2174 INFO dfs.DataNode$PacketResponder: Received block blk_8408125361497769001 of size 67108864 from /10.251.70.211
081109 212904 2174 INFO dfs.DataNode$PacketResponder: Received block blk_0798159141662780403 of size 67108864 from /10.251.70.211
081109 212931 2211 INFO dfs.DataNode$PacketResponder: Received block blk_-1614641487214609125 of size 67108864 from /10.251.193.175
081109 212931 2211 INFO dfs.DataNode$PacketResponder: Received block blk_02182144-47114659166 of size 67108864 from /10.251.193.175
081109 213009 2207 INFO dfs.DataNode$PacketResponder: Received block blk_7577595658377008671 of size 67108864 from /10.251.71.97
081109 213009 2207 INFO dfs.DataNode$PacketResponder: Received block blk_7776037879555861750 of size 67108864 from /10.251.71.97
081109 213028 2206 INFO dfs.DataNode$PacketResponder: Received block blk_3777400576053320362 of size 67108864 from /10.251.31.5
081109 213028 2206 INFO dfs.DataNode$PacketResponder: Received block blk_3203753407707066325 of size 67108864 from /10.251.31.5
081109 213217 2267 INFO dfs.DataNode$PacketResponder: PacketResponder 0 for block blk_-5852844080027817147 terminating
081109 213217 2267 INFO dfs.DataNode$PacketResponder: PacketResponder 0 for block blk_44458001872501877-82 terminating
081109 213353 2313 INFO dfs.DataNode$PacketResponder: Received block blk_-2129171714384027465 of size 67108864 from /10.251.75.228
081109 213353 2313 INFO dfs.DataNode$PacketResponder: Received block blk_1108-772194272445136 of size 67108864 from /10.251.75.228
081109 213436 13 INFO dfs.DataBlockScanner: Verification succeeded for blk_-2827716238972737794
081109 213436 13 INFO dfs.DataBlockScanner: Verification succeeded for blk_-8293267377771982427
081109 213506 2421 INFO dfs.DataNode$DataXceiver: Receiving block blk_-3509323198988774369 src: /10.250.6.214:52922 dest: /10.250.6.214:50010
081109 213506 2421 INFO dfs.DataNode$DataXceiver: Receiving block blk_843863201598397379-9 src: /10.250.6.214:52922 dest: /10.250.6.214:50010
081109 213510 2384 INFO dfs.DataNode$PacketResponder: PacketResponder 0 for block blk_9093049293972551787 terminating
081109 213510 2384 INFO dfs.DataNode$PacketResponder: PacketResponder 0 for block blk_0382719390999575724 terminating
081109 213837 19 INFO dfs.FSDataset: Deleting block blk_1781953582842324563 file /mnt/hadoop/dfs/data/current/subdir5/blk_1781953582842324563
081109 213837 19 INFO dfs.FSDataset: Deleting block blk_8231558429675328431 file /mnt/hadoop/dfs/data/current/subdir5/blk_2414351382785695328
081109 213847 2552 INFO dfs.DataNode$DataXceiver: 10.251.194.213:50010 Served block blk_-7724713468912166542 to /10.251.203.80
081109 213847 2552 INFO dfs.DataNode$DataXceiver: 10.251.194.213:50010 Served block blk_56441671238247179-26 to /10.251.203.80
081109 213907 2497 INFO dfs.DataNode$DataXceiver: 10.251.91.229:50010 Served block blk_-3358448553918665902 to /10.251.91.229
081109 213907 2497 INFO dfs.DataNode$DataXceiver: 10.251.91.229:50010 Served block blk_965683-8983251440535 to /10.251.91.229
081109 213908 2549 INFO dfs.DataNode$DataXceiver: 10.251.39.192:50010 Served block blk_-5341992729755584578 to /10.251.39.192
081109 213908 2549 INFO dfs.DataNode$DataXceiver: 10.251.39.192:50010 Served block blk_55847197575342592-98 to /10.251.39.192
081109 214009 2594 INFO dfs.DataNode$DataXceiver: 10.250.5.237:50010 Served block blk_3166960787499091856 to /10.251.43.147
081109 214009 2594 INFO dfs.DataNode$DataXceiver: 10.250.5.237:50010 Served block blk_8951468709616990637 to /10.251.43.147
081109 214043 2561 WARN dfs.DataNode$DataXceiver: 10.251.30.85:50010:Got exception while serving blk_-2918118818249673980 to /10.251.90.64:
081109 214043 2561 WARN dfs.DataNode$DataXceiver: 10.251.30.85:50010:Got exception while serving blk_99324828906111-78818 to /10.251.90.64:
081109 214402 2677 WARN dfs.DataNode$DataXceiver: 10.251.126.255:50010:Got exception while serving blk_8376667364205250596 to /10.251.91.159:
081109 214402 2677 WARN dfs.DataNode$DataXceiver: 10.251.126.255:50010:Got exception while serving blk_2604550768366375629 to /10.251.91.159:
081109 214524 2633 INFO dfs.DataNode$DataXceiver: 10.251.71.68:50010 Served block blk_-2794533871450434534 to /10.251.199.150
081109 214524 2633 INFO dfs.DataNode$DataXceiver: 10.251.71.68:50010 Served block blk_2455-403913435447837 to /10.251.199.150
081109 214529 2747 WARN dfs.DataNode$DataXceiver: 10.251.123.132:50010:Got exception while serving blk_3763728533434719668 to /10.251.38.214:
081109 214529 2747 WARN dfs.DataNode$DataXceiver: 10.251.123.132:50010:Got exception while serving blk_3462376733967834851 to /10.251.38.214:
081109 214910 2848 WARN dfs.DataNode$DataXceiver: 10.250.13.188:50010:Got exception while serving blk_6241141267506413726 to /10.251.194.245:
081109 214910 2848 WARN dfs.DataNode$DataXceiver: 10.250.13.188:50010:Got exception while serving blk_1071422416465637621 to /10.251.194.245:
081109 214919 2899 INFO dfs.DataNode$DataXceiver: 10.251.214.32:50010 Served block blk_-6520030462660619051 to /10.251.215.70
081109 214919 2899 INFO dfs.DataNode$DataXceiver: 10.251.214.32:50010 Served block blk_0-609620562036561140 to /10.251.215.70
081109 215136 2868 WARN dfs.DataNode$DataXceiver: 10.251.199.19:50010:Got exception while serving blk_8466246428293623262 to /10.251.106.37:
081109 215136 2868 WARN dfs.DataNode$DataXceiver: 10.251.199.19:50010:Got exception while serving blk_4628826432463262629 to /10.251.106.37:
081109 215259 2934 WARN dfs.DataNode$DataXceiver: 10.250.9.207:50010:Got exception while serving blk_-3140754468249228022 to /10.250.9.207:
081109 215259 2934 WARN dfs.DataNode$DataXceiver: 10.250.9.207:50010:Got exception while serving blk_-0385442697124224208 to /10.250.9.207:
081109 215702 3022 WARN dfs.DataNode$DataXceiver: 10.251.202.134:50010:Got exception while serving blk_3441699978641526775 to /10.251.126.5:
081109 215702 3022 WARN dfs.DataNode$DataXceiver: 10.251.202.134:50010:Got exception while serving blk_1757658342147999646 to /10.251.126.5:
081109 215734 3055 INFO dfs.DataNode$DataXceiver: 10.250.6.214:50010 Served block blk_5739119717322549945 to /10.251.43.115
081109 215734 3055 INFO dfs.DataNode$DataXceiver: 10.250.6.214:50010 Served block blk_7915972754131993245 to /10.251.43.115
081109 220032 3137 WARN dfs.DataNode$DataXceiver: 10.250.14.196:50010:Got exception while serving blk_-305633040016166849 to /10.251.38.53:
081109 220032 3137 WARN dfs.DataNode$DataXceiver: 10.250.14.196:50010:Got exception while serving blk_591384664-006160330 to /10.251.38.53:
081109 220403 3148 WARN dfs.DataNode$DataXceiver: 10.251.107.227:50010:Got exception while serving blk_-6290631608800952376 to /10.251.109.209:
081109 220403 3148 WARN dfs.DataNode$DataXceiver: 10.251.107.227:50010:Got exception while serving blk_288-6190967020663053 to /10.251.109.209:
081109 220528 3174 INFO dfs.DataNode$DataXceiver: 10.251.203.166:50010 Served block blk_8787656642683881295 to /10.251.107.98
081109 220528 3174 INFO dfs.DataNode$DataXceiver: 10.251.203.166:50010 Served block blk_7468681698828527365 to /10.251.107.98
081109 221105 3338 WARN dfs.DataNode$DataXceiver: 10.251.90.64:50010:Got exception while serving blk_-4841792440390267307 to /10.251.90.239:
081109 221105 3338 WARN dfs.DataNode$DataXceiver: 10.251.90.64:50010:Got exception while serving blk_0049701247233-964847 to /10.251.90.239:
081109 221151 3361 WARN dfs.DataNode$DataXceiver: 10.250.10.144:50010:Got exception while serving blk_5126469776250053435 to /10.250.11.100:
081109 221151 3361 WARN dfs.DataNode$DataXceiver: 10.250.10.144:50010:Got exception while serving blk_0649246516732550537 to /10.250.11.100:
081109 222040 3463 WARN dfs.DataNode$DataXceiver: 10.251.71.146:50010:Got exception while serving blk_-2032740670708110312 to /10.251.197.161:
081109 222040 3463 WARN dfs.DataNode$DataXceiver: 10.251.71.146:50010:Got exception while serving blk_30772201000-17614382 to /10.251.197.161:
081109 222041 3390 WARN dfs.DataNode$DataXceiver: 10.251.67.113:50010:Got exception while serving blk_-62891505109755100 to /10.250.7.96:
081109 222041 3390 WARN dfs.DataNode$DataXceiver: 10.251.67.113:50010:Got exception while serving blk_010556102-09175589 to /10.250.7.96:
081109 222342 3462 WARN dfs.DataNode$DataXceiver: 10.251.74.79:50010:Got exception while serving blk_2244903517044280975 to /10.251.74.134:
081109 222342 3462 WARN dfs.DataNode$DataXceiver: 10.251.74.79:50010:Got exception while serving blk_4427358510449297020 to /10.251.74.134:
081109 222650 3459 WARN dfs.DataNode$DataXceiver: 10.251.214.112:50010:Got exception while serving blk_5905933788014151041 to /10.251.214.112:
081109 222650 3459 WARN dfs.DataNode$DataXceiver: 10.251.214.112:50010:Got exception while serving blk_5334970151884159010 to /10.251.214.112:
081109 223211 3544 INFO dfs.DataNode$DataXceiver: 10.251.111.80:50010 Served block blk_6296828743242110158 to /10.251.42.246
081109 223211 3544 INFO dfs.DataNode$DataXceiver: 10.251.111.80:50010 Served block blk_8232146128614572980 to /10.251.42.246
081109 223910 3540 WARN dfs.DataNode$DataXceiver: 10.251.43.210:50010:Got exception while serving blk_2969087638814291714 to /10.251.199.86:
081109 223910 3540 WARN dfs.DataNode$DataXceiver: 10.251.43.210:50010:Got exception while serving blk_6398891717401428692 to /10.251.199.86:
081109 224054 3560 WARN dfs.DataNode$DataXceiver: 10.251.126.255:50010:Got exception while serving blk_2879780987351022871 to /10.251.39.144:
081109 224054 3560 WARN dfs.DataNode$DataXceiver: 10.251.126.255:50010:Got exception while serving blk_8085171032987272978 to /10.251.39.144:
081109 224234 3638 WARN dfs.DataNode$DataXceiver: 10.251.73.220:50010:Got exception while serving blk_4934527196392001803 to /10.251.203.246:
081109 224234 3638 WARN dfs.DataNode$DataXceiver: 10.251.73.220:50010:Got exception while serving blk_0070354292114933986 to /10.251.203.246:
081109 224420 3666 WARN dfs.DataNode$DataXceiver: 10.251.73.188:50010:Got exception while serving blk_7517964792804498202 to /10.250.6.191:
081109 224420 3666 WARN dfs.DataNode$DataXceiver: 10.251.73.188:50010:Got exception while serving blk_0842254702918697974 to /10.250.6.191:
081109 224741 3699 WARN dfs.DataNode$DataXceiver: 10.251.35.1:50010:Got exception while serving blk_7940316270494947483 to /10.251.122.38:
081109 224741 3699 WARN dfs.DataNode$DataXceiver: 10.251.35.1:50010:Got exception while serving blk_7446993747800349142 to /10.251.122.38:
081109 230110 3647 WARN dfs.DataNode$DataXceiver: 10.251.90.134:50010:Got exception while serving blk_7154985168984871115 to /10.251.110.160:
081109 230110 3647 WARN dfs.DataNode$DataXceiver: 10.251.90.134:50010:Got exception while serving blk_9179841486875118551 to /10.251.110.160:
081109 232200 3856 INFO dfs.DataNode$PacketResponder: Received block blk_-6867873931012347356 of size 67108864 from /10.251.39.64
081109 232200 3856 INFO dfs.DataNode$PacketResponder: Received block blk_26603337-74578369118 of size 67108864 from /10.251.39.64
081109 232324 32 INFO dfs.FSNamesystem: BLOCK* NameSystem.addStoredBlock: blockMap updated: 10.251.107.19:50010 is added to blk_6093743385844975689 size 67108864
081109 232324 32 INFO dfs.FSNamesystem: BLOCK* NameSystem.addStoredBlock: blockMap updated: 10.251.107.19:50010 is added to blk_4634897370648983595 size 67108864
081109 232346 3820 INFO dfs.DataNode$DataXceiver: Receiving block blk_8692428775973608797 src: /10.250.10.213:56574 dest: /10.250.10.213:50010
081109 232346 3820 INFO dfs.DataNode$DataXceiver: Receiving block blk_7928877789596672430 src: /10.250.10.213:56574 dest: /10.250.10.213:50010
081109 232639 3792 INFO dfs.DataNode$PacketResponder: PacketResponder 0 for block blk_-6837050820114491742 terminating
081109 232639 3792 INFO dfs.DataNode$PacketResponder: PacketResponder 0 for block blk_270-5980362107441481 terminating
081109 232828 3875 INFO dfs.DataNode$PacketResponder: Received block blk_-5195432543794777448 of size 67108864 from /10.250.10.6
081109 232828 3875 INFO dfs.DataNode$PacketResponder: Received block blk_1593779248775454-344 of size 67108864 from /10.250.10.6
081109 232829 33 INFO dfs.FSNamesystem: BLOCK* NameSystem.addStoredBlock: blockMap updated: 10.251.110.68:50010 is added to blk_1636660629634995787 size 67108864
081109 232829 33 INFO dfs.FSNamesystem: BLOCK* NameSystem.addStoredBlock: blockMap updated: 10.251.110.68:50010 is added to blk_9763995641867023666 size 67108864
081109 232833 32 INFO dfs.FSNamesystem: BLOCK* NameSystem.addStoredBlock: blockMap updated: 10.251.75.79:50010 is added to blk_467589865104023338 size 67108864
081109 232833 32 INFO dfs.FSNamesystem: BLOCK* NameSystem.addStoredBlock: blockMap updated: 10.251.75.79:50010 is added to blk_486903338287556104 size 67108864
081109 232923 3792 INFO dfs.DataNode$PacketResponder: Received block blk_7929144620252342335 of size 67108864 from /10.251.31.5
081109 232923 3792 INFO dfs.DataNode$PacketResponder: Received block blk_4694134525222093372 of size 67108864 from /10.251.31.5
081109 232926 3783 INFO dfs.DataNode$DataXceiver: Receiving block blk_-1798958443298220150 src: /10.251.111.209:57419 dest: /10.251.111.209:50010
081109 232926 3783 INFO dfs.DataNode$DataXceiver: Receiving block blk_32998798045-50481221 src: /10.251.111.209:57419 dest: /10.251.111.209:50010
081109 233108 3872 INFO dfs.DataNode$PacketResponder: PacketResponder 0 for block blk_-54240672253074715 terminating
081109 233108 3872 INFO dfs.DataNode$PacketResponder: PacketResponder 0 for block blk_15-462075047422573 terminating
081109 233356 3917 INFO dfs.DataNode$DataXceiver: Receiving block blk_-7172347691639518373 src: /10.251.111.37:35327 dest: /10.251.111.37:50010
081109 233356 3917 INFO dfs.DataNode$DataXceiver: Receiving block blk_237919343738-6117576 src: /10.251.111.37:35327 dest: /10.251.111.37:50010
081109 233753 3950 INFO dfs.DataNode$DataXceiver: Receiving block blk_-6412155847905320411 src: /10.251.30.85:58995 dest: /10.251.30.85:50010
081109 233753 3950 INFO dfs.DataNode$DataXceiver: Receiving block blk_51-21584046195201734 src: /10.251.30.85:58995 dest: /10.251.30.85:50010
081109 233835 4139 INFO dfs.DataNode$DataXceiver: Receiving block blk_699651392443620263 src: /10.251.70.5:34703 dest: /10.251.70.5:50010
081109 233835 4139 INFO dfs.DataNode$DataXceiver: Receiving block blk_366659642329920341 src: /10.251.70.5:34703 dest: /10.251.70.5:50010
081109 233836 4061 INFO dfs.DataNode$DataXceiver: Receiving block blk_-8788032532930439012 src: /10.251.126.255:41104 dest: /10.251.126.255:50010
081109 233836 4061 INFO dfs.DataNode$DataXceiver: Receiving block blk_8180303297349082253- src: /10.251.126.255:41104 dest: /10.251.126.255:50010
081109 233849 4087 INFO dfs.DataNode$PacketResponder: Received block blk_-3455521536483250153 of size 67108864 from /10.251.106.37
081109 233849 4087 INFO dfs.DataNode$PacketResponder: Received block blk_5541053-343135585262 of size 67108864 from /10.251.106.37
081109 234027 26 INFO dfs.FSNamesystem: BLOCK* NameSystem.addStoredBlock: blockMap updated: 10.251.31.85:50010 is added to blk_-7017553867379051457 size 67108864
081109 234027 26 INFO dfs.FSNamesystem: BLOCK* NameSystem.addStoredBlock: blockMap updated: 10.251.31.85:50010 is added to blk_5537175705767-341809 size 67108864
081109 234107 4261 INFO dfs.DataNode$DataXceiver: Receiving block blk_-1259190292740306590 src: /10.251.65.203:36289 dest: /10.251.65.203:50010
081109 234107 4261 INFO dfs.DataNode$DataXceiver: Receiving block blk_06729-19055202499130 src: /10.251.65.203:36289 dest: /10.251.65.203:50010
081109 234110 26 INFO dfs.FSNamesystem: BLOCK* NameSystem.allocateBlock: /user/root/sortrand/_temporary/_task_200811092030_0002_r_000296_0/part-00296. blk_-6620182933895093708
081109 234110 26 INFO dfs.FSNamesystem: BLOCK* NameSystem.allocateBlock: /user/root/sortrand/_temporary/_task_200811092030_0002_r_000296_0/part-00296. blk_906538103288-9629307
081109 234111 4288 INFO dfs.DataNode$PacketResponder: PacketResponder 1 for block blk_2028803850179311599 terminating
081109 234111 4288 INFO dfs.DataNode$PacketResponder: PacketResponder 1 for block blk_1092093982801735185 terminating
081109 234112 4136 INFO dfs.DataNode$DataXceiver: Receiving block blk_-8562334328670278932 src: /10.251.194.147:46714 dest: /10.251.194.147:50010
081109 234112 4136 INFO dfs.DataNode$DataXceiver: Receiving block blk_0232568867422739833- src: /10.251.194.147:46714 dest: /10.251.194.147:50010
081109 234325 4246 INFO dfs.DataNode$PacketResponder: PacketResponder 1 for block blk_-8108913101671416218 terminating
081109 234325 4246 INFO dfs.DataNode$PacketResponder: PacketResponder 1 for block blk_32816810149-10178161 terminating
081109 234512 4223 INFO dfs.DataNode$PacketResponder: PacketResponder 0 for block blk_-7640601843607665080 terminating
081109 234512 4223 INFO dfs.DataNode$PacketResponder: PacketResponder 0 for block blk_6310-760070568604648 terminating
081109 234516 4136 INFO dfs.DataNode$DataXceiver: Receiving block blk_7654726977769174867 src: /10.251.110.160:49990 dest: /10.251.110.160:50010
081109 234516 4136 INFO dfs.DataNode$DataXceiver: Receiving block blk_7776567927496784761 src: /10.251.110.160:49990 dest: /10.251.110.160:50010
081109 234555 4345 INFO dfs.DataNode$PacketResponder: PacketResponder 1 for block blk_8320088109701056055 terminating
081109 234555 4345 INFO dfs.DataNode$PacketResponder: PacketResponder 1 for block blk_0808371200605590851 terminating
081109 234605 26 INFO dfs.FSNamesystem: BLOCK* NameSystem.addStoredBlock: blockMap updated: 10.251.197.226:50010 is added to blk_4585055992495043771 size 67108864
081109 234605 26 INFO dfs.FSNamesystem: BLOCK* NameSystem.addStoredBlock: blockMap updated: 10.251.197.226:50010 is added to blk_9345255001875744599 size 67108864
081109 234644 4177 INFO dfs.DataNode$PacketResponder: Received block blk_-4330512786228504138 of size 67108864 from /10.251.67.225
081109 234644 4177 INFO dfs.DataNode$PacketResponder: Received block blk_3625282301-883475410 of size 67108864 from /10.251.67.225
081109 234706 34 INFO dfs.FSNamesystem: BLOCK* NameSystem.addStoredBlock: blockMap updated: 10.251.30.179:50010 is added to blk_4628142183191390143 size 67108864
081109 234706 34 INFO dfs.FSNamesystem: BLOCK* NameSystem.addStoredBlock: blockMap updated: 10.251.30.179:50010 is added to blk_3932018832141644911 size 67108864
081109 234719 4344 INFO dfs.DataNode$PacketResponder: PacketResponder 2 for block blk_-6766351519628312408 terminating
081109 234719 4344 INFO dfs.DataNode$PacketResponder: PacketResponder 2 for block blk_689812660-5231375164 terminating
081109 234728 27 INFO dfs.FSNamesystem: BLOCK* NameSystem.addStoredBlock: blockMap updated: 10.250.5.237:50010 is added to blk_-476906696485288376 size 67108864
081109 234728 27 INFO dfs.FSNamesystem: BLOCK* NameSystem.addStoredBlock: blockMap updated: 10.250.5.237:50010 is added to blk_2789673964685-04866 size 67108864
081109 234835 3972 INFO dfs.DataNode$PacketResponder: PacketResponder 0 for block blk_-7436749154361133879 terminating
081109 234835 3972 INFO dfs.DataNode$PacketResponder: PacketResponder 0 for block blk_49173-14863673579341 terminating
081109 234835 4259 INFO dfs.DataNode$DataXceiver: Receiving block blk_7061131805920430446 src: /10.250.7.32:53397 dest: /10.250.7.32:50010
081109 234835 4259 INFO dfs.DataNode$DataXceiver: Receiving block blk_3071890264604513401 src: /10.250.7.32:53397 dest: /10.250.7.32:50010
081109 234924 4275 INFO dfs.DataNode$PacketResponder: Received block blk_-684595390732854503 of size 67108864 from /10.250.6.191
081109 234924 4275 INFO dfs.DataNode$PacketResponder: Received block blk_593003865-955427384 of size 67108864 from /10.250.6.191
081109 235030 31 INFO dfs.FSNamesystem: BLOCK* NameSystem.addStoredBlock: blockMap updated: 10.250.7.244:50010 is added to blk_-6956067134432991406 size 67108864
081109 235030 31 INFO dfs.FSNamesystem: BLOCK* NameSystem.addStoredBlock: blockMap updated: 10.250.7.244:50010 is added to blk_446641099215393760-6 size 67108864
081109 235138 3469 INFO dfs.DataNode$PacketResponder: PacketResponder 0 for block blk_549647953114643908 terminating
081109 235138 3469 INFO dfs.DataNode$PacketResponder: PacketResponder 0 for block blk_506489643149351479 terminating
081109 235140 31 INFO dfs.FSNamesystem: BLOCK* NameSystem.allocateBlock: /user/root/sortrand/_temporary/_task_200811092030_0002_r_000230_0/part-00230. blk_559204981722276126
081109 235140 31 INFO dfs.FSNamesystem: BLOCK* NameSystem.allocateBlock: /user/root/sortrand/_temporary/_task_200811092030_0002_r_000230_0/part-00230. blk_272976154298102652
081109 235305 4419 INFO dfs.DataNode$PacketResponder: PacketResponder 1 for block blk_-165500353496111884 terminating
081109 235305 4419 INFO dfs.DataNode$PacketResponder: PacketResponder 1 for block blk_04895513413651-1806 terminating
081109 235311 34 INFO dfs.FSNamesystem: BLOCK* NameSystem.allocateBlock: /user/root/sortrand/_temporary/_task_200811092030_0002_r_000169_0/part-00169. blk_-7105305952901940477
081109 235311 34 INFO dfs.FSNamesystem: BLOCK* NameSystem.allocateBlock: /user/root/sortrand/_temporary/_task_200811092030_0002_r_000169_0/part-00169. blk_013594-0050779479521
081109 235322 3968 INFO dfs.DataNode$DataXceiver: Receiving block blk_-9103764593642564543 src: /10.251.43.115:46385 dest: /10.251.43.115:50010
081109 235322 3968 INFO dfs.DataNode$DataXceiver: Receiving block blk_64604215443755363-99 src: /10.251.43.115:46385 dest: /10.251.43.115:50010
081109 235337 4459 INFO dfs.DataNode$PacketResponder: PacketResponder 0 for block blk_3160319368100972992 terminating
081109 235337 4459 INFO dfs.DataNode$PacketResponder: PacketResponder 0 for block blk_3929176093910063821 terminating
081109 235426 4327 INFO dfs.DataNode$PacketResponder: Received block blk_-562725280853087685 of size 67108864 from /10.251.91.84
081109 235426 4327 INFO dfs.DataNode$PacketResponder: Received block blk_6082075682287853-55 of size 67108864 from /10.251.91.84
081109 235609 4400 INFO dfs.DataNode$PacketResponder: PacketResponder 1 for block blk_4568377692254637284 terminating
081109 235609 4400 INFO dfs.DataNode$PacketResponder: PacketResponder 1 for block blk_3677742456682539428 terminating
081109 235727 4429 INFO dfs.DataNode$DataXceiver: Receiving block blk_-5217146995455608468 src: /10.251.214.67:38871 dest: /10.251.214.67:50010
081109 235727 4429 INFO dfs.DataNode$DataXceiver: Receiving block blk_449164065152-8985567 src: /10.251.214.67:38871 dest: /10.251.214.67:50010
081109 235813 31 INFO dfs.FSNamesystem: BLOCK* NameSystem.addStoredBlock: blockMap updated: 10.251.199.225:50010 is added to blk_7481361125021302112 size 67108864
081109 235813 31 INFO dfs.FSNamesystem: BLOCK* NameSystem.addStoredBlock: blockMap updated: 10.251.199.225:50010 is added to blk_0132726218121430511 size 67108864
081109 235903 4454 INFO dfs.DataNode$PacketResponder: Received block blk_-71429470616906355 of size 67108864 from /10.250.19.16
081109 235903 4454 INFO dfs.DataNode$PacketResponder: Received block blk_54960421750761-963 of size 67108864 from /10.250.19.16
081109 235904 4520 INFO dfs.DataNode$DataXceiver: Receiving block blk_-522892190802801712 src: /10.251.74.134:39584 dest: /10.251.74.134:50010
081109 235904 4520 INFO dfs.DataNode$DataXceiver: Receiving block blk_28982027502-1218901 src: /10.251.74.134:39584 dest: /10.251.74.134:50010
081109 235919 31 INFO dfs.FSNamesystem: BLOCK* NameSystem.addStoredBlock: blockMap updated: 10.251.107.19:50010 is added to blk_-3249711809227781266 size 67108864
081109 235919 31 INFO dfs.FSNamesystem: BLOCK* NameSystem.addStoredBlock: blockMap updated: 10.251.107.19:50010 is added to blk_11-13929767280784262 size 67108864
081109 235951 4525 INFO dfs.DataNode$DataXceiver: Receiving block blk_-6329494504520216748 src: /10.251.25.237:39332 dest: /10.251.25.237:50010
081109 235951 4525 INFO dfs.DataNode$DataXceiver: Receiving block blk_420726358-0145942946 src: /10.251.25.237:39332 dest: /10.251.25.237:50010
081110 000117 33 INFO dfs.FSNamesystem: BLOCK* NameSystem.allocateBlock: /user/root/sortrand/_temporary/_task_200811092030_0002_r_000318_0/part-00318. blk_-207775976836691685
081110 000117 33 INFO dfs.FSNamesystem: BLOCK* NameSystem.allocateBlock: /user/root/sortrand/_temporary/_task_200811092030_0002_r_000318_0/part-00318. blk_566857379976187062-
081110 000136 28 INFO dfs.FSNamesystem: BLOCK* NameSystem.addStoredBlock: blockMap updated: 10.250.6.4:50010 is added to blk_5114010683183383297 size 67108864
081110 000136 28 INFO dfs.FSNamesystem: BLOCK* NameSystem.addStoredBlock: blockMap updated: 10.250.6.4:50010 is added to blk_8815483930167302113 size 67108864
081110 000136 4627 INFO dfs.DataNode$PacketResponder: PacketResponder 1 for block blk_-7656610147924319419 terminating
081110 000136 4627 INFO dfs.DataNode$PacketResponder: PacketResponder 1 for block blk_0979245317114664916- terminating
081110 000232 27 INFO dfs.FSNamesystem: BLOCK* NameSystem.allocateBlock: /user/root/sortrand/_temporary/_task_200811092030_0002_r_000318_0/part-00318. blk_2096692261399680562
081110 000232 27 INFO dfs.FSNamesystem: BLOCK* NameSystem.allocateBlock: /user/root/sortrand/_temporary/_task_200811092030_0002_r_000318_0/part-00318. blk_5022969166389902626
081110 000238 4717 INFO dfs.DataNode$PacketResponder: PacketResponder 0 for block blk_-6500549130351529113 terminating
081110 000238 4717 INFO dfs.DataNode$PacketResponder: PacketResponder 0 for block blk_6595153-013901142053 terminating
081110 000319 4568 INFO dfs.DataNode$DataXceiver: Receiving block blk_-8255732027871411321 src: /10.251.39.179:33950 dest: /10.251.39.179:50010
081110 000319 4568 INFO dfs.DataNode$DataXceiver: Receiving block blk_21237452157183287-10 src: /10.251.39.179:33950 dest: /10.251.39.179:50010
081110 000507 4619 INFO dfs.DataNode$PacketResponder: PacketResponder 2 for block blk_-2896670847306153652 terminating
081110 000507 4619 INFO dfs.DataNode$PacketResponder: PacketResponder 2 for block blk_7850946573186362-602 terminating
081110 000546 4624 INFO dfs.DataNode$DataXceiver: Receiving block blk_-8856628810470361280 src: /10.250.5.237:41923 dest: /10.250.5.237:50010
081110 000546 4624 INFO dfs.DataNode$DataXceiver: Receiving block blk_8382861016-765800824 src: /10.250.5.237:41923 dest: /10.250.5.237:50010
081110 000616 4552 INFO dfs.DataNode$PacketResponder: Received block blk_3463540868626173125 of size 67108864 from /10.251.30.134
081110 000616 4552 INFO dfs.DataNode$PacketResponder: Received block blk_3641648586602152373 of size 67108864 from /10.251.30.134
081110 000657 4822 INFO dfs.DataNode$PacketResponder: Received block blk_-5309211894896608429 of size 67108864 from /10.251.202.181
081110 000657 4822 INFO dfs.DataNode$PacketResponder: Received block blk_1-198992598646280340 of size 67108864 from /10.251.202.181
081110 000727 34 INFO dfs.FSNamesystem: BLOCK* NameSystem.addStoredBlock: blockMap updated: 10.250.15.240:50010 is added to blk_-1055254430948037872 size 67108864
081110 000727 34 INFO dfs.FSNamesystem: BLOCK* NameSystem.addStoredBlock: blockMap updated: 10.250.15.240:50010 is added to blk_08758-19474300542523 size 67108864
081110 000755 4717 INFO dfs.DataNode$DataXceiver: Receiving block blk_3962600675982666210 src: /10.251.123.195:37374 dest: /10.251.123.195:50010
081110 000755 4717 INFO dfs.DataNode$DataXceiver: Receiving block blk_9607806696122560326 src: /10.251.123.195:37374 dest: /10.251.123.195:50010
081110 000820 4687 INFO dfs.DataNode$PacketResponder: PacketResponder 0 for block blk_-730776401372551814 terminating
081110 000820 4687 INFO dfs.DataNode$PacketResponder: PacketResponder 0 for block blk_143775527036748101- terminating
081110 000841 4727 INFO dfs.DataNode$PacketResponder: PacketResponder 2 for block blk_-7553009628768897700 terminating
081110 000841 4727 INFO dfs.DataNode$PacketResponder: PacketResponder 2 for block blk_7705-838560269900877 terminating
081110 001250 4631 INFO dfs.DataNode$PacketResponder: Received block blk_3068335169639013019 of size 67108864 from /10.251.71.68
081110 001250 4631 INFO dfs.DataNode$PacketResponder: Received block blk_6933069301839015316 of size 67108864 from /10.251.71.68
081110 001307 29 INFO dfs.FSNamesystem: BLOCK* NameSystem.addStoredBlock: blockMap updated: 10.251.90.239:50010 is added to blk_-9069971851590882719 size 67108864
081110 001307 29 INFO dfs.FSNamesystem: BLOCK* NameSystem.addStoredBlock: blockMap updated: 10.251.90.239:50010 is added to blk_1987891591295806907- size 67108864
081110 001337 27 INFO dfs.FSNamesystem: BLOCK* NameSystem.addStoredBlock: blockMap updated: 10.251.67.4:50010 is added to blk_-8924134715029713489 size 67108864
081110 001337 27 INFO dfs.FSNamesystem: BLOCK* NameSystem.addStoredBlock: blockMap updated: 10.251.67.4:50010 is added to blk_497259148-1307948312 size 67108864
081110 001350 29 INFO dfs.FSNamesystem: BLOCK* NameSystem.addStoredBlock: blockMap updated: 10.250.7.146:50010 is added to blk_278357163850888 size 67108864
081110 001350 29 INFO dfs.FSNamesystem: BLOCK* NameSystem.addStoredBlock: blockMap updated: 10.250.7.146:50010 is added to blk_763838081728855 size 67108864
081110 001745 4905 INFO dfs.DataNode$DataXceiver: Receiving block blk_-5135777574223073423 src: /10.251.65.237:48648 dest: /10.251.65.237:50010
081110 001745 4905 INFO dfs.DataNode$DataXceiver: Receiving block blk_5277477235457033312- src: /10.251.65.237:48648 dest: /10.251.65.237:50010
081110 001818 4837 INFO dfs.DataNode$PacketResponder: PacketResponder 2 for block blk_-1148756466197125339 terminating
081110 001818 4837 INFO dfs.DataNode$PacketResponder: PacketResponder 2 for block blk_895-1472715693411663 terminating
081110 002041 4863 INFO dfs.DataNode$PacketResponder: PacketResponder 1 for block blk_9074030793567748915 terminating
081110 002041 4863 INFO dfs.DataNode$PacketResponder: PacketResponder 1 for block blk_0907839505714739647 terminating
081110 002103 4928 INFO dfs.DataNode$PacketResponder: Received block blk_-4067446915270471579 of size 25933924 from /10.251.110.8
081110 002103 4928 INFO dfs.DataNode$PacketResponder: Received block blk_-1477675440709214956 of size 25933924 from /10.251.110.8
081110 002221 4855 INFO dfs.DataNode$PacketResponder: PacketResponder 0 for block blk_3259872359515191972 terminating
081110 002221 4855 INFO dfs.DataNode$PacketResponder: PacketResponder 0 for block blk_5231979125997153852 terminating
081110 002223 4824 INFO dfs.DataNode$PacketResponder: PacketResponder 1 for block blk_5963816136267066159 terminating
081110 002223 4824 INFO dfs.DataNode$PacketResponder: PacketResponder 1 for block blk_6573962656136198016 terminating
081110 002253 34 INFO dfs.FSNamesystem: BLOCK* NameSystem.allocateBlock: /user/root/sortrand/_temporary/_task_200811092030_0002_r_000138_0/part-00138. blk_-210021574616486609
081110 002253 34 INFO dfs.FSNamesystem: BLOCK* NameSystem.allocateBlock: /user/root/sortrand/_temporary/_task_200811092030_0002_r_000138_0/part-00138. blk_464-016628962101507
081110 002337 13 INFO dfs.DataBlockScanner: Verification succeeded for blk_-1547954353065580372
081110 002337 13 INFO dfs.DataBlockScanner: Verification succeeded for blk_705-8335575244513069
081110 002914 4955 INFO dfs.DataNode$DataXceiver: Receiving block blk_-8524274644018377752 src: /10.251.42.16:33011 dest: /10.251.42.16:50010
081110 002914 4955 INFO dfs.DataNode$DataXceiver: Receiving block blk_48226357471744-20875 src: /10.251.42.16:33011 dest: /10.251.42.16:50010
081110 003441 4986 INFO dfs.DataNode$DataXceiver: Receiving block blk_-2015110815660478655 src: /10.251.35.1:53344 dest: /10.251.35.1:50010
081110 003441 4986 INFO dfs.DataNode$DataXceiver: Receiving block blk_56-62814586105501107 src: /10.251.35.1:53344 dest: /10.251.35.1:50010
081110 003502 4937 INFO dfs.DataNode$PacketResponder: Received block blk_7484759945731484842 of size 67108864 from /10.251.203.149
081110 003502 4937 INFO dfs.DataNode$PacketResponder: Received block blk_9545278783791484444 of size 67108864 from /10.251.203.149
081110 004247 33 INFO dfs.FSNamesystem: BLOCK* NameSystem.addStoredBlock: blockMap updated: 10.251.39.242:50010 is added to blk_-4110733372292809607 size 67108864
081110 004247 33 INFO dfs.FSNamesystem: BLOCK* NameSystem.addStoredBlock: blockMap updated: 10.251.39.242:50010 is added to blk_481302021-9637773920 size 67108864
081110 010354 5184 INFO dfs.DataNode$PacketResponder: Received block blk_-7152190882826520998 of size 67108864 from /10.250.14.143
081110 010354 5184 INFO dfs.DataNode$PacketResponder: Received block blk_82880918-92215692075 of size 67108864 from /10.250.14.143
081110 010438 4917 INFO dfs.DataNode$DataXceiver: Receiving block blk_-6543889749770222531 src: /10.251.107.98:56224 dest: /10.251.107.98:50010
081110 010438 4917 INFO dfs.DataNode$DataXceiver: Receiving block blk_272-1945476803825793 src: /10.251.107.98:56224 dest: /10.251.107.98:50010
081110 010506 5128 INFO dfs.DataNode$PacketResponder: Received block blk_8772892713521115147 of size 67108864 from /10.251.194.245
081110 010506 5128 INFO dfs.DataNode$PacketResponder: Received block blk_1725321721588714971 of size 67108864 from /10.251.194.245
081110 010525 5099 INFO dfs.DataNode$PacketResponder: Received block blk_-6979800421545566530 of size 67108864 from /10.250.10.176
081110 010525 5099 INFO dfs.DataNode$PacketResponder: Received block blk_065521657948540093-6 of size 67108864 from /10.250.10.176
081110 010543 35 INFO dfs.FSNamesystem: BLOCK* NameSystem.allocateBlock: /user/root/randtxt/_temporary/_task_200811092030_0003_m_000382_0/part-00382. blk_8935202950442998446
081110 010543 35 INFO dfs.FSNamesystem: BLOCK* NameSystem.allocateBlock: /user/root/randtxt/_temporary/_task_200811092030_0003_m_000382_0/part-00382. blk_9269854434208909452
081110 010629 5132 INFO dfs.DataNode$PacketResponder: PacketResponder 1 for block blk_-4799092443170733505 terminating
081110 010629 5132 INFO dfs.DataNode$PacketResponder: PacketResponder 1 for block blk_70340497-14935507392 terminating
081110 010759 34 INFO dfs.FSNamesystem: BLOCK* NameSystem.allocateBlock: /user/root/randtxt/_temporary/_task_200811092030_0003_m_000392_0/part-00392. blk_-3010126661650043258
081110 010759 34 INFO dfs.FSNamesystem: BLOCK* NameSystem.allocateBlock: /user/root/randtxt/_temporary/_task_200811092030_0003_m_000392_0/part-00392. blk_5045636860011-236102
081110 010801 5186 INFO dfs.DataNode$PacketResponder: PacketResponder 2 for block blk_-5215520749152394224 terminating
081110 010801 5186 INFO dfs.DataNode$PacketResponder: PacketResponder 2 for block blk_514549502397122242-5 terminating
081110 010815 5133 INFO dfs.DataNode$PacketResponder: PacketResponder 0 for block blk_397848436489409658 terminating
081110 010815 5133 INFO dfs.DataNode$PacketResponder: PacketResponder 0 for block blk_468470388569499438 terminating
081110 010851 32 INFO dfs.FSNamesystem: BLOCK* NameSystem.addStoredBlock: blockMap updated: 10.251.199.86:50010 is added to blk_-9181958042427679309 size 67108864
081110 010851 32 INFO dfs.FSNamesystem: BLOCK* NameSystem.addStoredBlock: blockMap updated: 10.251.199.86:50010 is added to blk_843905-4972917201698 size 67108864
081110 010917 5109 INFO dfs.DataNode$PacketResponder: Received block blk_-5124326558394984439 of size 67108864 from /10.251.122.79
081110 010917 5109 INFO dfs.DataNode$PacketResponder: Received block blk_19493455284-46238935 of size 67108864 from /10.251.122.79
081110 010918 32 INFO dfs.FSNamesystem: BLOCK* NameSystem.addStoredBlock: blockMap updated: 10.251.106.37:50010 is added to blk_-4741127506068309449 size 67108864
081110 010918 32 INFO dfs.FSNamesystem: BLOCK* NameSystem.addStoredBlock: blockMap updated: 10.251.106.37:50010 is added to blk_9249813715040647064- size 67108864
081110 010932 5174 INFO dfs.DataNode$PacketResponder: PacketResponder 1 for block blk_-4937215748597091532 terminating
081110 010932 5174 INFO dfs.DataNode$PacketResponder: PacketResponder 1 for block blk_1389571594-704735229 terminating
081110 011001 26 INFO dfs.FSNamesystem: BLOCK* NameSystem.addStoredBlock: blockMap updated: 10.251.25.237:50010 is added to blk_541463031152673662 size 67108864
081110 011001 26 INFO dfs.FSNamesystem: BLOCK* NameSystem.addStoredBlock: blockMap updated: 10.251.25.237:50010 is added to blk_331751325164466062 size 67108864
081110 011100 5230 INFO dfs.DataNode$PacketResponder: Received block blk_-7514806214244798312 of size 67108864 from /10.250.15.101
081110 011100 5230 INFO dfs.DataNode$PacketResponder: Received block blk_451487-4239181047226 of size 67108864 from /10.250.15.101
081110 011133 5157 INFO dfs.DataNode$PacketResponder: Received block blk_-7007208336332784130 of size 67108864 from /10.251.27.63
081110 011133 5157 INFO dfs.DataNode$PacketResponder: Received block blk_24-68327007003133387 of size 67108864 from /10.251.27.63
081110 011237 13 INFO dfs.DataBlockScanner: Verification succeeded for blk_6996194389878584395
081110 011237 13 INFO dfs.DataBlockScanner: Verification succeeded for blk_8996498339816587945
081110 011335 31 INFO dfs.FSNamesystem: BLOCK* NameSystem.addStoredBlock: blockMap updated: 10.251.71.146:50010 is added to blk_-6836642008179678048 size 67108864
081110 011335 31 INFO dfs.FSNamesystem: BLOCK* NameSystem.addStoredBlock: blockMap updated: 10.251.71.146:50010 is added to blk_6842-678680064801793 size 67108864
081110 011352 5321 INFO dfs.DataNode$PacketResponder: PacketResponder 1 for block blk_8060713381303305129 terminating
081110 011352 5321 INFO dfs.DataNode$PacketResponder: PacketResponder 1 for block blk_8012319806531337003 terminating
081110 011406 5296 INFO dfs.DataNode$DataXceiver: Receiving block blk_5760391051658436046 src: /10.251.42.84:59752 dest: /10.251.42.84:50010
081110 011406 5296 INFO dfs.DataNode$DataXceiver: Receiving block blk_5564603691437060851 src: /10.251.42.84:59752 dest: /10.251.42.84:50010
081110 011431 33 INFO dfs.FSNamesystem: BLOCK* NameSystem.allocateBlock: /user/root/randtxt/_temporary/_task_200811092030_0003_m_000675_0/part-00675. blk_-7866582011201618766
081110 011431 33 INFO dfs.FSNamesystem: BLOCK* NameSystem.allocateBlock: /user/root/randtxt/_temporary/_task_200811092030_0003_m_000675_0/part-00675. blk_-7665027811860661812
081110 011448 28 INFO dfs.FSNamesystem: BLOCK* NameSystem.addStoredBlock: blockMap updated: 10.251.214.18:50010 is added to blk_-7555801584297376435 size 67108864
081110 011448 28 INFO dfs.FSNamesystem: BLOCK* NameSystem.addStoredBlock: blockMap updated: 10.251.214.18:50010 is added to blk_153244557859-8065773 size 67108864
081110 011505 29 INFO dfs.FSNamesystem: BLOCK* NameSystem.addStoredBlock: blockMap updated: 10.251.26.177:50010 is added to blk_-5949883083428548093 size 67108864
081110 011505 29 INFO dfs.FSNamesystem: BLOCK* NameSystem.addStoredBlock: blockMap updated: 10.251.26.177:50010 is added to blk_4384800829398-945358 size 67108864
081110 011521 33 INFO dfs.FSNamesystem: BLOCK* NameSystem.allocateBlock: /user/root/randtxt/_temporary/_task_200811092030_0003_m_000705_0/part-00705. blk_-9162090767925303921
081110 011521 33 INFO dfs.FSNamesystem: BLOCK* NameSystem.allocateBlock: /user/root/randtxt/_temporary/_task_200811092030_0003_m_000705_0/part-00705. blk_06-20267731291039995
081110 011538 5164 INFO dfs.DataNode$PacketResponder: PacketResponder 1 for block blk_-4196449318426994195 terminating
081110 011538 5164 INFO dfs.DataNode$PacketResponder: PacketResponder 1 for block blk_4421459931864194-699 terminating
081110 011713 5420 INFO dfs.DataNode$DataXceiver: Receiving block blk_4238127626194855481 src: /10.250.11.100:59324 dest: /10.250.11.100:50010
081110 011713 5420 INFO dfs.DataNode$DataXceiver: Receiving block blk_7185866282414314925 src: /10.250.11.100:59324 dest: /10.250.11.100:50010
081110 011731 5472 INFO dfs.DataNode$PacketResponder: Received block blk_-3805070405372551730 of size 67108864 from /10.251.109.236
081110 011731 5472 INFO dfs.DataNode$PacketResponder: Received block blk_5355134502-370707008 of size 67108864 from /10.251.109.236
081110 011846 5274 INFO dfs.DataNode$PacketResponder: Received block blk_-2013946318750925538 of size 67108864 from /10.251.126.22
081110 011846 5274 INFO dfs.DataNode$PacketResponder: Received block blk_8343390728-206519515 of size 67108864 from /10.251.126.22
081110 011925 5356 INFO dfs.DataNode$PacketResponder: PacketResponder 1 for block blk_3278280638950561822 terminating
081110 011925 5356 INFO dfs.DataNode$PacketResponder: PacketResponder 1 for block blk_3872082565221698083 terminating
081110 012005 5368 INFO dfs.DataNode$PacketResponder: PacketResponder 1 for block blk_-26568864070436835 terminating
081110 012005 5368 INFO dfs.DataNode$PacketResponder: PacketResponder 1 for block blk_38442566-788036065 terminating
081110 012245 5396 INFO dfs.DataNode$PacketResponder: PacketResponder 0 for block blk_-9161369067334198861 terminating
081110 012245 5396 INFO dfs.DataNode$PacketResponder: PacketResponder 0 for block blk_-6743698861191190633 terminating
081110 012351 5301 INFO dfs.DataNode$PacketResponder: Received block blk_-1094025072435547068 of size 67108864 from /10.251.66.3
081110 012351 5301 INFO dfs.DataNode$PacketResponder: Received block blk_56250074749043-58021 of size 67108864 from /10.251.66.3
081110 012357 5523 INFO dfs.DataNode$PacketResponder: Received block blk_6534693994677948144 of size 67108864 from /10.251.201.204
081110 012357 5523 INFO dfs.DataNode$PacketResponder: Received block blk_4493497941386566947 of size 67108864 from /10.251.201.204
081110 012426 5538 INFO dfs.DataNode$DataXceiver: Receiving block blk_7672124247291403094 src: /10.251.66.3:55531 dest: /10.251.66.3:50010
081110 012426 5538 INFO dfs.DataNode$DataXceiver: Receiving block blk_0746972374240212491 src: /10.251.66.3:55531 dest: /10.251.66.3:50010
081110 012522 5491 INFO dfs.DataNode$PacketResponder: PacketResponder 1 for block blk_-5569558931000121451 terminating
081110 012522 5491 INFO dfs.DataNode$PacketResponder: PacketResponder 1 for block blk_50191550120495516-38 terminating
081110 012753 5586 INFO dfs.DataNode$PacketResponder: PacketResponder 2 for block blk_-4566099704755845087 terminating
081110 012753 5586 INFO dfs.DataNode$PacketResponder: PacketResponder 2 for block blk_8096-540774065574598 terminating
081110 012835 5558 INFO dfs.DataNode$PacketResponder: PacketResponder 0 for block blk_-8093500164295459838 terminating
081110 012835 5558 INFO dfs.DataNode$PacketResponder: PacketResponder 0 for block blk_483146380-8995095205 terminating
081110 012855 5509 INFO dfs.DataNode$PacketResponder: Received block blk_-3787594914477940893 of size 67108864 from /10.251.71.16
081110 012855 5509 INFO dfs.DataNode$PacketResponder: Received block blk_977-4713874490839495 of size 67108864 from /10.251.71.16
081110 012857 5605 INFO dfs.DataNode$PacketResponder: Received block blk_426381928692704514 of size 67108864 from /10.251.122.38
081110 012857 5605 INFO dfs.DataNode$PacketResponder: Received block blk_982026896431144725 of size 67108864 from /10.251.122.38
081110 013125 27 INFO dfs.FSNamesystem: BLOCK* NameSystem.allocateBlock: /user/root/randtxt/_temporary/_task_200811092030_0003_m_001095_0/part-01095. blk_-7413910507260978729
081110 013125 27 INFO dfs.FSNamesystem: BLOCK* NameSystem.allocateBlock: /user/root/randtxt/_temporary/_task_200811092030_0003_m_001095_0/part-01095. blk_00721929876745-01739
081110 013220 5704 INFO dfs.DataNode$PacketResponder: PacketResponder 1 for block blk_4774656339381154282 terminating
081110 013220 5704 INFO dfs.DataNode$PacketResponder: PacketResponder 1 for block blk_9276447283353811465 terminating
081110 013231 5659 INFO dfs.DataNode$DataXceiver: Receiving block blk_-8227485321105019293 src: /10.251.195.33:56999 dest: /10.251.195.33:50010
081110 013231 5659 INFO dfs.DataNode$DataXceiver: Receiving block blk_1250389-074813225129 src: /10.251.195.33:56999 dest: /10.251.195.33:50010
081110 013306 33 INFO dfs.FSNamesystem: BLOCK* NameSystem.addStoredBlock: blockMap updated: 10.251.75.79:50010 is added to blk_5210211633167259832 size 67108864
081110 013306 33 INFO dfs.FSNamesystem: BLOCK* NameSystem.addStoredBlock: blockMap updated: 10.251.75.79:50010 is added to blk_2261601918235353217 size 67108864
081110 013406 5493 INFO dfs.DataNode$PacketResponder: PacketResponder 2 for block blk_2917692073041583988 terminating
081110 013406 5493 INFO dfs.DataNode$PacketResponder: PacketResponder 2 for block blk_8843529231797690810 terminating
081110 013412 30 INFO dfs.FSNamesystem: BLOCK* NameSystem.addStoredBlock: blockMap updated: 10.251.199.159:50010 is added to blk_-8558845834445970595 size 67108864
081110 013412 30 INFO dfs.FSNamesystem: BLOCK* NameSystem.addStoredBlock: blockMap updated: 10.251.199.159:50010 is added to blk_384-7459584985055458 size 67108864
081110 013502 5576 INFO dfs.DataNode$PacketResponder: Received block blk_3852281952649038166 of size 67108864 from /10.251.122.65
081110 013502 5576 INFO dfs.DataNode$PacketResponder: Received block blk_8092384665932685211 of size 67108864 from /10.251.122.65
081110 013506 5649 INFO dfs.DataNode$PacketResponder: PacketResponder 2 for block blk_-5442040196315589272 terminating
081110 013506 5649 INFO dfs.DataNode$PacketResponder: PacketResponder 2 for block blk_85154-92440502273691 terminating
081110 013537 5804 INFO dfs.DataNode$DataXceiver: Receiving block blk_-6486714614940767660 src: /10.250.11.53:48454 dest: /10.250.11.53:50010
081110 013537 5804 INFO dfs.DataNode$DataXceiver: Receiving block blk_046616-4674974761680 src: /10.250.11.53:48454 dest: /10.250.11.53:50010
081110 013542 5646 INFO dfs.DataNode$PacketResponder: PacketResponder 0 for block blk_755689327380778318 terminating
081110 013542 5646 INFO dfs.DataNode$PacketResponder: PacketResponder 0 for block blk_897856073782853137 terminating
081110 013545 5696 INFO dfs.DataNode$PacketResponder: Received block blk_-8847552694913526632 of size 67108864 from /10.251.201.204
081110 013545 5696 INFO dfs.DataNode$PacketResponder: Received block blk_654558731-9326862924 of size 67108864 from /10.251.201.204
081110 013559 5614 INFO dfs.DataNode$PacketResponder: Received block blk_7736147489540456118 of size 67108864 from /10.251.74.227
081110 013559 5614 INFO dfs.DataNode$PacketResponder: Received block blk_6508194113574764874 of size 67108864 from /10.251.74.227
081110 013715 5706 INFO dfs.DataNode$PacketResponder: Received block blk_-3677956642639780952 of size 67108864 from /10.251.123.20
081110 013715 5706 INFO dfs.DataNode$PacketResponder: Received block blk_36490752-96237796865 of size 67108864 from /10.251.123.20
081110 013721 35 INFO dfs.FSNamesystem: BLOCK* NameSystem.addStoredBlock: blockMap updated: 10.251.73.220:50010 is added to blk_3073404534069578592 size 67108864
081110 013721 35 INFO dfs.FSNamesystem: BLOCK* NameSystem.addStoredBlock: blockMap updated: 10.251.73.220:50010 is added to blk_3957087044640532395 size 67108864
081110 013855 5764 INFO dfs.DataNode$PacketResponder: Received block blk_1498192967843651378 of size 67108864 from /10.251.42.84
081110 013855 5764 INFO dfs.DataNode$PacketResponder: Received block blk_7811544719633698928 of size 67108864 from /10.251.42.84
081110 013938 4501 INFO dfs.DataNode$DataXceiver: Receiving block blk_148513789886825227 src: /10.251.123.33:54308 dest: /10.251.123.33:50010
081110 013938 4501 INFO dfs.DataNode$DataXceiver: Receiving block blk_887885216842512937 src: /10.251.123.33:54308 dest: /10.251.123.33:50010
081110 014002 5798 INFO dfs.DataNode$DataXceiver: Receiving block blk_7229716389774599497 src: /10.251.201.204:38310 dest: /10.251.201.204:50010
081110 014002 5798 INFO dfs.DataNode$DataXceiver: Receiving block blk_9597678794792739142 src: /10.251.201.204:38310 dest: /10.251.201.204:50010
081110 014023 5733 INFO dfs.DataNode$PacketResponder: PacketResponder 0 for block blk_4741107979793372752 terminating
081110 014023 5733 INFO dfs.DataNode$PacketResponder: PacketResponder 0 for block blk_7971971425277330794 terminating
081110 014033 5854 INFO dfs.DataNode$DataXceiver: Receiving block blk_691517018986659607 src: /10.251.195.70:59379 dest: /10.251.195.70:50010
081110 014033 5854 INFO dfs.DataNode$DataXceiver: Receiving block blk_687986095561117960 src: /10.251.195.70:59379 dest: /10.251.195.70:50010
081110 014043 30 INFO dfs.FSNamesystem: BLOCK* NameSystem.addStoredBlock: blockMap updated: 10.251.203.129:50010 is added to blk_6002109944224710483 size 67108864
081110 014043 30 INFO dfs.FSNamesystem: BLOCK* NameSystem.addStoredBlock: blockMap updated: 10.251.203.129:50010 is added to blk_1107462093049484220 size 67108864
081110 014050 34 INFO dfs.FSNamesystem: BLOCK* NameSystem.addStoredBlock: blockMap updated: 10.251.122.65:50010 is added to blk_5095897972833086609 size 67108864
081110 014050 34 INFO dfs.FSNamesystem: BLOCK* NameSystem.addStoredBlock: blockMap updated: 10.251.122.65:50010 is added to blk_5920937968856700398 size 67108864
081110 014138 5832 INFO dfs.DataNode$PacketResponder: PacketResponder 1 for block blk_-3802183646922512795 terminating
081110 014138 5832 INFO dfs.DataNode$PacketResponder: PacketResponder 1 for block blk_3293-865262907214851 terminating
081110 014145 30 INFO dfs.FSNamesystem: BLOCK* NameSystem.addStoredBlock: blockMap updated: 10.251.201.204:50010 is added to blk_9072829105973334075 size 67108864
081110 014145 30 INFO dfs.FSNamesystem: BLOCK* NameSystem.addStoredBlock: blockMap updated: 10.251.201.204:50010 is added to blk_9070430993125753782 size 67108864
081110 014207 27 INFO dfs.FSNamesystem: BLOCK* NameSystem.allocateBlock: /user/root/randtxt/_temporary/_task_200811092030_0003_m_001365_0/part-01365. blk_4841101867353115844
081110 014207 27 INFO dfs.FSNamesystem: BLOCK* NameSystem.allocateBlock: /user/root/randtxt/_temporary/_task_200811092030_0003_m_001365_0/part-01365. blk_8114468501341138754
081110 014257 5803 INFO dfs.DataNode$PacketResponder: PacketResponder 1 for block blk_1997668456720275587 terminating
081110 014257 5803 INFO dfs.DataNode$PacketResponder: PacketResponder 1 for block blk_2589455869726107677 terminating
081110 014314 5599 INFO dfs.DataNode$PacketResponder: Received block blk_3304535870056962597 of size 67108864 from /10.251.203.166
081110 014314 5599 INFO dfs.DataNode$PacketResponder: Received block blk_7583053603925075946 of size 67108864 from /10.251.203.166
081110 014349 5817 INFO dfs.DataNode$PacketResponder: PacketResponder 1 for block blk_-4853183643928986291 terminating
081110 014349 5817 INFO dfs.DataNode$PacketResponder: PacketResponder 1 for block blk_133149-8829542836689 terminating
081110 014421 33 INFO dfs.FSNamesystem: BLOCK* NameSystem.addStoredBlock: blockMap updated: 10.251.107.196:50010 is added to blk_6828121630547887549 size 67108864
081110 014421 33 INFO dfs.FSNamesystem: BLOCK* NameSystem.addStoredBlock: blockMap updated: 10.251.107.196:50010 is added to blk_4358669018482257178 size 67108864
081110 014423 5775 INFO dfs.DataNode$PacketResponder: Received block blk_3084588477220583373 of size 67108864 from /10.251.125.174
081110 014423 5775 INFO dfs.DataNode$PacketResponder: Received block blk_4572785808237834033 of size 67108864 from /10.251.125.174
081110 014428 5801 INFO dfs.DataNode$PacketResponder: PacketResponder 2 for block blk_-653434419514937486 terminating
081110 014428 5801 INFO dfs.DataNode$PacketResponder: PacketResponder 2 for block blk_3641643434-58549719 terminating
081110 014519 32 INFO dfs.FSNamesystem: BLOCK* NameSystem.allocateBlock: /user/root/randtxt/_temporary/_task_200811092030_0003_m_001506_0/part-01506. blk_1104376461837247304
081110 014519 32 INFO dfs.FSNamesystem: BLOCK* NameSystem.allocateBlock: /user/root/randtxt/_temporary/_task_200811092030_0003_m_001506_0/part-01506. blk_4461642733417708130
081110 014520 32 INFO dfs.FSNamesystem: BLOCK* NameSystem.addStoredBlock: blockMap updated: 10.251.111.130:50010 is added to blk_-5511630179413516751 size 67108864
081110 014520 32 INFO dfs.FSNamesystem: BLOCK* NameSystem.addStoredBlock: blockMap updated: 10.251.111.130:50010 is added to blk_75131375151-04166195 size 67108864
081110 014536 6005 INFO dfs.DataNode$PacketResponder: PacketResponder 2 for block blk_4404895858852856851 terminating
081110 014536 6005 INFO dfs.DataNode$PacketResponder: PacketResponder 2 for block blk_2560854885489554188 terminating
081110 014727 29 INFO dfs.FSNamesystem: BLOCK* NameSystem.allocateBlock: /user/root/randtxt/_temporary/_task_200811092030_0003_m_001597_0/part-01597. blk_-591552904934794824
081110 014727 29 INFO dfs.FSNamesystem: BLOCK* NameSystem.allocateBlock: /user/root/randtxt/_temporary/_task_200811092030_0003_m_001597_0/part-01597. blk_950941245997324485-
081110 014738 26 INFO dfs.FSNamesystem: BLOCK* NameSystem.allocateBlock: /user/root/randtxt/_temporary/_task_200811092030_0003_m_001377_0/part-01377. blk_-8408087700903896282
081110 014738 26 INFO dfs.FSNamesystem: BLOCK* NameSystem.allocateBlock: /user/root/randtxt/_temporary/_task_200811092030_0003_m_001377_0/part-01377. blk_780887-0309082890624
081110 014808 28 INFO dfs.FSNamesystem: BLOCK* NameSystem.addStoredBlock: blockMap updated: 10.251.122.38:50010 is added to blk_-5404881839098659470 size 67108864
081110 014808 28 INFO dfs.FSNamesystem: BLOCK* NameSystem.addStoredBlock: blockMap updated: 10.251.122.38:50010 is added to blk_9098543448060858971- size 67108864
081110 014847 5846 INFO dfs.DataNode$PacketResponder: PacketResponder 1 for block blk_703046261120042821 terminating
081110 014847 5846 INFO dfs.DataNode$PacketResponder: PacketResponder 1 for block blk_282310602404016721 terminating
081110 014914 30 INFO dfs.FSNamesystem: BLOCK* NameSystem.allocateBlock: /user/root/randtxt/_temporary/_task_200811092030_0003_m_001728_0/part-01728. blk_-488298625688742454
081110 014914 30 INFO dfs.FSNamesystem: BLOCK* NameSystem.allocateBlock: /user/root/randtxt/_temporary/_task_200811092030_0003_m_001728_0/part-01728. blk_854-862488258742649
081110 014953 5959 INFO dfs.DataNode$PacketResponder: PacketResponder 1 for block blk_6465095458973828118 terminating
081110 014953 5959 INFO dfs.DataNode$PacketResponder: PacketResponder 1 for block blk_7868911904325485685 terminating
081110 015013 6133 INFO dfs.DataNode$PacketResponder: PacketResponder 2 for block blk_-9110604833387121363 terminating
081110 015013 6133 INFO dfs.DataNode$PacketResponder: PacketResponder 2 for block blk_367-3183981131362004 terminating
081110 015018 5852 INFO dfs.DataNode$DataXceiver: Receiving block blk_5977008528949258706 src: /10.251.214.32:43860 dest: /10.251.214.32:50010
081110 015018 5852 INFO dfs.DataNode$DataXceiver: Receiving block blk_2762049055950887987 src: /10.251.214.32:43860 dest: /10.251.214.32:50010
081110 015024 5938 INFO dfs.DataNode$PacketResponder: PacketResponder 2 for block blk_3781645897486585075 terminating
081110 015024 5938 INFO dfs.DataNode$PacketResponder: PacketResponder 2 for block blk_8857364459567571880 terminating
081110 015031 26 INFO dfs.FSNamesystem: BLOCK* NameSystem.addStoredBlock: blockMap updated: 10.250.11.194:50010 is added to blk_-1635752698830216319 size 67108864
081110 015031 26 INFO dfs.FSNamesystem: BLOCK* NameSystem.addStoredBlock: blockMap updated: 10.250.11.194:50010 is added to blk_-2119056182835637369 size 67108864
081110 015334 5970 INFO dfs.DataNode$PacketResponder: PacketResponder 0 for block blk_3070718541088657475 terminating
081110 015334 5970 INFO dfs.DataNode$PacketResponder: PacketResponder 0 for block blk_5517477178360050848 terminating
081110 015340 32 INFO dfs.FSNamesystem: BLOCK* NameSystem.allocateBlock: /user/root/randtxt/_temporary/_task_200811092030_0003_m_001661_0/part-01661. blk_-1674094254141559552
081110 015340 32 INFO dfs.FSNamesystem: BLOCK* NameSystem.allocateBlock: /user/root/randtxt/_temporary/_task_200811092030_0003_m_001661_0/part-01661. blk_705426549455945111-2
081110 015423 26 INFO dfs.FSNamesystem: BLOCK* NameSystem.addStoredBlock: blockMap updated: 10.251.197.161:50010 is added to blk_6080034782037237879 size 67108864
081110 015423 26 INFO dfs.FSNamesystem: BLOCK* NameSystem.addStoredBlock: blockMap updated: 10.251.197.161:50010 is added to blk_0602977804383728370 size 67108864
081110 015432 26 INFO dfs.FSNamesystem: BLOCK* NameSystem.allocateBlock: /user/root/randtxt/_temporary/_task_200811092030_0003_m_001630_0/part-01630. blk_-8645365827804358878
081110 015432 26 INFO dfs.FSNamesystem: BLOCK* NameSystem.allocateBlock: /user/root/randtxt/_temporary/_task_200811092030_0003_m_001630_0/part-01630. blk_8078436852885476583-
081110 015600 28 INFO dfs.FSNamesystem: BLOCK* NameSystem.allocateBlock: /user/root/randtxt/_temporary/_task_200811092030_0003_m_001817_0/part-01817. blk_3291173852929756766
081110 015600 28 INFO dfs.FSNamesystem: BLOCK* NameSystem.allocateBlock: /user/root/randtxt/_temporary/_task_200811092030_0003_m_001817_0/part-01817. blk_5961216268273959377
081110 015607 6086 INFO dfs.DataNode$PacketResponder: Received block blk_892900079071425422 of size 67108864 from /10.251.73.188
081110 015607 6086 INFO dfs.DataNode$PacketResponder: Received block blk_291244980200025977 of size 67108864 from /10.251.73.188
081110 015626 5971 INFO dfs.DataNode$PacketResponder: PacketResponder 1 for block blk_2243777557693112935 terminating
081110 015626 5971 INFO dfs.DataNode$PacketResponder: PacketResponder 1 for block blk_5419737622737525391 terminating
081110 015649 6096 INFO dfs.DataNode$PacketResponder: Received block blk_-8192956077351896648 of size 67108864 from /10.251.110.196
081110 015649 6096 INFO dfs.DataNode$PacketResponder: Received block blk_07366-15884685991792 of size 67108864 from /10.251.110.196
081110 015716 6066 INFO dfs.DataNode$PacketResponder: Received block blk_5250287988089075029 of size 67108864 from /10.251.66.63
081110 015716 6066 INFO dfs.DataNode$PacketResponder: Received block blk_5789900585007228289 of size 67108864 from /10.251.66.63
081110 015719 32 INFO dfs.FSNamesystem: BLOCK* NameSystem.addStoredBlock: blockMap updated: 10.251.30.6:50010 is added to blk_446513188203036714 size 67108864
081110 015719 32 INFO dfs.FSNamesystem: BLOCK* NameSystem.addStoredBlock: blockMap updated: 10.251.30.6:50010 is added to blk_647311044836208531 size 67108864
081110 015740 6116 INFO dfs.DataNode$PacketResponder: Received block blk_-2020273862360001901 of size 67108864 from /10.250.7.244
081110 015740 6116 INFO dfs.DataNode$PacketResponder: Received block blk_6083602193212-020070 of size 67108864 from /10.250.7.244
081110 015750 5956 INFO dfs.DataNode$PacketResponder: PacketResponder 0 for block blk_3338047823148530794 terminating
081110 015750 5956 INFO dfs.DataNode$PacketResponder: PacketResponder 0 for block blk_8271330885337493404 terminating
081110 015759 29 INFO dfs.FSNamesystem: BLOCK* NameSystem.allocateBlock: /user/root/randtxt/_temporary/_task_200811092030_0003_m_001840_0/part-01840. blk_4210124392039605712
081110 015759 29 INFO dfs.FSNamesystem: BLOCK* NameSystem.allocateBlock: /user/root/randtxt/_temporary/_task_200811092030_0003_m_001840_0/part-01840. blk_9241217502904213036
081110 015832 34 INFO dfs.FSNamesystem: BLOCK* NameSystem.addStoredBlock: blockMap updated: 10.251.71.240:50010 is added to blk_-6330812010936261924 size 67108864
081110 015832 34 INFO dfs.FSNamesystem: BLOCK* NameSystem.addStoredBlock: blockMap updated: 10.251.71.240:50010 is added to blk_31439120-10296366028 size 67108864
081110 015942 31 INFO dfs.FSNamesystem: BLOCK* NameSystem.allocateBlock: /user/root/randtxt/_temporary/_task_200811092030_0003_m_001976_0/part-01976. blk_-8380267327243110056
081110 015942 31 INFO dfs.FSNamesystem: BLOCK* NameSystem.allocateBlock: /user/root/randtxt/_temporary/_task_200811092030_0003_m_001976_0/part-01976. blk_022432617810760-5383
081110 015959 32 INFO dfs.FSNamesystem: BLOCK* NameSystem.addStoredBlock: blockMap updated: 10.251.110.160:50010 is added to blk_-8077373411465716253 size 67108864
081110 015959 32 INFO dfs.FSNamesystem: BLOCK* NameSystem.addStoredBlock: blockMap updated: 10.251.110.160:50010 is added to blk_7732716474315-061358 size 67108864
081110 020011 6037 INFO dfs.DataNode$PacketResponder: PacketResponder 0 for block blk_-9198375937828232046 terminating
081110 020011 6037 INFO dfs.DataNode$PacketResponder: PacketResponder 0 for block blk_39328615789282749-03 terminating
081110 020019 5935 INFO dfs.DataNode$PacketResponder: PacketResponder 0 for block blk_9107849594802857322 terminating
081110 020019 5935 INFO dfs.DataNode$PacketResponder: PacketResponder 0 for block blk_5778293201982840549 terminating
081110 020034 6204 INFO dfs.DataNode$DataXceiver: Receiving block blk_271142976916798281 src: /10.251.70.112:50176 dest: /10.251.70.112:50010
081110 020034 6204 INFO dfs.DataNode$DataXceiver: Receiving block blk_882119792726617194 src: /10.251.70.112:50176 dest: /10.251.70.112:50010
081110 020140 6146 INFO dfs.DataNode$PacketResponder: Received block blk_4029732570544915384 of size 67108864 from /10.251.35.1
081110 020140 6146 INFO dfs.DataNode$PacketResponder: Received block blk_3479427459003581524 of size 67108864 from /10.251.35.1
081110 020249 6148 INFO dfs.DataNode$PacketResponder: PacketResponder 0 for block blk_679168189072909208 terminating
081110 020249 6148 INFO dfs.DataNode$PacketResponder: PacketResponder 0 for block blk_066972088119790982 terminating
081110 020302 33 INFO dfs.FSNamesystem: BLOCK* NameSystem.addStoredBlock: blockMap updated: 10.251.43.192:50010 is added to blk_6285161494041403917 size 67108864
081110 020302 33 INFO dfs.FSNamesystem: BLOCK* NameSystem.addStoredBlock: blockMap updated: 10.251.43.192:50010 is added to blk_9312910484467156041 size 67108864
081110 020313 6034 INFO dfs.DataNode$PacketResponder: Received block blk_-5306443381473737599 of size 67108864 from /10.251.195.52
081110 020313 6034 INFO dfs.DataNode$PacketResponder: Received block blk_7359393-437481340765 of size 67108864 from /10.251.195.52
081110 020322 6131 INFO dfs.DataNode$PacketResponder: PacketResponder 2 for block blk_-2466006073687914843 terminating
081110 020322 6131 INFO dfs.DataNode$PacketResponder: PacketResponder 2 for block blk_380321-7648476096064 terminating
081110 020325 27 INFO dfs.FSNamesystem: BLOCK* NameSystem.addStoredBlock: blockMap updated: 10.251.43.210:50010 is added to blk_-6995454028444097802 size 67108864
081110 020325 27 INFO dfs.FSNamesystem: BLOCK* NameSystem.addStoredBlock: blockMap updated: 10.251.43.210:50010 is added to blk_60294288790445454-90 size 67108864
081110 020357 31 INFO dfs.FSNamesystem: BLOCK* NameSystem.addStoredBlock: blockMap updated: 10.250.6.4:50010 is added to blk_344934934043642744 size 67108864
081110 020357 31 INFO dfs.FSNamesystem: BLOCK* NameSystem.addStoredBlock: blockMap updated: 10.250.6.4:50010 is added to blk_434239444744303694 size 67108864
081110 020458 28 INFO dfs.FSNamesystem: BLOCK* NameSystem.addStoredBlock: blockMap updated: 10.250.7.230:50010 is added to blk_4984720043834039361 size 67108864
081110 020458 28 INFO dfs.FSNamesystem: BLOCK* NameSystem.addStoredBlock: blockMap updated: 10.250.7.230:50010 is added to blk_3832940447304610839 size 67108864
081110 020509 6043 INFO dfs.DataNode$DataXceiver: Receiving block blk_6398122733993275620 src: /10.251.111.80:53737 dest: /10.251.111.80:50010
081110 020509 6043 INFO dfs.DataNode$DataXceiver: Receiving block blk_2562873697293913320 src: /10.251.111.80:53737 dest: /10.251.111.80:50010
081110 020632 32 INFO dfs.FSNamesystem: BLOCK* NameSystem.addStoredBlock: blockMap updated: 10.251.43.192:50010 is added to blk_325981833999429148 size 67108864
081110 020632 32 INFO dfs.FSNamesystem: BLOCK* NameSystem.addStoredBlock: blockMap updated: 10.251.43.192:50010 is added to blk_848339929345991821 size 67108864
081110 020724 29 INFO dfs.FSNamesystem: BLOCK* NameSystem.delete: blk_2568309208894455676 is added to invalidSet of 10.251.31.160:50010
081110 020724 29 INFO dfs.FSNamesystem: BLOCK* NameSystem.delete: blk_4839955242560806786 is added to invalidSet of 10.251.31.160:50010
081110 022226 6281 INFO dfs.DataNode$DataXceiver: 10.250.19.16:50010 Served block blk_1078000656626961731 to /10.250.19.16
081110 022226 6281 INFO dfs.DataNode$DataXceiver: 10.250.19.16:50010 Served block blk_2903786671166100560 to /10.250.19.16
081110 023456 6415 WARN dfs.DataNode$DataXceiver: 10.251.67.225:50010:Got exception while serving blk_-6900989714336081087 to /10.251.25.237:
081110 023456 6415 WARN dfs.DataNode$DataXceiver: 10.251.67.225:50010:Got exception while serving blk_-8713890668170940309 to /10.251.25.237:
081110 024834 6371 INFO dfs.DataNode$DataXceiver: 10.251.126.227:50010 Served block blk_-8306714721294235181 to /10.251.126.227
081110 024834 6371 INFO dfs.DataNode$DataXceiver: 10.251.126.227:50010 Served block blk_3-207236141189814257 to /10.251.126.227
081110 030331 6561 WARN dfs.DataNode$DataXceiver: 10.251.42.191:50010:Got exception while serving blk_-8023826090828946372 to /10.251.214.130:
081110 030331 6561 WARN dfs.DataNode$DataXceiver: 10.251.42.191:50010:Got exception while serving blk_838680-6843029022279 to /10.251.214.130:
081110 030942 6646 WARN dfs.DataNode$DataXceiver: 10.251.31.5:50010:Got exception while serving blk_-1367876730256254709 to /10.251.67.225:
081110 030942 6646 WARN dfs.DataNode$DataXceiver: 10.251.31.5:50010:Got exception while serving blk_7701326663575078-942 to /10.251.67.225:
081110 031019 6604 INFO dfs.DataNode$DataXceiver: 10.251.126.83:50010 Served block blk_-3860894070657427592 to /10.251.126.83
081110 031019 6604 INFO dfs.DataNode$DataXceiver: 10.251.126.83:50010 Served block blk_788445-5070729063962 to /10.251.126.83
081110 032126 6555 WARN dfs.DataNode$DataXceiver: 10.251.26.8:50010:Got exception while serving blk_-7983508786213002472 to /10.251.38.197:
081110 032126 6555 WARN dfs.DataNode$DataXceiver: 10.251.26.8:50010:Got exception while serving blk_798-4075312708032286 to /10.251.38.197:
081110 035357 6606 INFO dfs.DataNode$DataXceiver: 10.251.71.97:50010 Served block blk_5454332143498402824 to /10.250.15.67
081110 035357 6606 INFO dfs.DataNode$DataXceiver: 10.251.71.97:50010 Served block blk_1834253458492432440 to /10.250.15.67
081110 040800 6739 INFO dfs.DataNode$DataXceiver: 10.250.6.214:50010 Served block blk_-3384560576963801177 to /10.250.6.214
081110 040800 6739 INFO dfs.DataNode$DataXceiver: 10.250.6.214:50010 Served block blk_6643770918063583175- to /10.250.6.214
081110 042826 6827 INFO dfs.DataNode$DataXceiver: 10.251.67.4:50010 Served block blk_-2901225370888235702 to /10.251.91.84
081110 042826 6827 INFO dfs.DataNode$DataXceiver: 10.251.67.4:50010 Served block blk_12780220553893-87202 to /10.251.91.84
081110 045413 6957 INFO dfs.DataNode$DataXceiver: 10.251.215.50:50010 Served block blk_3963698556744744747 to /10.251.107.196
081110 045413 6957 INFO dfs.DataNode$DataXceiver: 10.251.215.50:50010 Served block blk_6774493694745748653 to /10.251.107.196
081110 050300 6683 INFO dfs.DataNode$DataXceiver: 10.251.30.134:50010 Served block blk_2039230511363331616 to /10.251.65.203
081110 050300 6683 INFO dfs.DataNode$DataXceiver: 10.251.30.134:50010 Served block blk_1631359260023331316 to /10.251.65.203
081110 051323 6956 INFO dfs.DataNode$DataXceiver: 10.251.71.146:50010 Served block blk_8482111101480751895 to /10.251.71.146
081110 051323 6956 INFO dfs.DataNode$DataXceiver: 10.251.71.146:50010 Served block blk_1021814858149517180 to /10.251.71.146
081110 054642 7145 INFO dfs.DataNode$DataXceiver: 10.251.215.16:50010 Served block blk_-5919767990596301121 to /10.251.215.16
081110 054642 7145 INFO dfs.DataNode$DataXceiver: 10.251.215.16:50010 Served block blk_769161397201-9505919 to /10.251.215.16
081110 060453 7193 INFO dfs.DataNode$DataXceiver: 10.251.199.225:50010 Served block blk_8457344665564381337 to /10.251.199.225
081110 060453 7193 INFO dfs.DataNode$DataXceiver: 10.251.199.225:50010 Served block blk_3545475468167834363 to /10.251.199.225
081110 060934 7211 INFO dfs.DataNode$DataXceiver: 10.251.66.102:50010 Served block blk_2986720270598512615 to /10.251.66.102
081110 060934 7211 INFO dfs.DataNode$DataXceiver: 10.251.66.102:50010 Served block blk_2669557901125828720 to /10.251.66.102
081110 065635 7324 INFO dfs.DataNode$DataXceiver: 10.251.90.64:50010 Served block blk_-5719934513583495857 to /10.251.199.245
081110 065635 7324 INFO dfs.DataNode$DataXceiver: 10.251.90.64:50010 Served block blk_-9544353815751793958 to /10.251.199.245
081110 070326 7430 WARN dfs.DataNode$DataXceiver: 10.251.75.228:50010:Got exception while serving blk_-7680599654910200999 to /10.251.75.228:
081110 070326 7430 WARN dfs.DataNode$DataXceiver: 10.251.75.228:50010:Got exception while serving blk_59-67291995960090084 to /10.251.75.228:
081110 070334 7327 INFO dfs.DataNode$DataXceiver: 10.251.111.37:50010 Served block blk_-6050976999174805557 to /10.251.111.37
081110 070334 7327 INFO dfs.DataNode$DataXceiver: 10.251.111.37:50010 Served block blk_5460517995995-787006 to /10.251.111.37
081110 070347 7574 INFO dfs.DataNode$DataXceiver: 10.250.10.6:50010 Served block blk_1598414622053793245 to /10.251.90.239
081110 070347 7574 INFO dfs.DataNode$DataXceiver: 10.250.10.6:50010 Served block blk_3861949544225025713 to /10.251.90.239
081110 070614 7513 INFO dfs.DataNode$DataXceiver: 10.250.19.16:50010 Served block blk_-7837339190764609698 to /10.251.197.161
081110 070614 7513 INFO dfs.DataNode$DataXceiver: 10.250.19.16:50010 Served block blk_0179-983763349706986 to /10.251.197.161
081110 070921 7744 INFO dfs.DataNode$DataXceiver: 10.251.39.144:50010 Served block blk_-8187008844253719581 to /10.251.91.32
081110 070921 7744 INFO dfs.DataNode$DataXceiver: 10.251.39.144:50010 Served block blk_0174743085898-851218 to /10.251.91.32
081110 071154 7627 INFO dfs.DataNode$DataXceiver: 10.251.214.112:50010 Served block blk_4081177399275502985 to /10.251.110.68
081110 071154 7627 INFO dfs.DataNode$DataXceiver: 10.251.214.112:50010 Served block blk_5928977834527019501 to /10.251.110.68
081110 071426 7742 INFO dfs.DataNode$DataXceiver: 10.251.42.191:50010 Served block blk_3515154079719300106 to /10.251.42.191
081110 071426 7742 INFO dfs.DataNode$DataXceiver: 10.251.42.191:50010 Served block blk_3495101671903705105 to /10.251.42.191
081110 071657 7700 WARN dfs.DataNode$DataXceiver: 10.251.38.214:50010:Got exception while serving blk_5547569777499890340 to /10.251.195.52:
081110 071657 7700 WARN dfs.DataNode$DataXceiver: 10.251.38.214:50010:Got exception while serving blk_5494979737059075486 to /10.251.195.52:
081110 072121 7820 INFO dfs.DataNode$DataXceiver: 10.251.123.99:50010 Served block blk_5385121219895615240 to /10.251.71.146
081110 072121 7820 INFO dfs.DataNode$DataXceiver: 10.251.123.99:50010 Served block blk_1293194515586102258 to /10.251.71.146
081110 072124 7772 WARN dfs.DataNode$DataXceiver: 10.251.42.246:50010:Got exception while serving blk_-7658293778087733436 to /10.251.30.179:
081110 072124 7772 WARN dfs.DataNode$DataXceiver: 10.251.42.246:50010:Got exception while serving blk_337787-6352760843978 to /10.251.30.179:
081110 080546 7970 WARN dfs.DataNode$DataXceiver: 10.251.111.130:50010:Got exception while serving blk_3169060243663461885 to /10.251.214.32:
081110 080546 7970 WARN dfs.DataNode$DataXceiver: 10.251.111.130:50010:Got exception while serving blk_0066963138624514368 to /10.251.214.32:
081110 080555 8227 INFO dfs.DataNode$DataXceiver: 10.250.11.194:50010 Served block blk_3087787567144441647 to /10.251.91.84
081110 080555 8227 INFO dfs.DataNode$DataXceiver: 10.250.11.194:50010 Served block blk_7841814470747356764 to /10.251.91.84
081110 080718 7850 INFO dfs.DataNode$DataXceiver: 10.250.10.100:50010 Served block blk_-3657665801189425193 to /10.250.10.100
081110 080718 7850 INFO dfs.DataNode$DataXceiver: 10.250.10.100:50010 Served block blk_061895-5681671532439 to /10.250.10.100
081110 080724 8080 INFO dfs.DataNode$DataXceiver: 10.251.74.79:50010 Served block blk_-3457731723401426942 to /10.251.74.79
081110 080724 8080 INFO dfs.DataNode$DataXceiver: 10.251.74.79:50010 Served block blk_367490214473741-2532 to /10.251.74.79
081110 080814 8123 INFO dfs.DataNode$DataXceiver: 10.251.42.84:50010 Served block blk_6105506155797750768 to /10.251.42.84
081110 080814 8123 INFO dfs.DataNode$DataXceiver: 10.251.42.84:50010 Served block blk_1867756570515060759 to /10.251.42.84
081110 080847 8088 WARN dfs.DataNode$DataXceiver: 10.251.26.8:50010:Got exception while serving blk_-8522942048313632858 to /10.251.31.85:
081110 080847 8088 WARN dfs.DataNode$DataXceiver: 10.251.26.8:50010:Got exception while serving blk_28320815-84289356432 to /10.251.31.85:
081110 080922 7633 INFO dfs.DataNode$DataXceiver: 10.251.203.246:50010 Served block blk_365496398062338141 to /10.251.203.246
081110 080922 7633 INFO dfs.DataNode$DataXceiver: 10.251.203.246:50010 Served block blk_414163962803365938 to /10.251.203.246
081110 080949 7994 INFO dfs.DataNode$DataXceiver: 10.250.19.227:50010 Served block blk_3979872751691718643 to /10.250.19.227
081110 080949 7994 INFO dfs.DataNode$DataXceiver: 10.250.19.227:50010 Served block blk_7146713526739199878 to /10.250.19.227
081110 081044 8125 WARN dfs.DataNode$DataXceiver: 10.251.123.1:50010:Got exception while serving blk_-272707591443354058 to /10.251.198.33:
081110 081044 8125 WARN dfs.DataNode$DataXceiver: 10.251.123.1:50010:Got exception while serving blk_1225705-73978430445 to /10.251.198.33:
081110 081054 8108 WARN dfs.DataNode$DataXceiver: 10.251.90.239:50010:Got exception while serving blk_-8679916835272129336 to /10.250.15.198:
081110 081054 8108 WARN dfs.DataNode$DataXceiver: 10.251.90.239:50010:Got exception while serving blk_81-59739623683292167 to /10.250.15.198:
081110 081337 8145 WARN dfs.DataNode$DataXceiver: 10.251.66.102:50010:Got exception while serving blk_6106884317961925960 to /10.251.66.102:
081110 081337 8145 WARN dfs.DataNode$DataXceiver: 10.251.66.102:50010:Got exception while serving blk_8968929600163516741 to /10.251.66.102:
081110 081515 8312 WARN dfs.DataNode$DataXceiver: 10.251.31.5:50010:Got exception while serving blk_6332892729727950039 to /10.251.123.1:
081110 081515 8312 WARN dfs.DataNode$DataXceiver: 10.251.31.5:50010:Got exception while serving blk_2829560939703229773 to /10.251.123.1:
081110 081643 8095 INFO dfs.DataNode$DataXceiver: 10.251.195.52:50010 Served block blk_6655622109568310643 to /10.251.195.52
081110 081643 8095 INFO dfs.DataNode$DataXceiver: 10.251.195.52:50010 Served block blk_5165269241686303605 to /10.251.195.52
081110 081643 8247 WARN dfs.DataNode$DataXceiver: 10.250.17.225:50010:Got exception while serving blk_-5935642747315643391 to /10.251.199.150:
081110 081643 8247 WARN dfs.DataNode$DataXceiver: 10.250.17.225:50010:Got exception while serving blk_7-423566194573491353 to /10.251.199.150:
081110 081741 8169 WARN dfs.DataNode$DataXceiver: 10.251.215.70:50010:Got exception while serving blk_-20269367189114433 to /10.251.30.179:
081110 081741 8169 WARN dfs.DataNode$DataXceiver: 10.251.215.70:50010:Got exception while serving blk_74-461391068132329 to /10.251.30.179:
081110 082013 8326 INFO dfs.DataNode$DataXceiver: 10.251.43.115:50010 Served block blk_-7364557883931785608 to /10.251.43.115
081110 082013 8326 INFO dfs.DataNode$DataXceiver: 10.251.43.115:50010 Served block blk_978563385317706854-8 to /10.251.43.115
081110 082043 8305 INFO dfs.DataNode$DataXceiver: 10.251.215.16:50010 Served block blk_2322432806134104317 to /10.251.215.16
081110 082043 8305 INFO dfs.DataNode$DataXceiver: 10.251.215.16:50010 Served block blk_4233241041720816332 to /10.251.215.16
081110 082444 8172 INFO dfs.DataNode$DataXceiver: 10.251.109.209:50010 Served block blk_4848669047361069041 to /10.251.26.177
081110 082444 8172 INFO dfs.DataNode$DataXceiver: 10.251.109.209:50010 Served block blk_0887990636460441461 to /10.251.26.177
081110 082702 8223 WARN dfs.DataNode$DataXceiver: 10.250.15.198:50010:Got exception while serving blk_-1851265222873801714 to /10.251.195.52:
081110 082702 8223 WARN dfs.DataNode$DataXceiver: 10.250.15.198:50010:Got exception while serving blk_7216582817132485120- to /10.251.195.52:
081110 082706 8552 WARN dfs.DataNode$DataXceiver: 10.251.198.33:50010:Got exception while serving blk_-8495670552887053546 to /10.250.10.223:
081110 082706 8552 WARN dfs.DataNode$DataXceiver: 10.251.198.33:50010:Got exception while serving blk_584597608357-5602845 to /10.250.10.223:
081110 082737 8341 WARN dfs.DataNode$DataXceiver: 10.250.19.227:50010:Got exception while serving blk_-7372087176866857012 to /10.251.110.68:
081110 082737 8341 WARN dfs.DataNode$DataXceiver: 10.250.19.227:50010:Got exception while serving blk_6187887706012772-365 to /10.251.110.68:
081110 082954 8543 WARN dfs.DataNode$DataXceiver: 10.251.70.112:50010:Got exception while serving blk_4357276972386184626 to /10.251.74.79:
081110 082954 8543 WARN dfs.DataNode$DataXceiver: 10.251.70.112:50010:Got exception while serving blk_7452667789224683361 to /10.251.74.79:
081110 083045 8495 WARN dfs.DataNode$DataXceiver: 10.251.215.16:50010:Got exception while serving blk_-4590972095204776122 to /10.251.30.6:
081110 083045 8495 WARN dfs.DataNode$DataXceiver: 10.251.215.16:50010:Got exception while serving blk_9749272505-061272904 to /10.251.30.6:
081110 083121 8197 INFO dfs.DataNode$DataXceiver: 10.251.106.214:50010 Served block blk_-8277873627721528374 to /10.251.122.79
081110 083121 8197 INFO dfs.DataNode$DataXceiver: 10.251.106.214:50010 Served block blk_-8736222771277583847 to /10.251.122.79
081110 083231 8530 INFO dfs.DataNode$DataXceiver: 10.250.10.176:50010 Served block blk_3797494971676497497 to /10.251.29.239
081110 083231 8530 INFO dfs.DataNode$DataXceiver: 10.250.10.176:50010 Served block blk_1374946794677949797 to /10.251.29.239
081110 083328 8416 INFO dfs.DataNode$DataXceiver: 10.251.126.22:50010 Served block blk_805587860540600864 to /10.251.126.22
081110 083328 8416 INFO dfs.DataNode$DataXceiver: 10.251.126.22:50010 Served block blk_880640455568760800 to /10.251.126.22
081110 083453 13 INFO dfs.DataBlockScanner: Verification succeeded for blk_3141363517520802396
081110 083453 13 INFO dfs.DataBlockScanner: Verification succeeded for blk_3165220331591360874
081110 085042 13 INFO dfs.DataBlockScanner: Verification succeeded for blk_-1383276859207001328
081110 085042 13 INFO dfs.DataBlockScanner: Verification succeeded for blk_172380752383600-9218
081110 085933 13 INFO dfs.DataBlockScanner: Verification succeeded for blk_-4117999745005013424
081110 085933 13 INFO dfs.DataBlockScanner: Verification succeeded for blk_5144041230-750199497
081110 091216 7593 WARN dfs.DataNode$DataXceiver: 10.251.107.50:50010:Got exception while serving blk_4524198807982839635 to /10.251.122.79:
081110 091216 7593 WARN dfs.DataNode$DataXceiver: 10.251.107.50:50010:Got exception while serving blk_9856842309859472318 to /10.251.122.79:
081110 091550 8683 WARN dfs.DataNode$DataXceiver: 10.251.111.209:50010:Got exception while serving blk_7505828172725463922 to /10.251.111.209:
081110 091550 8683 WARN dfs.DataNode$DataXceiver: 10.251.111.209:50010:Got exception while serving blk_8552752491267227803 to /10.251.111.209:
081110 091657 8720 WARN dfs.DataNode$DataXceiver: 10.251.70.211:50010:Got exception while serving blk_424255210146453297 to /10.251.203.179:
081110 091657 8720 WARN dfs.DataNode$DataXceiver: 10.251.70.211:50010:Got exception while serving blk_012143476955244522 to /10.251.203.179:
081110 091800 8380 INFO dfs.DataNode$DataXceiver: 10.250.14.224:50010 Served block blk_666713934549639791 to /10.250.14.224
081110 091800 8380 INFO dfs.DataNode$DataXceiver: 10.250.14.224:50010 Served block blk_146933967931764695 to /10.250.14.224
081110 092131 8815 INFO dfs.DataNode$DataXceiver: 10.251.30.179:50010 Served block blk_-2975629975082443857 to /10.251.30.179
081110 092131 8815 INFO dfs.DataNode$DataXceiver: 10.251.30.179:50010 Served block blk_945778262-3497509285 to /10.251.30.179
081110 092151 8601 WARN dfs.DataNode$DataXceiver: 10.251.126.22:50010:Got exception while serving blk_1686195200514944346 to /10.250.6.223:
081110 092151 8601 WARN dfs.DataNode$DataXceiver: 10.251.126.22:50010:Got exception while serving blk_2486619401154346059 to /10.250.6.223:
081110 092459 8650 INFO dfs.DataNode$DataXceiver: 10.250.9.207:50010 Served block blk_4355450627202483068 to /10.250.9.207
081110 092459 8650 INFO dfs.DataNode$DataXceiver: 10.250.9.207:50010 Served block blk_2234432075450868560 to /10.250.9.207
081110 092815 8872 INFO dfs.DataNode$DataXceiver: 10.250.6.191:50010 Served block blk_5952254363678329024 to /10.250.6.191
081110 092815 8872 INFO dfs.DataNode$DataXceiver: 10.250.6.191:50010 Served block blk_5608493549723632252 to /10.250.6.191
081110 093020 8827 WARN dfs.DataNode$DataXceiver: 10.251.70.211:50010:Got exception while serving blk_-667933171485085225 to /10.251.203.246:
081110 093020 8827 WARN dfs.DataNode$DataXceiver: 10.251.70.211:50010:Got exception while serving blk_462753-927185583106 to /10.251.203.246:
081110 093643 13 INFO dfs.DataBlockScanner: Verification succeeded for blk_9188832735514090334
081110 093643 13 INFO dfs.DataBlockScanner: Verification succeeded for blk_8458939003153123784
081110 093831 8571 INFO dfs.DataNode$DataXceiver: 10.251.106.10:50010 Served block blk_2273334621242106674 to /10.251.106.10
081110 093831 8571 INFO dfs.DataNode$DataXceiver: 10.251.106.10:50010 Served block blk_6122142724633460327 to /10.251.106.10
081110 094019 8808 WARN dfs.DataNode$DataXceiver: 10.251.125.193:50010:Got exception while serving blk_3790492230047189408 to /10.251.199.159:
081110 094019 8808 WARN dfs.DataNode$DataXceiver: 10.251.125.193:50010:Got exception while serving blk_3088709374129920044 to /10.251.199.159:
081110 094657 7835 INFO dfs.DataNode$DataXceiver: 10.251.107.50:50010 Served block blk_-2285729896739318683 to /10.251.70.5
081110 094657 7835 INFO dfs.DataNode$DataXceiver: 10.251.107.50:50010 Served block blk_928-8687733139698225 to /10.251.70.5
081110 103026 34 INFO dfs.FSNamesystem: BLOCK* NameSystem.delete: blk_-1233005817943453613 is added to invalidSet of 10.251.75.49:50010
081110 103026 34 INFO dfs.FSNamesystem: BLOCK* NameSystem.delete: blk_5903123-813564130374 is added to invalidSet of 10.251.75.49:50010
081110 103026 34 INFO dfs.FSNamesystem: BLOCK* NameSystem.delete: blk_-8736461628840265232 is added to invalidSet of 10.251.195.70:50010
081110 103026 34 INFO dfs.FSNamesystem: BLOCK* NameSystem.delete: blk_7322486862066532-184 is added to invalidSet of 10.251.195.70:50010
081110 103027 34 INFO dfs.FSNamesystem: BLOCK* NameSystem.delete: blk_166171721314010075 is added to invalidSet of 10.251.30.85:50010
081110 103027 34 INFO dfs.FSNamesystem: BLOCK* NameSystem.delete: blk_320117411510167706 is added to invalidSet of 10.251.30.85:50010
081110 103027 34 INFO dfs.FSNamesystem: BLOCK* NameSystem.delete: blk_-3362838757940877177 is added to invalidSet of 10.250.5.161:50010
081110 103027 34 INFO dfs.FSNamesystem: BLOCK* NameSystem.delete: blk_473-2796878183775037 is added to invalidSet of 10.250.5.161:50010
081110 103027 34 INFO dfs.FSNamesystem: BLOCK* NameSystem.delete: blk_-8026264173633579073 is added to invalidSet of 10.251.214.18:50010
081110 103027 34 INFO dfs.FSNamesystem: BLOCK* NameSystem.delete: blk_30461338656-73092277 is added to invalidSet of 10.251.214.18:50010
081110 103027 34 INFO dfs.FSNamesystem: BLOCK* NameSystem.delete: blk_8350646254685996250 is added to invalidSet of 10.251.199.159:50010
081110 103027 34 INFO dfs.FSNamesystem: BLOCK* NameSystem.delete: blk_6892655656900384425 is added to invalidSet of 10.251.199.159:50010
081110 103028 34 INFO dfs.FSNamesystem: BLOCK* NameSystem.delete: blk_-4702684774678057084 is added to invalidSet of 10.250.13.240:50010
081110 103028 34 INFO dfs.FSNamesystem: BLOCK* NameSystem.delete: blk_44280778-60750874467 is added to invalidSet of 10.250.13.240:50010
081110 103029 34 INFO dfs.FSNamesystem: BLOCK* NameSystem.delete: blk_434034567989619521 is added to invalidSet of 10.251.91.15:50010
081110 103029 34 INFO dfs.FSNamesystem: BLOCK* NameSystem.delete: blk_973165492814093645 is added to invalidSet of 10.251.91.15:50010
081110 103030 34 INFO dfs.FSNamesystem: BLOCK* NameSystem.delete: blk_413552235254424009 is added to invalidSet of 10.251.35.1:50010
081110 103030 34 INFO dfs.FSNamesystem: BLOCK* NameSystem.delete: blk_545254002133252944 is added to invalidSet of 10.251.35.1:50010
081110 103030 34 INFO dfs.FSNamesystem: BLOCK* NameSystem.delete: blk_7177118590277025973 is added to invalidSet of 10.251.121.224:50010
081110 103030 34 INFO dfs.FSNamesystem: BLOCK* NameSystem.delete: blk_0077517875371292971 is added to invalidSet of 10.251.121.224:50010
081110 103032 34 INFO dfs.FSNamesystem: BLOCK* NameSystem.delete: blk_2576408434603492552 is added to invalidSet of 10.251.106.37:50010
081110 103032 34 INFO dfs.FSNamesystem: BLOCK* NameSystem.delete: blk_4394652224037586450 is added to invalidSet of 10.251.106.37:50010
081110 103034 34 INFO dfs.FSNamesystem: BLOCK* NameSystem.delete: blk_356592557993755459 is added to invalidSet of 10.251.109.236:50010
081110 103034 34 INFO dfs.FSNamesystem: BLOCK* NameSystem.delete: blk_495575955239365597 is added to invalidSet of 10.251.109.236:50010
081110 103035 34 INFO dfs.FSNamesystem: BLOCK* NameSystem.delete: blk_9111860234027679206 is added to invalidSet of 10.251.39.209:50010
081110 103035 34 INFO dfs.FSNamesystem: BLOCK* NameSystem.delete: blk_1620613781972420690 is added to invalidSet of 10.251.39.209:50010
081110 103036 34 INFO dfs.FSNamesystem: BLOCK* NameSystem.delete: blk_5178539130945718870 is added to invalidSet of 10.251.107.19:50010
081110 103036 34 INFO dfs.FSNamesystem: BLOCK* NameSystem.delete: blk_9358475138115079807 is added to invalidSet of 10.251.107.19:50010
081110 103037 34 INFO dfs.FSNamesystem: BLOCK* NameSystem.delete: blk_-1331750856499198500 is added to invalidSet of 10.251.38.53:50010
081110 103037 34 INFO dfs.FSNamesystem: BLOCK* NameSystem.delete: blk_115-6315734800998095 is added to invalidSet of 10.251.38.53:50010
081110 103038 34 INFO dfs.FSNamesystem: BLOCK* NameSystem.delete: blk_-3792836284792472725 is added to invalidSet of 10.251.106.50:50010
081110 103038 34 INFO dfs.FSNamesystem: BLOCK* NameSystem.delete: blk_228795962223474783-7 is added to invalidSet of 10.251.106.50:50010
081110 103038 34 INFO dfs.FSNamesystem: BLOCK* NameSystem.delete: blk_6031076349976322578 is added to invalidSet of 10.251.67.225:50010
081110 103038 34 INFO dfs.FSNamesystem: BLOCK* NameSystem.delete: blk_2604956072896733731 is added to invalidSet of 10.251.67.225:50010
081110 103040 34 INFO dfs.FSNamesystem: BLOCK* NameSystem.delete: blk_4438674026376140804 is added to invalidSet of 10.251.106.50:50010
081110 103040 34 INFO dfs.FSNamesystem: BLOCK* NameSystem.delete: blk_4284783406671600443 is added to invalidSet of 10.251.106.50:50010
081110 103041 34 INFO dfs.FSNamesystem: BLOCK* NameSystem.delete: blk_1777689952069868672 is added to invalidSet of 10.251.31.85:50010
081110 103041 34 INFO dfs.FSNamesystem: BLOCK* NameSystem.delete: blk_2797096862987681765 is added to invalidSet of 10.251.31.85:50010
081110 103044 34 INFO dfs.FSNamesystem: BLOCK* NameSystem.delete: blk_-3275788837420923000 is added to invalidSet of 10.251.109.236:50010
081110 103044 34 INFO dfs.FSNamesystem: BLOCK* NameSystem.delete: blk_-0329247827883753000 is added to invalidSet of 10.251.109.236:50010
081110 103045 34 INFO dfs.FSNamesystem: BLOCK* NameSystem.delete: blk_-6056336045486998577 is added to invalidSet of 10.251.126.255:50010
081110 103045 34 INFO dfs.FSNamesystem: BLOCK* NameSystem.delete: blk_305876683499-0476565 is added to invalidSet of 10.251.126.255:50010
081110 103046 34 INFO dfs.FSNamesystem: BLOCK* NameSystem.delete: blk_-5368528328022648701 is added to invalidSet of 10.251.202.181:50010
081110 103046 34 INFO dfs.FSNamesystem: BLOCK* NameSystem.delete: blk_40532882018-52386762 is added to invalidSet of 10.251.202.181:50010
081110 103047 34 INFO dfs.FSNamesystem: BLOCK* NameSystem.delete: blk_-9056276727170871967 is added to invalidSet of 10.251.66.3:50010
081110 103047 34 INFO dfs.FSNamesystem: BLOCK* NameSystem.delete: blk_7929182777567-010667 is added to invalidSet of 10.251.66.3:50010
081110 103049 34 INFO dfs.FSNamesystem: BLOCK* NameSystem.delete: blk_-6289001686128460561 is added to invalidSet of 10.251.91.84:50010
081110 103049 34 INFO dfs.FSNamesystem: BLOCK* NameSystem.delete: blk_896-1066282801664150 is added to invalidSet of 10.251.91.84:50010
081110 103049 34 INFO dfs.FSNamesystem: BLOCK* NameSystem.delete: blk_6855535886504612774 is added to invalidSet of 10.251.70.211:50010
081110 103049 34 INFO dfs.FSNamesystem: BLOCK* NameSystem.delete: blk_5543710248855768566 is added to invalidSet of 10.251.70.211:50010
081110 103050 34 INFO dfs.FSNamesystem: BLOCK* NameSystem.delete: blk_-6477590833521072407 is added to invalidSet of 10.251.39.179:50010
081110 103050 34 INFO dfs.FSNamesystem: BLOCK* NameSystem.delete: blk_05793544-27600713728 is added to invalidSet of 10.251.39.179:50010
081110 103050 34 INFO dfs.FSNamesystem: BLOCK* NameSystem.delete: blk_865453227320668516 is added to invalidSet of 10.251.71.240:50010
081110 103050 34 INFO dfs.FSNamesystem: BLOCK* NameSystem.delete: blk_083715665453682226 is added to invalidSet of 10.251.71.240:50010
081110 103054 30 INFO dfs.FSNamesystem: BLOCK* NameSystem.delete: blk_2149728827322918746 is added to invalidSet of 10.250.11.194:50010
081110 103054 30 INFO dfs.FSNamesystem: BLOCK* NameSystem.delete: blk_9227384672189247182 is added to invalidSet of 10.250.11.194:50010
081110 103055 30 INFO dfs.FSNamesystem: BLOCK* NameSystem.delete: blk_6324712740029479576 is added to invalidSet of 10.251.30.6:50010
081110 103055 30 INFO dfs.FSNamesystem: BLOCK* NameSystem.delete: blk_2270452794066937174 is added to invalidSet of 10.251.30.6:50010
081110 103056 30 INFO dfs.FSNamesystem: BLOCK* NameSystem.delete: blk_6763863888784019261 is added to invalidSet of 10.251.70.37:50010
081110 103056 30 INFO dfs.FSNamesystem: BLOCK* NameSystem.delete: blk_7669828381667814083 is added to invalidSet of 10.251.70.37:50010
081110 103057 30 INFO dfs.FSNamesystem: BLOCK* NameSystem.delete: blk_1543605971733759530 is added to invalidSet of 10.251.195.33:50010
081110 103057 30 INFO dfs.FSNamesystem: BLOCK* NameSystem.delete: blk_0570615154399353377 is added to invalidSet of 10.251.195.33:50010
081110 103059 30 INFO dfs.FSNamesystem: BLOCK* NameSystem.delete: blk_-6114220623980201749 is added to invalidSet of 10.250.13.240:50010
081110 103059 30 INFO dfs.FSNamesystem: BLOCK* NameSystem.delete: blk_39041272022106819-64 is added to invalidSet of 10.250.13.240:50010
081110 103059 30 INFO dfs.FSNamesystem: BLOCK* NameSystem.delete: blk_-945770324989341170 is added to invalidSet of 10.251.31.180:50010
081110 103059 30 INFO dfs.FSNamesystem: BLOCK* NameSystem.delete: blk_897920791347-135404 is added to invalidSet of 10.251.31.180:50010
081110 103107 30 INFO dfs.FSNamesystem: BLOCK* NameSystem.delete: blk_-5145886774827574591 is added to invalidSet of 10.251.105.189:50010
081110 103107 30 INFO dfs.FSNamesystem: BLOCK* NameSystem.delete: blk_-5861445775848217579 is added to invalidSet of 10.251.105.189:50010
081110 103109 30 INFO dfs.FSNamesystem: BLOCK* NameSystem.delete: blk_3598904881888399067 is added to invalidSet of 10.250.5.237:50010
081110 103109 30 INFO dfs.FSNamesystem: BLOCK* NameSystem.delete: blk_8860938950739898814 is added to invalidSet of 10.250.5.237:50010
081110 103111 30 INFO dfs.FSNamesystem: BLOCK* NameSystem.delete: blk_-6255015379143356507 is added to invalidSet of 10.251.111.37:50010
081110 103111 30 INFO dfs.FSNamesystem: BLOCK* NameSystem.delete: blk_376313945055625-0175 is added to invalidSet of 10.251.111.37:50010
081110 103111 30 INFO dfs.FSNamesystem: BLOCK* NameSystem.delete: blk_8247499802516177421 is added to invalidSet of 10.250.7.96:50010
081110 103111 30 INFO dfs.FSNamesystem: BLOCK* NameSystem.delete: blk_2477084569492172118 is added to invalidSet of 10.250.7.96:50010
081110 103111 30 INFO dfs.FSNamesystem: BLOCK* NameSystem.delete: blk_-8403618945096094999 is added to invalidSet of 10.251.42.9:50010
081110 103111 30 INFO dfs.FSNamesystem: BLOCK* NameSystem.delete: blk_909506648499908193-4 is added to invalidSet of 10.251.42.9:50010
081110 103112 30 INFO dfs.FSNamesystem: BLOCK* NameSystem.delete: blk_-2012430628930443984 is added to invalidSet of 10.250.11.100:50010
081110 103112 30 INFO dfs.FSNamesystem: BLOCK* NameSystem.delete: blk_84-21429384633020049 is added to invalidSet of 10.250.11.100:50010
081110 103112 30 INFO dfs.FSNamesystem: BLOCK* NameSystem.delete: blk_7819984111120374407 is added to invalidSet of 10.251.30.6:50010
081110 103112 30 INFO dfs.FSNamesystem: BLOCK* NameSystem.delete: blk_1074392801141184797 is added to invalidSet of 10.251.30.6:50010
081110 103113 30 INFO dfs.FSNamesystem: BLOCK* NameSystem.delete: blk_4499140370762613763 is added to invalidSet of 10.251.43.115:50010
081110 103113 30 INFO dfs.FSNamesystem: BLOCK* NameSystem.delete: blk_1013709934637466742 is added to invalidSet of 10.251.43.115:50010
081110 103114 30 INFO dfs.FSNamesystem: BLOCK* NameSystem.delete: blk_2304296078821316612 is added to invalidSet of 10.251.39.64:50010
081110 103114 30 INFO dfs.FSNamesystem: BLOCK* NameSystem.delete: blk_6239160276038811422 is added to invalidSet of 10.251.39.64:50010
081110 103114 30 INFO dfs.FSNamesystem: BLOCK* NameSystem.delete: blk_358331073189608564 is added to invalidSet of 10.251.67.225:50010
081110 103114 30 INFO dfs.FSNamesystem: BLOCK* NameSystem.delete: blk_753161389053603884 is added to invalidSet of 10.251.67.225:50010
081110 103114 30 INFO dfs.FSNamesystem: BLOCK* NameSystem.delete: blk_8404604116961181201 is added to invalidSet of 10.250.13.188:50010
081110 103114 30 INFO dfs.FSNamesystem: BLOCK* NameSystem.delete: blk_6910186014114208614 is added to invalidSet of 10.250.13.188:50010
081110 103117 30 INFO dfs.FSNamesystem: BLOCK* NameSystem.delete: blk_-3582070652284403613 is added to invalidSet of 10.250.10.213:50010
081110 103117 30 INFO dfs.FSNamesystem: BLOCK* NameSystem.delete: blk_2485-021683054623073 is added to invalidSet of 10.250.10.213:50010
081110 103123 33 INFO dfs.FSNamesystem: BLOCK* NameSystem.delete: blk_-4954795063440871977 is added to invalidSet of 10.251.203.80:50010
081110 103123 33 INFO dfs.FSNamesystem: BLOCK* NameSystem.delete: blk_775643498-7105079944 is added to invalidSet of 10.251.203.80:50010
081110 103127 30 INFO dfs.FSNamesystem: BLOCK* NameSystem.delete: blk_-6640779266188771131 is added to invalidSet of 10.251.126.83:50010
081110 103127 30 INFO dfs.FSNamesystem: BLOCK* NameSystem.delete: blk_0777698486-267136111 is added to invalidSet of 10.251.126.83:50010
081110 103130 30 INFO dfs.FSNamesystem: BLOCK* NameSystem.delete: blk_3858015337960682724 is added to invalidSet of 10.251.214.130:50010
081110 103130 30 INFO dfs.FSNamesystem: BLOCK* NameSystem.delete: blk_9343310567262880785 is added to invalidSet of 10.251.214.130:50010
081110 103130 30 INFO dfs.FSNamesystem: BLOCK* NameSystem.delete: blk_570916157110129687 is added to invalidSet of 10.251.214.18:50010
081110 103130 30 INFO dfs.FSNamesystem: BLOCK* NameSystem.delete: blk_296571157709181160 is added to invalidSet of 10.251.214.18:50010
081110 103132 30 INFO dfs.FSNamesystem: BLOCK* NameSystem.delete: blk_-7418499425236853516 is added to invalidSet of 10.251.203.4:50010
081110 103132 30 INFO dfs.FSNamesystem: BLOCK* NameSystem.delete: blk_345945153192866-8472 is added to invalidSet of 10.251.203.4:50010
081110 103136 30 INFO dfs.FSNamesystem: BLOCK* NameSystem.delete: blk_-7894824934989391122 is added to invalidSet of 10.251.38.197:50010
081110 103136 30 INFO dfs.FSNamesystem: BLOCK* NameSystem.delete: blk_973294281494993281-8 is added to invalidSet of 10.251.38.197:50010
081110 103137 30 INFO dfs.FSNamesystem: BLOCK* NameSystem.delete: blk_-5005618994659797504 is added to invalidSet of 10.251.125.193:50010
081110 103137 30 INFO dfs.FSNamesystem: BLOCK* NameSystem.delete: blk_06759079199645-48505 is added to invalidSet of 10.251.125.193:50010
081110 103137 30 INFO dfs.FSNamesystem: BLOCK* NameSystem.delete: blk_7932704730736035192 is added to invalidSet of 10.251.199.245:50010
081110 103137 30 INFO dfs.FSNamesystem: BLOCK* NameSystem.delete: blk_2733107329364570709 is added to invalidSet of 10.251.199.245:50010
081110 103139 30 INFO dfs.FSNamesystem: BLOCK* NameSystem.delete: blk_-2834195813213005328 is added to invalidSet of 10.250.7.244:50010
081110 103139 30 INFO dfs.FSNamesystem: BLOCK* NameSystem.delete: blk_-3513598438013822102 is added to invalidSet of 10.250.7.244:50010
081110 103141 30 INFO dfs.FSNamesystem: BLOCK* NameSystem.delete: blk_-5972745462629982078 is added to invalidSet of 10.251.31.5:50010
081110 103141 30 INFO dfs.FSNamesystem: BLOCK* NameSystem.delete: blk_22-42586867945270799 is added to invalidSet of 10.251.31.5:50010
081110 103142 30 INFO dfs.FSNamesystem: BLOCK* NameSystem.delete: blk_-7111788899695387329 is added to invalidSet of 10.251.75.228:50010
081110 103142 30 INFO dfs.FSNamesystem: BLOCK* NameSystem.delete: blk_1798793181829597638- is added to invalidSet of 10.251.75.228:50010
081110 103146 30 INFO dfs.FSNamesystem: BLOCK* NameSystem.delete: blk_-1110880362999960078 is added to invalidSet of 10.251.194.147:50010
081110 103146 30 INFO dfs.FSNamesystem: BLOCK* NameSystem.delete: blk_9-820019179890686031 is added to invalidSet of 10.251.194.147:50010
081110 103146 30 INFO dfs.FSNamesystem: BLOCK* NameSystem.delete: blk_6489659315944341351 is added to invalidSet of 10.251.106.50:50010
081110 103146 30 INFO dfs.FSNamesystem: BLOCK* NameSystem.delete: blk_9396195534584441631 is added to invalidSet of 10.251.106.50:50010
081110 103146 30 INFO dfs.FSNamesystem: BLOCK* NameSystem.delete: blk_7324196727355442810 is added to invalidSet of 10.251.203.80:50010
081110 103146 30 INFO dfs.FSNamesystem: BLOCK* NameSystem.delete: blk_8122375607442153749 is added to invalidSet of 10.251.203.80:50010
081110 103147 30 INFO dfs.FSNamesystem: BLOCK* NameSystem.delete: blk_-2589662411410634043 is added to invalidSet of 10.251.42.16:50010
081110 103147 30 INFO dfs.FSNamesystem: BLOCK* NameSystem.delete: blk_22-10814406653963441 is added to invalidSet of 10.251.42.16:50010
081110 103147 30 INFO dfs.FSNamesystem: BLOCK* NameSystem.delete: blk_8602496359012842630 is added to invalidSet of 10.250.7.32:50010
081110 103147 30 INFO dfs.FSNamesystem: BLOCK* NameSystem.delete: blk_2163920425348668009 is added to invalidSet of 10.250.7.32:50010
081110 103148 30 INFO dfs.FSNamesystem: BLOCK* NameSystem.delete: blk_-133919539232421451 is added to invalidSet of 10.250.10.176:50010
081110 103148 30 INFO dfs.FSNamesystem: BLOCK* NameSystem.delete: blk_-325939341931121245 is added to invalidSet of 10.250.10.176:50010
081110 103149 30 INFO dfs.FSNamesystem: BLOCK* NameSystem.delete: blk_-6136511938931864993 is added to invalidSet of 10.250.14.38:50010
081110 103149 30 INFO dfs.FSNamesystem: BLOCK* NameSystem.delete: blk_831696-3618349391591 is added to invalidSet of 10.250.14.38:50010
081110 103149 30 INFO dfs.FSNamesystem: BLOCK* NameSystem.delete: blk_8871064397020855320 is added to invalidSet of 10.251.42.84:50010
081110 103149 30 INFO dfs.FSNamesystem: BLOCK* NameSystem.delete: blk_4735850122039076088 is added to invalidSet of 10.251.42.84:50010
081110 103201 19 INFO dfs.FSDataset: Deleting block blk_8483848473254499625 file /mnt/hadoop/dfs/data/current/subdir51/blk_8483848473254499625
081110 103201 19 INFO dfs.FSDataset: Deleting block blk_8435488347862299445 file /mnt/hadoop/dfs/data/current/subdir51/blk_4939542278683854844
081110 103233 8946 INFO dfs.DataNode$PacketResponder: Received block blk_-9188933731705791676 of size 67108864 from /10.251.39.192
081110 103233 8946 INFO dfs.DataNode$PacketResponder: Received block blk_31598731-77063196978 of size 67108864 from /10.251.39.192
081110 103257 19 INFO dfs.FSDataset: Deleting block blk_-8898274302731129139 file /mnt/hadoop/dfs/data/current/subdir18/blk_-8898274302731129139
081110 103257 19 INFO dfs.FSDataset: Deleting block blk_13209331471882-99728 file /mnt/hadoop/dfs/data/current/subdir18/blk_9-319427189203213878
081110 103320 18 INFO dfs.FSDataset: Deleting block blk_-8014701913801168461 file /mnt/hadoop/dfs/data/current/subdir27/blk_-8014701913801168461
081110 103320 18 INFO dfs.FSDataset: Deleting block blk_189106-1013187648041 file /mnt/hadoop/dfs/data/current/subdir27/blk_1711896180060381-414
081110 103321 19 INFO dfs.FSDataset: Deleting block blk_-8775602795571523802 file /mnt/hadoop/dfs/data/current/subdir29/blk_-8775602795571523802
081110 103321 19 INFO dfs.FSDataset: Deleting block blk_8070-228593757721565 file /mnt/hadoop/dfs/data/current/subdir29/blk_27-50921872755368057
081110 103327 19 INFO dfs.FSDataset: Deleting block blk_-7928230000822317050 file /mnt/hadoop/dfs/data/current/subdir9/blk_-7928230000822317050
081110 103327 19 INFO dfs.FSDataset: Deleting block blk_2107-203908002302578 file /mnt/hadoop/dfs/data/current/subdir9/blk_-3723298005120702800
081110 103328 19 INFO dfs.FSDataset: Deleting block blk_8303413189200230139 file /mnt/hadoop/dfs/data/current/subdir32/blk_8303413189200230139
081110 103328 19 INFO dfs.FSDataset: Deleting block blk_0103833121932439008 file /mnt/hadoop/dfs/data/current/subdir32/blk_1330910184392320830
081110 103331 19 INFO dfs.FSDataset: Deleting block blk_-9038475355621289969 file /mnt/hadoop/dfs/data/current/subdir41/blk_-9038475355621289969
081110 103331 19 INFO dfs.FSDataset: Deleting block blk_783194-6590225986359 file /mnt/hadoop/dfs/data/current/subdir41/blk_3282893961557549-096
081110 103333 9016 INFO dfs.DataNode$PacketResponder: Received block blk_4263664068073345850 of size 67108864 from /10.251.214.67
081110 103333 9016 INFO dfs.DataNode$PacketResponder: Received block blk_8665578032043663404 of size 67108864 from /10.251.214.67
081110 103335 19 INFO dfs.FSDataset: Deleting block blk_-8848810702648406400 file /mnt/hadoop/dfs/data/current/subdir11/blk_-8848810702648406400
081110 103335 19 INFO dfs.FSDataset: Deleting block blk_4008026478808401864- file /mnt/hadoop/dfs/data/current/subdir11/blk_4280406648800847018-
081110 103340 9214 INFO dfs.DataNode$PacketResponder: PacketResponder 2 for block blk_-6997219177553478996 terminating
081110 103340 9214 INFO dfs.DataNode$PacketResponder: PacketResponder 2 for block blk_191-7699799787562354 terminating
081110 103343 27 INFO dfs.FSNamesystem: BLOCK* NameSystem.allocateBlock: /user/root/rand/_temporary/_task_200811101024_0001_m_000206_0/part-00206. blk_-2230892279625104430
081110 103343 27 INFO dfs.FSNamesystem: BLOCK* NameSystem.allocateBlock: /user/root/rand/_temporary/_task_200811101024_0001_m_000206_0/part-00206. blk_3-298017242029560324
081110 103347 19 INFO dfs.FSDataset: Deleting block blk_-7515058933811567980 file /mnt/hadoop/dfs/data/current/subdir1/blk_-7515058933811567980
081110 103347 19 INFO dfs.FSDataset: Deleting block blk_55017855173360-91898 file /mnt/hadoop/dfs/data/current/subdir1/blk_895510360198831-5757
081110 103348 19 INFO dfs.FSDataset: Deleting block blk_-8484827087450439270 file /mnt/hadoop/dfs/data/current/subdir25/blk_-8484827087450439270
081110 103348 19 INFO dfs.FSDataset: Deleting block blk_074437488095-8872402 file /mnt/hadoop/dfs/data/current/subdir25/blk_00388420-74849857472
081110 103349 19 INFO dfs.FSDataset: Deleting block blk_-8144387882075572886 file /mnt/hadoop/dfs/data/current/subdir42/blk_-8144387882075572886
081110 103349 19 INFO dfs.FSDataset: Deleting block blk_5287784288760-881453 file /mnt/hadoop/dfs/data/current/subdir42/blk_28273-18488875475680
081110 103354 19 INFO dfs.FSDataset: Deleting block blk_-8383503596684323017 file /mnt/hadoop/dfs/data/current/subdir26/blk_-8383503596684323017
081110 103354 19 INFO dfs.FSDataset: Deleting block blk_-0533079681634238358 file /mnt/hadoop/dfs/data/current/subdir26/blk_33388356920341-78650
081110 103400 19 INFO dfs.FSDataset: Deleting block blk_-8796256534683400159 file /mnt/hadoop/dfs/data/current/subdir18/blk_-8796256534683400159
081110 103400 19 INFO dfs.FSDataset: Deleting block blk_34551238967669005-84 file /mnt/hadoop/dfs/data/current/subdir18/blk_8563134246908057-569
081110 103403 19 INFO dfs.FSDataset: Deleting block blk_-8775602795571523802 file /mnt/hadoop/dfs/data/current/subdir41/blk_-8775602795571523802
081110 103403 19 INFO dfs.FSDataset: Deleting block blk_7502209-587357267518 file /mnt/hadoop/dfs/data/current/subdir41/blk_-5058322517782977065
081110 103412 7249 INFO dfs.DataNode$PacketResponder: Received block blk_4098532420907418423 of size 67108864 from /10.251.43.147
081110 103412 7249 INFO dfs.DataNode$PacketResponder: Received block blk_8328340912750024449 of size 67108864 from /10.251.43.147
081110 103430 19 INFO dfs.FSDataset: Deleting block blk_-4368236874477798428 file /mnt/hadoop/dfs/data/current/subdir33/blk_-4368236874477798428
081110 103430 19 INFO dfs.FSDataset: Deleting block blk_84388774836-62729474 file /mnt/hadoop/dfs/data/current/subdir33/blk_4624-769233777488848
081110 103432 19 INFO dfs.FSDataset: Deleting block blk_-4223625526513535681 file /mnt/hadoop/dfs/data/current/subdir60/blk_-4223625526513535681
081110 103432 19 INFO dfs.FSDataset: Deleting block blk_226115653-5353528246 file /mnt/hadoop/dfs/data/current/subdir60/blk_53156513466-25222583
081110 103437 19 INFO dfs.FSDataset: Deleting block blk_-6400421658804613208 file /mnt/hadoop/dfs/data/current/subdir29/blk_-6400421658804613208
081110 103437 19 INFO dfs.FSDataset: Deleting block blk_082562864048613410-0 file /mnt/hadoop/dfs/data/current/subdir29/blk_6-088461442632005018
081110 103442 19 INFO dfs.FSDataset: Deleting block blk_-5880591395067598620 file /mnt/hadoop/dfs/data/current/subdir32/blk_-5880591395067598620
081110 103442 19 INFO dfs.FSDataset: Deleting block blk_98156096928508-55370 file /mnt/hadoop/dfs/data/current/subdir32/blk_8905162539780698-550
081110 103442 19 INFO dfs.FSDataset: Deleting block blk_-7096508472270520039 file /mnt/hadoop/dfs/data/current/subdir20/blk_-7096508472270520039
081110 103442 19 INFO dfs.FSDataset: Deleting block blk_47009675-52220039078 file /mnt/hadoop/dfs/data/current/subdir20/blk_00622000597-24873795
081110 103444 19 INFO dfs.FSDataset: Deleting block blk_-1939956833921604216 file /mnt/hadoop/dfs/data/current/subdir34/blk_-1939956833921604216
081110 103444 19 INFO dfs.FSDataset: Deleting block blk_3269238-915610693914 file /mnt/hadoop/dfs/data/current/subdir34/blk_69698-33223119695104
081110 103512 19 INFO dfs.FSDataset: Deleting block blk_-3860035787700398391 file /mnt/hadoop/dfs/data/current/subdir6/blk_-3860035787700398391
081110 103512 19 INFO dfs.FSDataset: Deleting block blk_1-603387307979085803 file /mnt/hadoop/dfs/data/current/subdir6/blk_-8859030673087073913
081110 103524 19 INFO dfs.FSDataset: Deleting block blk_-6008397446568765070 file /mnt/hadoop/dfs/data/current/blk_-6008397446568765070
081110 103524 19 INFO dfs.FSDataset: Deleting block blk_54408368050-67670796 file /mnt/hadoop/dfs/data/current/blk_9860740-037408567656
081110 103527 19 INFO dfs.FSDataset: Deleting block blk_-2425070029518924403 file /mnt/hadoop/dfs/data/current/subdir39/blk_-2425070029518924403
081110 103527 19 INFO dfs.FSDataset: Deleting block blk_-2042905394082420517 file /mnt/hadoop/dfs/data/current/subdir39/blk_904248742203512500-9
081110 103533 18 INFO dfs.FSDataset: Deleting block blk_826351419727053015 file /mnt/hadoop/dfs/data/current/subdir6/blk_826351419727053015
081110 103533 18 INFO dfs.FSDataset: Deleting block blk_195613087532420571 file /mnt/hadoop/dfs/data/current/subdir6/blk_971438605551021327
081110 103533 19 INFO dfs.FSDataset: Deleting block blk_-3437475890798229344 file /mnt/hadoop/dfs/data/current/subdir57/blk_-3437475890798229344
081110 103533 19 INFO dfs.FSDataset: Deleting block blk_2399789387424447305- file /mnt/hadoop/dfs/data/current/subdir57/blk_949270873244978533-4
081110 103534 19 INFO dfs.FSDataset: Deleting block blk_-1492402439215451727 file /mnt/hadoop/dfs/data/current/subdir25/blk_-1492402439215451727
081110 103534 19 INFO dfs.FSDataset: Deleting block blk_101-7541452994242273 file /mnt/hadoop/dfs/data/current/subdir25/blk_102741124-4549379252
081110 103538 18 INFO dfs.FSDataset: Deleting block blk_-4298255715894292387 file /mnt/hadoop/dfs/data/current/subdir38/blk_-4298255715894292387
081110 103538 18 INFO dfs.FSDataset: Deleting block blk_8453292-752284917859 file /mnt/hadoop/dfs/data/current/subdir38/blk_5852524229-848917973
081110 103547 19 INFO dfs.FSDataset: Deleting block blk_-4295805058711840933 file /mnt/hadoop/dfs/data/current/subdir0/blk_-4295805058711840933
081110 103547 19 INFO dfs.FSDataset: Deleting block blk_10845509394103-82587 file /mnt/hadoop/dfs/data/current/subdir0/blk_0813550441830725-899
081110 103548 19 INFO dfs.FSDataset: Deleting block blk_830855781964014378 file /mnt/hadoop/dfs/data/current/subdir48/blk_830855781964014378
081110 103548 19 INFO dfs.FSDataset: Deleting block blk_317058581697834480 file /mnt/hadoop/dfs/data/current/subdir48/blk_846405758893301817
081110 103551 19 INFO dfs.FSDataset: Deleting block blk_8291708741145026623 file /mnt/hadoop/dfs/data/current/subdir57/blk_8291708741145026623
081110 103551 19 INFO dfs.FSDataset: Deleting block blk_4627612172834508109 file /mnt/hadoop/dfs/data/current/subdir57/blk_2184146627185903072
081110 103552 19 INFO dfs.FSDataset: Deleting block blk_-921231092429668424 file /mnt/hadoop/dfs/data/current/subdir23/blk_-921231092429668424
081110 103552 19 INFO dfs.FSDataset: Deleting block blk_-242214499092218663 file /mnt/hadoop/dfs/data/current/subdir23/blk_2-28424299910631264
081110 103553 19 INFO dfs.FSDataset: Deleting block blk_-1581605246928123722 file /mnt/hadoop/dfs/data/current/subdir13/blk_-1581605246928123722
081110 103553 19 INFO dfs.FSDataset: Deleting block blk_0619-213824252752186 file /mnt/hadoop/dfs/data/current/subdir13/blk_02179652-23228465181
081110 103554 18 INFO dfs.FSDataset: Deleting block blk_-2445347158368483245 file /mnt/hadoop/dfs/data/current/subdir30/blk_-2445347158368483245
081110 103554 18 INFO dfs.FSDataset: Deleting block blk_-1432484755844382653 file /mnt/hadoop/dfs/data/current/subdir30/blk_4543228487-583154436
081110 103554 19 INFO dfs.FSDataset: Deleting block blk_-1897524391075610396 file /mnt/hadoop/dfs/data/current/subdir47/blk_-1897524391075610396
081110 103554 19 INFO dfs.FSDataset: Deleting block blk_935100712716-4896359 file /mnt/hadoop/dfs/data/current/subdir47/blk_7451107695628913930-
081110 103557 19 INFO dfs.FSDataset: Deleting block blk_-8588908000680498 file /mnt/hadoop/dfs/data/current/subdir21/blk_-8588908000680498
081110 103557 19 INFO dfs.FSDataset: Deleting block blk_08008099868845-80 file /mnt/hadoop/dfs/data/current/subdir21/blk_8085480-868990080
081110 103558 19 INFO dfs.FSDataset: Deleting block blk_561417755647618727 file /mnt/hadoop/dfs/data/current/subdir4/blk_561417755647618727
081110 103558 19 INFO dfs.FSDataset: Deleting block blk_765744611775126587 file /mnt/hadoop/dfs/data/current/subdir4/blk_616785717127457456
081110 103600 19 INFO dfs.FSDataset: Deleting block blk_-6127741703501838658 file /mnt/hadoop/dfs/data/current/subdir53/blk_-6127741703501838658
081110 103600 19 INFO dfs.FSDataset: Deleting block blk_7720830165583-847116 file /mnt/hadoop/dfs/data/current/subdir53/blk_5278651-887617430310
081110 103603 18 INFO dfs.FSDataset: Deleting block blk_-3636681193077858741 file /mnt/hadoop/dfs/data/current/subdir37/blk_-3636681193077858741
081110 103603 18 INFO dfs.FSDataset: Deleting block blk_18373-65973170818646 file /mnt/hadoop/dfs/data/current/subdir37/blk_1-786873130146835796
081110 103615 18 INFO dfs.FSDataset: Deleting block blk_-643763844763678010 file /mnt/hadoop/dfs/data/current/subdir29/blk_-643763844763678010
081110 103615 18 INFO dfs.FSDataset: Deleting block blk_68684040733314-6776 file /mnt/hadoop/dfs/data/current/subdir29/blk_4783461337-06467608
081110 103615 19 INFO dfs.FSDataset: Deleting block blk_-2826763604408365998 file /mnt/hadoop/dfs/data/current/subdir40/blk_-2826763604408365998
081110 103615 19 INFO dfs.FSDataset: Deleting block blk_-5860263328469078946 file /mnt/hadoop/dfs/data/current/subdir40/blk_5922794843608608636-
081110 103618 19 INFO dfs.FSDataset: Deleting block blk_2278708746675870163 file /mnt/hadoop/dfs/data/current/subdir27/blk_2278708746675870163
081110 103618 19 INFO dfs.FSDataset: Deleting block blk_0065863277418767287 file /mnt/hadoop/dfs/data/current/subdir27/blk_7887723747162086560
081110 103621 19 INFO dfs.FSDataset: Deleting block blk_153508158653341141 file /mnt/hadoop/dfs/data/current/subdir50/blk_153508158653341141
081110 103621 19 INFO dfs.FSDataset: Deleting block blk_511548336154581031 file /mnt/hadoop/dfs/data/current/subdir50/blk_534635431181581510
081110 103621 19 INFO dfs.FSDataset: Deleting block blk_-1775264355226395799 file /mnt/hadoop/dfs/data/current/subdir26/blk_-1775264355226395799
081110 103621 19 INFO dfs.FSDataset: Deleting block blk_-3597545629572396712 file /mnt/hadoop/dfs/data/current/subdir26/blk_24592175569-79732563
081110 103626 18 INFO dfs.FSDataset: Deleting block blk_-1599621098605751235 file /mnt/hadoop/dfs/data/current/subdir16/blk_-1599621098605751235
081110 103626 18 INFO dfs.FSDataset: Deleting block blk_520298993511561570-6 file /mnt/hadoop/dfs/data/current/subdir16/blk_1357966251525098901-
081110 103631 19 INFO dfs.FSDataset: Deleting block blk_-1111344660779690782 file /mnt/hadoop/dfs/data/current/subdir40/blk_-1111344660779690782
081110 103631 19 INFO dfs.FSDataset: Deleting block blk_629704-1169714103786 file /mnt/hadoop/dfs/data/current/subdir40/blk_107479861611-3069427
081110 103631 19 INFO dfs.FSDataset: Deleting block blk_3585588704565901062 file /mnt/hadoop/dfs/data/current/subdir15/blk_3585588704565901062
081110 103631 19 INFO dfs.FSDataset: Deleting block blk_3755651808905682540 file /mnt/hadoop/dfs/data/current/subdir15/blk_5655025805184096738
081110 103634 19 INFO dfs.FSDataset: Deleting block blk_2756799797410851893 file /mnt/hadoop/dfs/data/current/subdir24/blk_2756799797410851893
081110 103634 19 INFO dfs.FSDataset: Deleting block blk_7997820718915435697 file /mnt/hadoop/dfs/data/current/subdir24/blk_1972536974510879978
081110 103641 19 INFO dfs.FSDataset: Deleting block blk_7323287581932922676 file /mnt/hadoop/dfs/data/current/subdir12/blk_7323287581932922676
081110 103641 19 INFO dfs.FSDataset: Deleting block blk_6873353862172272929 file /mnt/hadoop/dfs/data/current/subdir12/blk_9638228132793762527
081110 103655 9020 INFO dfs.DataNode$PacketResponder: Received block blk_-4935573595350235765 of size 67108864 from /10.251.123.195
081110 103655 9020 INFO dfs.DataNode$PacketResponder: Received block blk_473-0523559553575396 of size 67108864 from /10.251.123.195
081110 103657 32 INFO dfs.FSNamesystem: BLOCK* NameSystem.allocateBlock: /user/root/rand/_temporary/_task_200811101024_0001_m_000097_0/part-00097. blk_496376132244907301
081110 103657 32 INFO dfs.FSNamesystem: BLOCK* NameSystem.allocateBlock: /user/root/rand/_temporary/_task_200811101024_0001_m_000097_0/part-00097. blk_321104496704363792
081110 103659 19 INFO dfs.FSDataset: Deleting block blk_2731617036199392057 file /mnt/hadoop/dfs/data/current/subdir39/blk_2731617036199392057
081110 103659 19 INFO dfs.FSDataset: Deleting block blk_1363971052209177639 file /mnt/hadoop/dfs/data/current/subdir39/blk_6200765713117993239
081110 103704 19 INFO dfs.FSDataset: Deleting block blk_7190156588310412626 file /mnt/hadoop/dfs/data/current/subdir30/blk_7190156588310412626
081110 103704 19 INFO dfs.FSDataset: Deleting block blk_5626115068107439821 file /mnt/hadoop/dfs/data/current/subdir30/blk_5320801719612864156
081110 103717 19 INFO dfs.FSDataset: Deleting block blk_8189008752707332487 file /mnt/hadoop/dfs/data/current/subdir7/blk_8189008752707332487
081110 103717 19 INFO dfs.FSDataset: Deleting block blk_3803750897724728180 file /mnt/hadoop/dfs/data/current/subdir7/blk_7988203340770785812
081110 103719 19 INFO dfs.FSDataset: Deleting block blk_6828263829429857572 file /mnt/hadoop/dfs/data/current/subdir26/blk_6828263829429857572
081110 103719 19 INFO dfs.FSDataset: Deleting block blk_5882792862268579423 file /mnt/hadoop/dfs/data/current/subdir26/blk_8782258659642822739
081110 103729 19 INFO dfs.FSDataset: Deleting block blk_8492196963764530259 file /mnt/hadoop/dfs/data/current/subdir45/blk_8492196963764530259
081110 103729 19 INFO dfs.FSDataset: Deleting block blk_1683493509956967224 file /mnt/hadoop/dfs/data/current/subdir45/blk_3680545299219496763
081110 103731 19 INFO dfs.FSDataset: Deleting block blk_7942183449206967755 file /mnt/hadoop/dfs/data/current/subdir30/blk_7942183449206967755
081110 103731 19 INFO dfs.FSDataset: Deleting block blk_4698970324545917762 file /mnt/hadoop/dfs/data/current/subdir30/blk_9474875392457966210
081110 103734 19 INFO dfs.FSDataset: Deleting block blk_6223504502438507199 file /mnt/hadoop/dfs/data/current/subdir0/blk_6223504502438507199
081110 103734 19 INFO dfs.FSDataset: Deleting block blk_3005485223799216504 file /mnt/hadoop/dfs/data/current/subdir0/blk_0605254239740592381
081110 103735 19 INFO dfs.FSDataset: Deleting block blk_7519257846502835091 file /mnt/hadoop/dfs/data/current/subdir15/blk_7519257846502835091
081110 103735 19 INFO dfs.FSDataset: Deleting block blk_0795828736190455512 file /mnt/hadoop/dfs/data/current/subdir15/blk_2031165280585779954
081110 103739 19 INFO dfs.FSDataset: Deleting block blk_5272005015837990021 file /mnt/hadoop/dfs/data/current/subdir0/blk_5272005015837990021
081110 103739 19 INFO dfs.FSDataset: Deleting block blk_2220059750031019587 file /mnt/hadoop/dfs/data/current/subdir0/blk_2210577158209009530
081110 103743 19 INFO dfs.FSDataset: Deleting block blk_7090935285617451450 file /mnt/hadoop/dfs/data/current/subdir60/blk_7090935285617451450
081110 103743 19 INFO dfs.FSDataset: Deleting block blk_8670410941930557552 file /mnt/hadoop/dfs/data/current/subdir60/blk_7951900447055256318
081110 103749 19 INFO dfs.FSDataset: Deleting block blk_8145984793403459836 file /mnt/hadoop/dfs/data/current/blk_8145984793403459836
081110 103749 19 INFO dfs.FSDataset: Deleting block blk_6383587849949431504 file /mnt/hadoop/dfs/data/current/blk_4644399845731389085
081110 103755 19 INFO dfs.FSDataset: Deleting block blk_7603278760520020831 file /mnt/hadoop/dfs/data/current/subdir59/blk_7603278760520020831
081110 103755 19 INFO dfs.FSDataset: Deleting block blk_6013658327008700722 file /mnt/hadoop/dfs/data/current/subdir59/blk_7130605622007238708
081110 103801 19 INFO dfs.FSDataset: Deleting block blk_9169945668827621796 file /mnt/hadoop/dfs/data/current/subdir50/blk_9169945668827621796
081110 103801 19 INFO dfs.FSDataset: Deleting block blk_6896497871619226965 file /mnt/hadoop/dfs/data/current/subdir50/blk_5649821619667792896
081110 103812 9115 INFO dfs.DataNode$PacketResponder: Received block blk_-5668584889663038916 of size 67108864 from /10.250.9.207
081110 103812 9115 INFO dfs.DataNode$PacketResponder: Received block blk_698696-4386685881305 of size 67108864 from /10.250.9.207
081110 103818 35 INFO dfs.FSNamesystem: BLOCK* NameSystem.addStoredBlock: blockMap updated: 10.251.194.147:50010 is added to blk_5277338321835341602 size 67108864
081110 103818 35 INFO dfs.FSNamesystem: BLOCK* NameSystem.addStoredBlock: blockMap updated: 10.251.194.147:50010 is added to blk_5413285371038372326 size 67108864
081110 103819 19 INFO dfs.FSDataset: Deleting block blk_6973321719929905054 file /mnt/hadoop/dfs/data/current/subdir14/blk_6973321719929905054
081110 103819 19 INFO dfs.FSDataset: Deleting block blk_0562391039947712599 file /mnt/hadoop/dfs/data/current/subdir14/blk_7356253907191299904
081110 103821 19 INFO dfs.FSDataset: Deleting block blk_5948455948626091880 file /mnt/hadoop/dfs/data/current/subdir28/blk_5948455948626091880
081110 103821 19 INFO dfs.FSDataset: Deleting block blk_9982658805985644401 file /mnt/hadoop/dfs/data/current/subdir28/blk_4865409926985048851
081110 103827 26 INFO dfs.FSNamesystem: BLOCK* NameSystem.addStoredBlock: blockMap updated: 10.251.75.49:50010 is added to blk_-3684613761619321001 size 67108864
081110 103827 26 INFO dfs.FSNamesystem: BLOCK* NameSystem.addStoredBlock: blockMap updated: 10.251.75.49:50010 is added to blk_3021610668-141763931 size 67108864
081110 103840 19 INFO dfs.FSDataset: Deleting block blk_6497260538939100482 file /mnt/hadoop/dfs/data/current/subdir46/blk_6497260538939100482
081110 103840 19 INFO dfs.FSDataset: Deleting block blk_9094137968862354200 file /mnt/hadoop/dfs/data/current/subdir46/blk_0635804220168799439
081110 103840 9117 INFO dfs.DataNode$PacketResponder: PacketResponder 2 for block blk_-6991853982611346454 terminating
081110 103840 9117 INFO dfs.DataNode$PacketResponder: PacketResponder 2 for block blk_149246841813-6395956 terminating
081110 103850 32 INFO dfs.FSNamesystem: BLOCK* NameSystem.allocateBlock: /user/root/rand/_temporary/_task_200811101024_0001_m_000056_0/part-00056. blk_6140788650991100539
081110 103850 32 INFO dfs.FSNamesystem: BLOCK* NameSystem.allocateBlock: /user/root/rand/_temporary/_task_200811101024_0001_m_000056_0/part-00056. blk_9964609810318007515
081110 103922 19 INFO dfs.FSDataset: Deleting block blk_7754477838724397551 file /mnt/hadoop/dfs/data/current/subdir46/blk_7754477838724397551
081110 103922 19 INFO dfs.FSDataset: Deleting block blk_7975815273847474375 file /mnt/hadoop/dfs/data/current/subdir46/blk_4351557977874778432
081110 104018 9085 INFO dfs.DataNode$PacketResponder: PacketResponder 0 for block blk_-3452734573703603740 terminating
081110 104018 9085 INFO dfs.DataNode$PacketResponder: PacketResponder 0 for block blk_3736570374704324305- terminating
081110 104047 8882 INFO dfs.DataNode$PacketResponder: Received block blk_-4034227974316905164 of size 67108864 from /10.250.15.198
081110 104047 8882 INFO dfs.DataNode$PacketResponder: Received block blk_01496367-90224734541 of size 67108864 from /10.250.15.198
081110 104224 34 INFO dfs.FSNamesystem: BLOCK* NameSystem.allocateBlock: /user/root/rand/_temporary/_task_200811101024_0001_m_000346_0/part-00346. blk_-2016403519138424998
081110 104224 34 INFO dfs.FSNamesystem: BLOCK* NameSystem.allocateBlock: /user/root/rand/_temporary/_task_200811101024_0001_m_000346_0/part-00346. blk_88456994-93342201011
081110 104231 8978 INFO dfs.DataNode$DataXceiver: Receiving block blk_2972699288862031202 src: /10.250.5.161:51077 dest: /10.250.5.161:50010
081110 104231 8978 INFO dfs.DataNode$DataXceiver: Receiving block blk_2267809818232260299 src: /10.250.5.161:51077 dest: /10.250.5.161:50010
081110 104309 9091 INFO dfs.DataNode$DataXceiver: Receiving block blk_-4956232013010963754 src: /10.251.126.22:58984 dest: /10.251.126.22:50010
081110 104309 9091 INFO dfs.DataNode$DataXceiver: Receiving block blk_646-3705592331940102 src: /10.251.126.22:58984 dest: /10.251.126.22:50010
081110 104321 28 INFO dfs.FSNamesystem: BLOCK* NameSystem.addStoredBlock: blockMap updated: 10.250.15.198:50010 is added to blk_8894334107354324777 size 3549832
081110 104321 28 INFO dfs.FSNamesystem: BLOCK* NameSystem.addStoredBlock: blockMap updated: 10.250.15.198:50010 is added to blk_8737495833214473407 size 3549832
081110 104357 9263 INFO dfs.DataNode$PacketResponder: PacketResponder 2 for block blk_-6035642070260562886 terminating
081110 104357 9263 INFO dfs.DataNode$PacketResponder: PacketResponder 2 for block blk_6087026-283465250606 terminating
081110 104401 29 INFO dfs.FSNamesystem: BLOCK* NameSystem.addStoredBlock: blockMap updated: 10.251.107.196:50010 is added to blk_4802366409699286298 size 3547304
081110 104401 29 INFO dfs.FSNamesystem: BLOCK* NameSystem.addStoredBlock: blockMap updated: 10.251.107.196:50010 is added to blk_2486909940236689628 size 3547304
081110 104404 9034 INFO dfs.DataNode$DataXceiver: Receiving block blk_-1753161039594546561 src: /10.251.203.149:33685 dest: /10.251.203.149:50010
081110 104404 9034 INFO dfs.DataNode$DataXceiver: Receiving block blk_951360531-7649511546 src: /10.251.203.149:33685 dest: /10.251.203.149:50010
081110 104407 9110 INFO dfs.DataNode$PacketResponder: PacketResponder 2 for block blk_859668537217019080 terminating
081110 104407 9110 INFO dfs.DataNode$PacketResponder: PacketResponder 2 for block blk_779681812538065009 terminating
081110 104600 26 INFO dfs.FSNamesystem: BLOCK* NameSystem.allocateBlock: /user/root/rand/_temporary/_task_200811101024_0001_m_000121_0/part-00121. blk_-2073265102548439691
081110 104600 26 INFO dfs.FSNamesystem: BLOCK* NameSystem.allocateBlock: /user/root/rand/_temporary/_task_200811101024_0001_m_000121_0/part-00121. blk_2263-409943507518216
081110 104825 9232 INFO dfs.DataNode$PacketResponder: Received block blk_3083630442630693250 of size 67108864 from /10.251.215.70
081110 104825 9232 INFO dfs.DataNode$PacketResponder: Received block blk_2658364004392336300 of size 67108864 from /10.251.215.70
081110 104834 9213 INFO dfs.DataNode$PacketResponder: PacketResponder 1 for block blk_-4624597753370705281 terminating
081110 104834 9213 INFO dfs.DataNode$PacketResponder: PacketResponder 1 for block blk_27537239750641048-57 terminating
081110 104839 9163 INFO dfs.DataNode$PacketResponder: Received block blk_-5236578579938215340 of size 67108864 from /10.250.7.244
081110 104839 9163 INFO dfs.DataNode$PacketResponder: Received block blk_621753985539247083-5 of size 67108864 from /10.250.7.244
081110 104847 32 INFO dfs.FSNamesystem: BLOCK* NameSystem.addStoredBlock: blockMap updated: 10.251.39.144:50010 is added to blk_-6592952246351162022 size 67108864
081110 104847 32 INFO dfs.FSNamesystem: BLOCK* NameSystem.addStoredBlock: blockMap updated: 10.251.39.144:50010 is added to blk_6532-245026226119295 size 67108864
081110 104914 33 INFO dfs.FSNamesystem: BLOCK* NameSystem.addStoredBlock: blockMap updated: 10.250.14.224:50010 is added to blk_-3329473910909732817 size 67108864
081110 104914 33 INFO dfs.FSNamesystem: BLOCK* NameSystem.addStoredBlock: blockMap updated: 10.250.14.224:50010 is added to blk_033708-1493219932779 size 67108864
081110 105000 19 INFO dfs.FSDataset: Deleting block blk_-1347057913082589493 file /mnt/hadoop/dfs/data/current/subdir56/blk_-1347057913082589493
081110 105000 19 INFO dfs.FSDataset: Deleting block blk_930979814503837145-2 file /mnt/hadoop/dfs/data/current/subdir56/blk_902984431331-5977058
081110 105149 9274 INFO dfs.DataNode$DataXceiver: Receiving block blk_-8198423074054354279 src: /10.251.203.149:46429 dest: /10.251.203.149:50010
081110 105149 9274 INFO dfs.DataNode$DataXceiver: Receiving block blk_4190443-557072248983 src: /10.251.203.149:46429 dest: /10.251.203.149:50010
081110 105203 9267 INFO dfs.DataNode$PacketResponder: PacketResponder 0 for block blk_391813102554451063 terminating
081110 105203 9267 INFO dfs.DataNode$PacketResponder: PacketResponder 0 for block blk_845146530512901331 terminating
081110 105219 28 INFO dfs.FSNamesystem: BLOCK* NameSystem.addStoredBlock: blockMap updated: 10.251.214.67:50010 is added to blk_-6449891932967810179 size 67108864
081110 105219 28 INFO dfs.FSNamesystem: BLOCK* NameSystem.addStoredBlock: blockMap updated: 10.251.214.67:50010 is added to blk_99099177439661848-12 size 67108864
081110 105252 9416 INFO dfs.DataNode$DataXceiver: Receiving block blk_-8563999607069929505 src: /10.251.107.19:60076 dest: /10.251.107.19:50010
081110 105252 9416 INFO dfs.DataNode$DataXceiver: Receiving block blk_60075599-58969309692 src: /10.251.107.19:60076 dest: /10.251.107.19:50010
081110 105345 19 INFO dfs.FSDataset: Deleting block blk_-4304240611296196935 file /mnt/hadoop/dfs/data/current/subdir55/blk_-4304240611296196935
081110 105345 19 INFO dfs.FSDataset: Deleting block blk_19364-14916903062542 file /mnt/hadoop/dfs/data/current/subdir55/blk_564261-2091109643394
081110 105456 32 INFO dfs.FSNamesystem: BLOCK* NameSystem.addStoredBlock: blockMap updated: 10.251.110.68:50010 is added to blk_-3663004104512304532 size 67108864
081110 105456 32 INFO dfs.FSNamesystem: BLOCK* NameSystem.addStoredBlock: blockMap updated: 10.251.110.68:50010 is added to blk_04352163145003206-34 size 67108864
081110 105512 30 INFO dfs.FSNamesystem: BLOCK* NameSystem.allocateBlock: /user/root/rand/_temporary/_task_200811101024_0001_m_000749_0/part-00749. blk_-6909607053783233975
081110 105512 30 INFO dfs.FSNamesystem: BLOCK* NameSystem.allocateBlock: /user/root/rand/_temporary/_task_200811101024_0001_m_000749_0/part-00749. blk_90906037677383-32559
081110 105521 9428 INFO dfs.DataNode$PacketResponder: Received block blk_-2141627858612526069 of size 67108864 from /10.251.111.37
081110 105521 9428 INFO dfs.DataNode$PacketResponder: Received block blk_186-2615412766928205 of size 67108864 from /10.251.111.37
081110 105553 9531 INFO dfs.DataNode$DataXceiver: Receiving block blk_5272731391668336674 src: /10.250.6.191:46509 dest: /10.250.6.191:50010
081110 105553 9531 INFO dfs.DataNode$DataXceiver: Receiving block blk_8145326637637762139 src: /10.250.6.191:46509 dest: /10.250.6.191:50010
081110 105607 34 INFO dfs.FSNamesystem: BLOCK* NameSystem.addStoredBlock: blockMap updated: 10.251.39.179:50010 is added to blk_5491101910066444061 size 67108864
081110 105607 34 INFO dfs.FSNamesystem: BLOCK* NameSystem.addStoredBlock: blockMap updated: 10.251.39.179:50010 is added to blk_6560614090194401141 size 67108864
081110 105628 19 INFO dfs.FSDataset: Deleting block blk_5075966182561035053 file /mnt/hadoop/dfs/data/current/subdir53/blk_5075966182561035053
081110 105628 19 INFO dfs.FSDataset: Deleting block blk_0906531552517065683 file /mnt/hadoop/dfs/data/current/subdir53/blk_3215553550709168660
081110 105910 9510 INFO dfs.DataNode$PacketResponder: Received block blk_-5421365489363678155 of size 67108864 from /10.251.122.38
081110 105910 9510 INFO dfs.DataNode$PacketResponder: Received block blk_97-65138534632845516 of size 67108864 from /10.251.122.38
081110 105927 9498 INFO dfs.DataNode$PacketResponder: Received block blk_2294700909811950327 of size 67108864 from /10.251.90.64
081110 105927 9498 INFO dfs.DataNode$PacketResponder: Received block blk_2993280710091740295 of size 67108864 from /10.251.90.64
081110 110021 9609 INFO dfs.DataNode$PacketResponder: Received block blk_7224257732880626802 of size 67108864 from /10.251.122.79
081110 110021 9609 INFO dfs.DataNode$PacketResponder: Received block blk_2867057674823222208 of size 67108864 from /10.251.122.79
081110 110036 9429 INFO dfs.DataNode$PacketResponder: Received block blk_-8049908920306758342 of size 67108864 from /10.251.73.220
081110 110036 9429 INFO dfs.DataNode$PacketResponder: Received block blk_2580-404893823970690 of size 67108864 from /10.251.73.220
081110 110055 26 INFO dfs.FSNamesystem: BLOCK* NameSystem.addStoredBlock: blockMap updated: 10.250.7.244:50010 is added to blk_-6582383997201802925 size 67108864
081110 110055 26 INFO dfs.FSNamesystem: BLOCK* NameSystem.addStoredBlock: blockMap updated: 10.250.7.244:50010 is added to blk_20699259282-03588731 size 67108864
081110 110059 9428 INFO dfs.DataNode$PacketResponder: Received block blk_6746178639682808096 of size 67108864 from /10.251.125.174
081110 110059 9428 INFO dfs.DataNode$PacketResponder: Received block blk_6890397867612684608 of size 67108864 from /10.251.125.174
081110 110101 29 INFO dfs.FSNamesystem: BLOCK* NameSystem.addStoredBlock: blockMap updated: 10.251.38.214:50010 is added to blk_-5363213609331400263 size 67108864
081110 110101 29 INFO dfs.FSNamesystem: BLOCK* NameSystem.addStoredBlock: blockMap updated: 10.251.38.214:50010 is added to blk_233936160621303045-3 size 67108864
081110 110155 9579 INFO dfs.DataNode$PacketResponder: Received block blk_-5586529360624346565 of size 67108864 from /10.251.43.115
081110 110155 9579 INFO dfs.DataNode$PacketResponder: Received block blk_49650552568433665-26 of size 67108864 from /10.251.43.115
081110 110208 9551 INFO dfs.DataNode$PacketResponder: Received block blk_2063252936853409868 of size 67108864 from /10.251.43.192
081110 110208 9551 INFO dfs.DataNode$PacketResponder: Received block blk_6245359088829206633 of size 67108864 from /10.251.43.192
081110 110324 8497 INFO dfs.DataNode$DataXceiver: Receiving block blk_8752665860595246441 src: /10.251.70.5:44006 dest: /10.251.70.5:50010
081110 110324 8497 INFO dfs.DataNode$DataXceiver: Receiving block blk_1466675559456284082 src: /10.251.70.5:44006 dest: /10.251.70.5:50010
081110 110353 9313 INFO dfs.DataNode$PacketResponder: PacketResponder 2 for block blk_2974262690755997396 terminating
081110 110353 9313 INFO dfs.DataNode$PacketResponder: PacketResponder 2 for block blk_9269652570793699274 terminating
081110 110627 31 INFO dfs.FSNamesystem: BLOCK* NameSystem.addStoredBlock: blockMap updated: 10.251.194.213:50010 is added to blk_-7030770677241078854 size 67108864
081110 110627 31 INFO dfs.FSNamesystem: BLOCK* NameSystem.addStoredBlock: blockMap updated: 10.251.194.213:50010 is added to blk_7-050047762348780717 size 67108864
081110 110827 9664 INFO dfs.DataNode$PacketResponder: PacketResponder 1 for block blk_3318864983801406136 terminating
081110 110827 9664 INFO dfs.DataNode$PacketResponder: PacketResponder 1 for block blk_4339168831400366818 terminating
081110 110921 35 INFO dfs.FSNamesystem: BLOCK* NameSystem.allocateBlock: /user/root/rand/_temporary/_task_200811101024_0001_m_001197_0/part-01197. blk_-5255262711039499896
081110 110921 35 INFO dfs.FSNamesystem: BLOCK* NameSystem.allocateBlock: /user/root/rand/_temporary/_task_200811101024_0001_m_001197_0/part-01197. blk_4926-250751995328961
081110 110933 9676 INFO dfs.DataNode$DataXceiver: Receiving block blk_-3612946656596896413 src: /10.251.105.189:48488 dest: /10.251.105.189:50010
081110 110933 9676 INFO dfs.DataNode$DataXceiver: Receiving block blk_124-1389966653566496 src: /10.251.105.189:48488 dest: /10.251.105.189:50010
081110 110942 9749 INFO dfs.DataNode$PacketResponder: Received block blk_8751697793900992450 of size 67108864 from /10.251.71.16
081110 110942 9749 INFO dfs.DataNode$PacketResponder: Received block blk_1970259346598709907 of size 67108864 from /10.251.71.16
081110 111026 9675 INFO dfs.DataNode$DataXceiver: Receiving block blk_5816171803790152026 src: /10.251.194.102:43940 dest: /10.251.194.102:50010
081110 111026 9675 INFO dfs.DataNode$DataXceiver: Receiving block blk_3270295151100678618 src: /10.251.194.102:43940 dest: /10.251.194.102:50010
081110 111043 26 INFO dfs.FSNamesystem: BLOCK* NameSystem.addStoredBlock: blockMap updated: 10.251.66.192:50010 is added to blk_-6068587951382721748 size 67108864
081110 111043 26 INFO dfs.FSNamesystem: BLOCK* NameSystem.addStoredBlock: blockMap updated: 10.251.66.192:50010 is added to blk_705848677-2259318681 size 67108864
081110 111043 30 INFO dfs.FSNamesystem: BLOCK* NameSystem.allocateBlock: /user/root/rand/_temporary/_task_200811101024_0001_m_001353_0/part-01353. blk_5782729236964719738
081110 111043 30 INFO dfs.FSNamesystem: BLOCK* NameSystem.allocateBlock: /user/root/rand/_temporary/_task_200811101024_0001_m_001353_0/part-01353. blk_7839279876123726459
081110 111229 9504 INFO dfs.DataNode$PacketResponder: Received block blk_-2856928563366064757 of size 67108864 from /10.251.42.9
081110 111229 9504 INFO dfs.DataNode$PacketResponder: Received block blk_0632-867287966555634 of size 67108864 from /10.251.42.9
081110 111248 9723 INFO dfs.DataNode$PacketResponder: PacketResponder 2 for block blk_8348114876238571434 terminating
081110 111248 9723 INFO dfs.DataNode$PacketResponder: PacketResponder 2 for block blk_8815887437231461434 terminating
081110 111308 9973 INFO dfs.DataNode$DataXceiver: Receiving block blk_1744485040428751334 src: /10.250.5.237:52234 dest: /10.250.5.237:50010
081110 111308 9973 INFO dfs.DataNode$DataXceiver: Receiving block blk_4351703410452484784 src: /10.250.5.237:52234 dest: /10.250.5.237:50010
081110 111404 30 INFO dfs.FSNamesystem: BLOCK* NameSystem.allocateBlock: /user/root/rand/_temporary/_task_200811101024_0001_m_001495_0/part-01495. blk_-7592643790414500555
081110 111404 30 INFO dfs.FSNamesystem: BLOCK* NameSystem.allocateBlock: /user/root/rand/_temporary/_task_200811101024_0001_m_001495_0/part-01495. blk_20549-75565345079401
081110 111405 9848 INFO dfs.DataNode$PacketResponder: Received block blk_-5960135894031733009 of size 67108864 from /10.251.126.83
081110 111405 9848 INFO dfs.DataNode$PacketResponder: Received block blk_350103009-4918675339 of size 67108864 from /10.251.126.83
081110 111409 28 INFO dfs.FSNamesystem: BLOCK* NameSystem.addStoredBlock: blockMap updated: 10.250.14.143:50010 is added to blk_8952177028039691517 size 67108864
081110 111409 28 INFO dfs.FSNamesystem: BLOCK* NameSystem.addStoredBlock: blockMap updated: 10.250.14.143:50010 is added to blk_0758831971519722960 size 67108864
081110 111415 30 INFO dfs.FSNamesystem: BLOCK* NameSystem.addStoredBlock: blockMap updated: 10.250.13.240:50010 is added to blk_939695665085237271 size 67108864
081110 111415 30 INFO dfs.FSNamesystem: BLOCK* NameSystem.addStoredBlock: blockMap updated: 10.250.13.240:50010 is added to blk_690573596132826597 size 67108864
081110 111547 33 INFO dfs.FSNamesystem: BLOCK* NameSystem.allocateBlock: /user/root/rand/_temporary/_task_200811101024_0001_m_001587_0/part-01587. blk_6374836031306809839
081110 111547 33 INFO dfs.FSNamesystem: BLOCK* NameSystem.allocateBlock: /user/root/rand/_temporary/_task_200811101024_0001_m_001587_0/part-01587. blk_6613903839883640307
081110 111638 10033 INFO dfs.DataNode$DataXceiver: Receiving block blk_1394107495884949139 src: /10.250.10.100:33314 dest: /10.250.10.100:50010
081110 111638 10033 INFO dfs.DataNode$DataXceiver: Receiving block blk_3143891999447840591 src: /10.250.10.100:33314 dest: /10.250.10.100:50010
081110 111647 9920 INFO dfs.DataNode$PacketResponder: PacketResponder 1 for block blk_-1751996688557225241 terminating
081110 111647 9920 INFO dfs.DataNode$PacketResponder: PacketResponder 1 for block blk_9-972552814586576211 terminating
081110 111650 26 INFO dfs.FSNamesystem: BLOCK* NameSystem.addStoredBlock: blockMap updated: 10.251.127.47:50010 is added to blk_-3990317238913332296 size 67108864
081110 111650 26 INFO dfs.FSNamesystem: BLOCK* NameSystem.addStoredBlock: blockMap updated: 10.251.127.47:50010 is added to blk_317239309839622-1933 size 67108864
081110 111732 9557 INFO dfs.DataNode$PacketResponder: PacketResponder 0 for block blk_7837529475466774167 terminating
081110 111732 9557 INFO dfs.DataNode$PacketResponder: PacketResponder 0 for block blk_1477468672556797743 terminating
081110 111748 9582 INFO dfs.DataNode$DataXceiver: Receiving block blk_1057763407402503745 src: /10.251.30.134:36059 dest: /10.251.30.134:50010
081110 111748 9582 INFO dfs.DataNode$DataXceiver: Receiving block blk_7547542074073316005 src: /10.251.30.134:36059 dest: /10.251.30.134:50010
081110 111807 29 INFO dfs.FSNamesystem: BLOCK* NameSystem.addStoredBlock: blockMap updated: 10.251.67.113:50010 is added to blk_8988793695103110546 size 67108864
081110 111807 29 INFO dfs.FSNamesystem: BLOCK* NameSystem.addStoredBlock: blockMap updated: 10.251.67.113:50010 is added to blk_4807831639995516081 size 67108864
081110 111826 9879 INFO dfs.DataNode$PacketResponder: Received block blk_-5340841684362207777 of size 67108864 from /10.251.198.33
081110 111826 9879 INFO dfs.DataNode$PacketResponder: Received block blk_13866745-73227804740 of size 67108864 from /10.251.198.33
081110 111909 31 INFO dfs.FSNamesystem: BLOCK* NameSystem.addStoredBlock: blockMap updated: 10.251.123.99:50010 is added to blk_-2600305892036631113 size 67108864
081110 111909 31 INFO dfs.FSNamesystem: BLOCK* NameSystem.addStoredBlock: blockMap updated: 10.251.123.99:50010 is added to blk_063132930105683106-2 size 67108864
081110 111958 26 INFO dfs.FSNamesystem: BLOCK* NameSystem.addStoredBlock: blockMap updated: 10.251.107.19:50010 is added to blk_-2144263949276079479 size 3547172
081110 111958 26 INFO dfs.FSNamesystem: BLOCK* NameSystem.addStoredBlock: blockMap updated: 10.251.107.19:50010 is added to blk_72621049479497-36429 size 3547172
081110 112055 10002 INFO dfs.DataNode$DataXceiver: Receiving block blk_-6927870228542972281 src: /10.250.7.230:41059 dest: /10.250.7.230:50010
081110 112055 10002 INFO dfs.DataNode$DataXceiver: Receiving block blk_1272672-279820882495 src: /10.250.7.230:41059 dest: /10.250.7.230:50010
081110 112152 9621 INFO dfs.DataNode$PacketResponder: PacketResponder 0 for block blk_6610244864386894422 terminating
081110 112152 9621 INFO dfs.DataNode$PacketResponder: PacketResponder 0 for block blk_2489643480642248661 terminating
081110 112155 13 INFO dfs.DataBlockScanner: Verification succeeded for blk_774612454978154966
081110 112155 13 INFO dfs.DataBlockScanner: Verification succeeded for blk_941417764529647865
081110 112234 9888 INFO dfs.DataNode$DataXceiver: Receiving block blk_6672666770563118759 src: /10.251.71.68:44457 dest: /10.251.71.68:50010
081110 112234 9888 INFO dfs.DataNode$DataXceiver: Receiving block blk_6666927015877365716 src: /10.251.71.68:44457 dest: /10.251.71.68:50010
081110 112310 9858 INFO dfs.DataNode$DataXceiver: Receiving block blk_4783621682384104986 src: /10.251.193.224:52556 dest: /10.251.193.224:50010
081110 112310 9858 INFO dfs.DataNode$DataXceiver: Receiving block blk_6463248673241188890 src: /10.251.193.224:52556 dest: /10.251.193.224:50010
081110 112324 9997 INFO dfs.DataNode$PacketResponder: PacketResponder 0 for block blk_-1387034299358896632 terminating
081110 112324 9997 INFO dfs.DataNode$PacketResponder: PacketResponder 0 for block blk_47230326-83896193589 terminating
081110 112448 27 INFO dfs.FSNamesystem: BLOCK* NameSystem.addStoredBlock: blockMap updated: 10.251.111.228:50010 is added to blk_-5012639079435860269 size 67108864
081110 112448 27 INFO dfs.FSNamesystem: BLOCK* NameSystem.addStoredBlock: blockMap updated: 10.251.111.228:50010 is added to blk_16690-26059295043378 size 67108864
081110 112511 10021 INFO dfs.DataNode$PacketResponder: Received block blk_5600017220681756254 of size 67108864 from /10.251.214.130
081110 112511 10021 INFO dfs.DataNode$PacketResponder: Received block blk_2270540050686167125 of size 67108864 from /10.251.214.130
081110 112516 10267 INFO dfs.DataNode$DataXceiver: Receiving block blk_8235751201501175836 src: /10.250.11.194:37449 dest: /10.250.11.194:50010
081110 112516 10267 INFO dfs.DataNode$DataXceiver: Receiving block blk_2518310105562771538 src: /10.250.11.194:37449 dest: /10.250.11.194:50010
081110 112615 9713 INFO dfs.DataNode$DataXceiver: Receiving block blk_-8838161455213213548 src: /10.251.199.150:58165 dest: /10.251.199.150:50010
081110 112615 9713 INFO dfs.DataNode$DataXceiver: Receiving block blk_81358453142326-85811 src: /10.251.199.150:58165 dest: /10.251.199.150:50010
081110 112629 10027 INFO dfs.DataNode$PacketResponder: Received block blk_-3741526967786688540 of size 67108864 from /10.251.74.79
081110 112629 10027 INFO dfs.DataNode$PacketResponder: Received block blk_7548682846315-796076 of size 67108864 from /10.251.74.79
081110 112653 10042 INFO dfs.DataNode$PacketResponder: Received block blk_120277101968534224 of size 67108864 from /10.251.122.65
081110 112653 10042 INFO dfs.DataNode$PacketResponder: Received block blk_800147712649532221 of size 67108864 from /10.251.122.65
081110 112716 9992 INFO dfs.DataNode$DataXceiver: Receiving block blk_7535677865140289610 src: /10.251.26.131:47660 dest: /10.251.26.131:50010
081110 112716 9992 INFO dfs.DataNode$DataXceiver: Receiving block blk_7762107566885341590 src: /10.251.26.131:47660 dest: /10.251.26.131:50010
081110 112739 10109 INFO dfs.DataNode$PacketResponder: Received block blk_-5814328448485070742 of size 67108864 from /10.251.74.134
081110 112739 10109 INFO dfs.DataNode$PacketResponder: Received block blk_524784348718-5400824 of size 67108864 from /10.251.74.134
081110 112744 28 INFO dfs.FSNamesystem: BLOCK* NameSystem.addStoredBlock: blockMap updated: 10.250.10.100:50010 is added to blk_1021828391502582165 size 67108864
081110 112744 28 INFO dfs.FSNamesystem: BLOCK* NameSystem.addStoredBlock: blockMap updated: 10.250.10.100:50010 is added to blk_1020351588652121829 size 67108864
081110 112807 35 INFO dfs.FSNamesystem: BLOCK* NameSystem.addStoredBlock: blockMap updated: 10.251.38.53:50010 is added to blk_3202507081359904616 size 67108864
081110 112807 35 INFO dfs.FSNamesystem: BLOCK* NameSystem.addStoredBlock: blockMap updated: 10.251.38.53:50010 is added to blk_0056332291601085974 size 67108864
081110 113017 10093 INFO dfs.DataNode$DataXceiver: Receiving block blk_102441832197223997 src: /10.251.123.195:49611 dest: /10.251.123.195:50010
081110 113017 10093 INFO dfs.DataNode$DataXceiver: Receiving block blk_424192373119792208 src: /10.251.123.195:49611 dest: /10.251.123.195:50010
081110 113407 10381 INFO dfs.DataNode$PacketResponder: Received block blk_3242229894054064344 of size 3540106 from /10.250.15.240
081110 113407 10381 INFO dfs.DataNode$PacketResponder: Received block blk_4804492039546224243 of size 3540106 from /10.250.15.240
081110 113636 19 INFO dfs.FSDataset: Deleting block blk_-7601381921195183756 file /mnt/hadoop/dfs/data/current/subdir48/blk_-7601381921195183756
081110 113636 19 INFO dfs.FSDataset: Deleting block blk_11181035627159-83796 file /mnt/hadoop/dfs/data/current/subdir48/blk_-1731156592889671031
081110 113919 10209 INFO dfs.DataNode$PacketResponder: Received block blk_2157471834570224881 of size 67108864 from /10.251.126.22
081110 113919 10209 INFO dfs.DataNode$PacketResponder: Received block blk_1420525247348817178 of size 67108864 from /10.251.126.22
081110 113952 10299 INFO dfs.DataNode$PacketResponder: Received block blk_-7029628814943626474 of size 67108864 from /10.250.7.230
081110 113952 10299 INFO dfs.DataNode$PacketResponder: Received block blk_2130448626678-924749 of size 67108864 from /10.250.7.230
081110 113955 10279 INFO dfs.DataNode$DataXceiver: Receiving block blk_-931590117143327078 src: /10.251.42.191:44480 dest: /10.251.42.191:50010
081110 113955 10279 INFO dfs.DataNode$DataXceiver: Receiving block blk_7127180510939334-17 src: /10.251.42.191:44480 dest: /10.251.42.191:50010
081110 114005 10102 INFO dfs.DataNode$PacketResponder: PacketResponder 1 for block blk_4967492069970766092 terminating
081110 114005 10102 INFO dfs.DataNode$PacketResponder: PacketResponder 1 for block blk_7649672960749090296 terminating
081110 114019 10028 INFO dfs.DataNode$PacketResponder: PacketResponder 2 for block blk_-1485317050914225917 terminating
081110 114019 10028 INFO dfs.DataNode$PacketResponder: PacketResponder 2 for block blk_51154137-92724580910 terminating
081110 114020 10232 INFO dfs.DataNode$DataXceiver: Receiving block blk_1727371778357941761 src: /10.251.126.255:42844 dest: /10.251.126.255:50010
081110 114020 10232 INFO dfs.DataNode$DataXceiver: Receiving block blk_9312767771517784371 src: /10.251.126.255:42844 dest: /10.251.126.255:50010
081110 114119 34 INFO dfs.FSNamesystem: BLOCK* NameSystem.addStoredBlock: blockMap updated: 10.251.26.177:50010 is added to blk_-2402036602753320612 size 67108864
081110 114119 34 INFO dfs.FSNamesystem: BLOCK* NameSystem.addStoredBlock: blockMap updated: 10.251.26.177:50010 is added to blk_3022013346-275600226 size 67108864
081110 114144 10436 INFO dfs.DataNode$PacketResponder: Received block blk_-1849105860762445186 of size 67108864 from /10.251.91.229
081110 114144 10436 INFO dfs.DataNode$PacketResponder: Received block blk_818051246495-0664718 of size 67108864 from /10.251.91.229
081110 114231 10363 INFO dfs.DataNode$DataXceiver: Receiving block blk_-7820996703068538967 src: /10.251.35.1:59569 dest: /10.251.35.1:50010
081110 114231 10363 INFO dfs.DataNode$DataXceiver: Receiving block blk_937858007-7689902636 src: /10.251.35.1:59569 dest: /10.251.35.1:50010
081110 114309 29 INFO dfs.FSNamesystem: BLOCK* NameSystem.allocateBlock: /user/root/randtxt2/_temporary/_task_200811101024_0002_m_000299_0/part-00299. blk_4984150784048864430
081110 114309 29 INFO dfs.FSNamesystem: BLOCK* NameSystem.allocateBlock: /user/root/randtxt2/_temporary/_task_200811101024_0002_m_000299_0/part-00299. blk_0445881084494768043
081110 114315 10226 INFO dfs.DataNode$PacketResponder: Received block blk_1646909113279517647 of size 67108864 from /10.251.214.130
081110 114315 10226 INFO dfs.DataNode$PacketResponder: Received block blk_1193665726190474179 of size 67108864 from /10.251.214.130
081110 114319 33 INFO dfs.FSNamesystem: BLOCK* NameSystem.addStoredBlock: blockMap updated: 10.251.25.237:50010 is added to blk_-8145226289286457574 size 67108864
081110 114319 33 INFO dfs.FSNamesystem: BLOCK* NameSystem.addStoredBlock: blockMap updated: 10.251.25.237:50010 is added to blk_766-4578295824225814 size 67108864
081110 114347 35 INFO dfs.FSNamesystem: BLOCK* NameSystem.addStoredBlock: blockMap updated: 10.251.214.18:50010 is added to blk_5809900021002850724 size 67108864
081110 114347 35 INFO dfs.FSNamesystem: BLOCK* NameSystem.addStoredBlock: blockMap updated: 10.251.214.18:50010 is added to blk_9000048855917020022 size 67108864
081110 114354 10356 INFO dfs.DataNode$DataXceiver: Receiving block blk_2735034460607366827 src: /10.251.91.15:57370 dest: /10.251.91.15:50010
081110 114354 10356 INFO dfs.DataNode$DataXceiver: Receiving block blk_0527447802063637636 src: /10.251.91.15:57370 dest: /10.251.91.15:50010
081110 114357 10454 INFO dfs.DataNode$DataXceiver: Receiving block blk_-7486746679002157277 src: /10.251.42.207:57669 dest: /10.251.42.207:50010
081110 114357 10454 INFO dfs.DataNode$DataXceiver: Receiving block blk_17046426677257709-78 src: /10.251.42.207:57669 dest: /10.251.42.207:50010
081110 114449 10421 INFO dfs.DataNode$DataXceiver: Receiving block blk_-8876879715755468215 src: /10.251.111.80:43834 dest: /10.251.111.80:50010
081110 114449 10421 INFO dfs.DataNode$DataXceiver: Receiving block blk_7585618877955-217684 src: /10.251.111.80:43834 dest: /10.251.111.80:50010
081110 114454 30 INFO dfs.FSNamesystem: BLOCK* NameSystem.allocateBlock: /user/root/randtxt2/_temporary/_task_200811101024_0002_m_000054_0/part-00054. blk_-4139299269696044017
081110 114454 30 INFO dfs.FSNamesystem: BLOCK* NameSystem.allocateBlock: /user/root/randtxt2/_temporary/_task_200811101024_0002_m_000054_0/part-00054. blk_23799014496-91629604
081110 114504 10561 INFO dfs.DataNode$DataXceiver: Receiving block blk_591323161994959677 src: /10.251.195.33:50123 dest: /10.251.195.33:50010
081110 114504 10561 INFO dfs.DataNode$DataXceiver: Receiving block blk_919359436256911797 src: /10.251.195.33:50123 dest: /10.251.195.33:50010
081110 114637 10468 INFO dfs.DataNode$PacketResponder: PacketResponder 1 for block blk_-5828360070550196756 terminating
081110 114637 10468 INFO dfs.DataNode$PacketResponder: PacketResponder 1 for block blk_6635180097672-505580 terminating
081110 114717 10303 INFO dfs.DataNode$PacketResponder: PacketResponder 2 for block blk_-7683667795522321323 terminating
081110 114717 10303 INFO dfs.DataNode$PacketResponder: PacketResponder 2 for block blk_587769226567-3123323 terminating
081110 114724 10433 INFO dfs.DataNode$DataXceiver: Receiving block blk_7733243482102436613 src: /10.250.6.223:34069 dest: /10.250.6.223:50010
081110 114724 10433 INFO dfs.DataNode$DataXceiver: Receiving block blk_7331013822764244363 src: /10.250.6.223:34069 dest: /10.250.6.223:50010
081110 114738 10395 INFO dfs.DataNode$DataXceiver: Receiving block blk_2980964138205299397 src: /10.251.110.196:53450 dest: /10.251.110.196:50010
081110 114738 10395 INFO dfs.DataNode$DataXceiver: Receiving block blk_1972265989089934032 src: /10.251.110.196:53450 dest: /10.251.110.196:50010
081110 115017 31 INFO dfs.FSNamesystem: BLOCK* NameSystem.addStoredBlock: blockMap updated: 10.251.127.191:50010 is added to blk_1589878256898761558 size 67108864
081110 115017 31 INFO dfs.FSNamesystem: BLOCK* NameSystem.addStoredBlock: blockMap updated: 10.251.127.191:50010 is added to blk_6527588518988156897 size 67108864
081110 115202 10582 INFO dfs.DataNode$DataXceiver: Receiving block blk_-2746863406163228797 src: /10.251.39.160:35642 dest: /10.251.39.160:50010
081110 115202 10582 INFO dfs.DataNode$DataXceiver: Receiving block blk_6274368132604276-987 src: /10.251.39.160:35642 dest: /10.251.39.160:50010
081110 115204 10569 INFO dfs.DataNode$DataXceiver: Receiving block blk_3067558337579347170 src: /10.250.6.191:34137 dest: /10.250.6.191:50010
081110 115204 10569 INFO dfs.DataNode$DataXceiver: Receiving block blk_3075369057857337147 src: /10.250.6.191:34137 dest: /10.250.6.191:50010
081110 115226 10579 INFO dfs.DataNode$DataXceiver: Receiving block blk_8992894896370738220 src: /10.251.43.210:54766 dest: /10.251.43.210:50010
081110 115226 10579 INFO dfs.DataNode$DataXceiver: Receiving block blk_2983962370702889489 src: /10.251.43.210:54766 dest: /10.251.43.210:50010
081110 115408 10446 INFO dfs.DataNode$DataXceiver: Receiving block blk_-7230947007726948080 src: /10.251.29.239:53564 dest: /10.251.29.239:50010
081110 115408 10446 INFO dfs.DataNode$DataXceiver: Receiving block blk_47783960000272-84907 src: /10.251.29.239:53564 dest: /10.251.29.239:50010
081110 115526 10492 INFO dfs.DataNode$DataXceiver: Receiving block blk_1869228153483717375 src: /10.251.203.4:56599 dest: /10.251.203.4:50010
081110 115526 10492 INFO dfs.DataNode$DataXceiver: Receiving block blk_2871865753143387129 src: /10.251.203.4:56599 dest: /10.251.203.4:50010
081110 115614 28 INFO dfs.FSNamesystem: BLOCK* NameSystem.addStoredBlock: blockMap updated: 10.251.65.203:50010 is added to blk_-3949633496933134307 size 67108864
081110 115614 28 INFO dfs.FSNamesystem: BLOCK* NameSystem.addStoredBlock: blockMap updated: 10.251.65.203:50010 is added to blk_371-3396999043334364 size 67108864
081110 115700 10671 INFO dfs.DataNode$PacketResponder: PacketResponder 1 for block blk_-8745453424063341007 terminating
081110 115700 10671 INFO dfs.DataNode$PacketResponder: PacketResponder 1 for block blk_433754245-3480604071 terminating
081110 115734 10668 INFO dfs.DataNode$PacketResponder: Received block blk_-2117066166574895060 of size 67108864 from /10.251.73.188
081110 115734 10668 INFO dfs.DataNode$PacketResponder: Received block blk_69270706811651-06654 of size 67108864 from /10.251.73.188
081110 115737 27 INFO dfs.FSNamesystem: BLOCK* NameSystem.addStoredBlock: blockMap updated: 10.251.195.33:50010 is added to blk_512039711533506696 size 67108864
081110 115737 27 INFO dfs.FSNamesystem: BLOCK* NameSystem.addStoredBlock: blockMap updated: 10.251.195.33:50010 is added to blk_361566531729015093 size 67108864
081110 115742 10672 INFO dfs.DataNode$PacketResponder: PacketResponder 1 for block blk_6017354285686373326 terminating
081110 115742 10672 INFO dfs.DataNode$PacketResponder: PacketResponder 1 for block blk_6367027331823654685 terminating
081110 115804 32 INFO dfs.FSNamesystem: BLOCK* NameSystem.addStoredBlock: blockMap updated: 10.251.126.83:50010 is added to blk_5176855630425795751 size 67108864
081110 115804 32 INFO dfs.FSNamesystem: BLOCK* NameSystem.addStoredBlock: blockMap updated: 10.251.126.83:50010 is added to blk_1860457551759632575 size 67108864
081110 115934 10597 INFO dfs.DataNode$PacketResponder: Received block blk_-4433556521525567493 of size 28492032 from /10.250.6.4
081110 115934 10597 INFO dfs.DataNode$PacketResponder: Received block blk_2545429-735643515563 of size 28492032 from /10.250.6.4
081110 120103 10778 INFO dfs.DataNode$PacketResponder: PacketResponder 2 for block blk_-5321676321043683563 terminating
081110 120103 10778 INFO dfs.DataNode$PacketResponder: PacketResponder 2 for block blk_53603656427162313-83 terminating
081110 120139 10638 INFO dfs.DataNode$PacketResponder: PacketResponder 1 for block blk_-357695136519539363 terminating
081110 120139 10638 INFO dfs.DataNode$PacketResponder: PacketResponder 1 for block blk_3679531165-93639355 terminating
081110 120233 27 INFO dfs.FSNamesystem: BLOCK* NameSystem.addStoredBlock: blockMap updated: 10.251.111.37:50010 is added to blk_-7603740654202748654 size 67108864
081110 120233 27 INFO dfs.FSNamesystem: BLOCK* NameSystem.addStoredBlock: blockMap updated: 10.251.111.37:50010 is added to blk_362700-2084644477655 size 67108864
081110 120246 10414 INFO dfs.DataNode$PacketResponder: PacketResponder 1 for block blk_1279439901767890758 terminating
081110 120246 10414 INFO dfs.DataNode$PacketResponder: PacketResponder 1 for block blk_9301816754779028979 terminating
081110 120247 10427 INFO dfs.DataNode$DataXceiver: Receiving block blk_8942969309743886844 src: /10.251.110.68:58266 dest: /10.251.110.68:50010
081110 120247 10427 INFO dfs.DataNode$DataXceiver: Receiving block blk_8449624836887990439 src: /10.251.110.68:58266 dest: /10.251.110.68:50010
081110 120247 10525 INFO dfs.DataNode$PacketResponder: Received block blk_469871968689793326 of size 67108864 from /10.251.30.179
081110 120247 10525 INFO dfs.DataNode$PacketResponder: Received block blk_976968861746893239 of size 67108864 from /10.251.30.179
081110 120410 35 INFO dfs.FSNamesystem: BLOCK* NameSystem.allocateBlock: /user/root/randtxt2/_temporary/_task_200811101024_0002_m_001080_0/part-01080. blk_2847401988110989655
081110 120410 35 INFO dfs.FSNamesystem: BLOCK* NameSystem.allocateBlock: /user/root/randtxt2/_temporary/_task_200811101024_0002_m_001080_0/part-01080. blk_0249597180581981846
081110 120429 29 INFO dfs.FSNamesystem: BLOCK* NameSystem.addStoredBlock: blockMap updated: 10.251.197.226:50010 is added to blk_4307207852226914003 size 67108864
081110 120429 29 INFO dfs.FSNamesystem: BLOCK* NameSystem.addStoredBlock: blockMap updated: 10.251.197.226:50010 is added to blk_0410982235432720607 size 67108864
081110 120516 31 INFO dfs.FSNamesystem: BLOCK* NameSystem.addStoredBlock: blockMap updated: 10.251.73.220:50010 is added to blk_3506875694435075421 size 67108864
081110 120516 31 INFO dfs.FSNamesystem: BLOCK* NameSystem.addStoredBlock: blockMap updated: 10.251.73.220:50010 is added to blk_4568047625135057943 size 67108864
081110 120524 26 INFO dfs.FSNamesystem: BLOCK* NameSystem.addStoredBlock: blockMap updated: 10.251.202.134:50010 is added to blk_-4945182943709543868 size 67108864
081110 120524 26 INFO dfs.FSNamesystem: BLOCK* NameSystem.addStoredBlock: blockMap updated: 10.251.202.134:50010 is added to blk_4184838464297950395- size 67108864
081110 120621 32 INFO dfs.FSNamesystem: BLOCK* NameSystem.allocateBlock: /user/root/randtxt2/_temporary/_task_200811101024_0002_m_000809_0/part-00809. blk_7550266985912909372
081110 120621 32 INFO dfs.FSNamesystem: BLOCK* NameSystem.allocateBlock: /user/root/randtxt2/_temporary/_task_200811101024_0002_m_000809_0/part-00809. blk_2556577269909210398
081110 120718 34 INFO dfs.FSNamesystem: BLOCK* NameSystem.addStoredBlock: blockMap updated: 10.251.215.192:50010 is added to blk_-4619809198345103330 size 67108864
081110 120718 34 INFO dfs.FSNamesystem: BLOCK* NameSystem.addStoredBlock: blockMap updated: 10.251.215.192:50010 is added to blk_3931100410393684589- size 67108864
081110 120807 10546 INFO dfs.DataNode$PacketResponder: Received block blk_4614530673206341566 of size 67108864 from /10.251.91.229
081110 120807 10546 INFO dfs.DataNode$PacketResponder: Received block blk_3145674646650203613 of size 67108864 from /10.251.91.229
081110 120857 29 INFO dfs.FSNamesystem: BLOCK* NameSystem.addStoredBlock: blockMap updated: 10.251.201.204:50010 is added to blk_6125469222540396851 size 67108864
081110 120857 29 INFO dfs.FSNamesystem: BLOCK* NameSystem.addStoredBlock: blockMap updated: 10.251.201.204:50010 is added to blk_2592866613514504229 size 67108864
081110 120931 10872 INFO dfs.DataNode$DataXceiver: Receiving block blk_6868050965297613251 src: /10.251.201.204:47734 dest: /10.251.201.204:50010
081110 120931 10872 INFO dfs.DataNode$DataXceiver: Receiving block blk_6552002816169986735 src: /10.251.201.204:47734 dest: /10.251.201.204:50010
081110 121045 10833 INFO dfs.DataNode$DataXceiver: Receiving block blk_-7266711648018793699 src: /10.251.31.242:47086 dest: /10.251.31.242:50010
081110 121045 10833 INFO dfs.DataNode$DataXceiver: Receiving block blk_4380271686697916197- src: /10.251.31.242:47086 dest: /10.251.31.242:50010
081110 121136 10865 INFO dfs.DataNode$DataXceiver: Receiving block blk_9146254623576405494 src: /10.250.7.146:60294 dest: /10.250.7.146:50010
081110 121136 10865 INFO dfs.DataNode$DataXceiver: Receiving block blk_0454627444591536926 src: /10.250.7.146:60294 dest: /10.250.7.146:50010
081110 121153 10880 INFO dfs.DataNode$PacketResponder: Received block blk_-6966935672736779591 of size 67108864 from /10.251.90.64
081110 121153 10880 INFO dfs.DataNode$PacketResponder: Received block blk_-7567997769392513666 of size 67108864 from /10.251.90.64
081110 121156 11034 INFO dfs.DataNode$DataXceiver: Receiving block blk_-7411687001739959508 src: /10.251.122.65:46080 dest: /10.251.122.65:50010
081110 121156 11034 INFO dfs.DataNode$DataXceiver: Receiving block blk_997375-8045986011107 src: /10.251.122.65:46080 dest: /10.251.122.65:50010
081110 121202 11005 INFO dfs.DataNode$PacketResponder: PacketResponder 2 for block blk_6514181997629420906 terminating
081110 121202 11005 INFO dfs.DataNode$PacketResponder: PacketResponder 2 for block blk_7612116598902099464 terminating
081110 121248 10737 INFO dfs.DataNode$DataXceiver: Receiving block blk_-4434479572312007079 src: /10.251.30.101:60539 dest: /10.251.30.101:50010
081110 121248 10737 INFO dfs.DataNode$DataXceiver: Receiving block blk_0217404-407957237439 src: /10.251.30.101:60539 dest: /10.251.30.101:50010
081110 121402 10935 INFO dfs.DataNode$PacketResponder: PacketResponder 1 for block blk_-3339018122410311668 terminating
081110 121402 10935 INFO dfs.DataNode$PacketResponder: PacketResponder 1 for block blk_9168113811403302-632 terminating
081110 121647 30 INFO dfs.FSNamesystem: BLOCK* NameSystem.addStoredBlock: blockMap updated: 10.251.91.32:50010 is added to blk_5272761429354463572 size 67108864
081110 121647 30 INFO dfs.FSNamesystem: BLOCK* NameSystem.addStoredBlock: blockMap updated: 10.251.91.32:50010 is added to blk_4637552772541362942 size 67108864
081110 121711 11025 INFO dfs.DataNode$PacketResponder: PacketResponder 2 for block blk_-1680563440028826904 terminating
081110 121711 11025 INFO dfs.DataNode$PacketResponder: PacketResponder 2 for block blk_0584360-206049481268 terminating
081110 121758 10889 INFO dfs.DataNode$PacketResponder: Received block blk_-5671206752084326639 of size 67108864 from /10.251.214.67
081110 121758 10889 INFO dfs.DataNode$PacketResponder: Received block blk_5763209-624861073625 of size 67108864 from /10.251.214.67
081110 121758 13 INFO dfs.DataBlockScanner: Verification succeeded for blk_1649162819905816843
081110 121758 13 INFO dfs.DataBlockScanner: Verification succeeded for blk_8296089439111866541
081110 121943 29 INFO dfs.FSNamesystem: BLOCK* NameSystem.allocateBlock: /user/root/randtxt2/_temporary/_task_200811101024_0002_m_001335_0/part-01335. blk_-2541428592126088938
081110 121943 29 INFO dfs.FSNamesystem: BLOCK* NameSystem.allocateBlock: /user/root/randtxt2/_temporary/_task_200811101024_0002_m_001335_0/part-01335. blk_82218484952-92083516
081110 121951 30 INFO dfs.FSNamesystem: BLOCK* NameSystem.addStoredBlock: blockMap updated: 10.251.66.3:50010 is added to blk_6547729596040509998 size 67108864
081110 121951 30 INFO dfs.FSNamesystem: BLOCK* NameSystem.addStoredBlock: blockMap updated: 10.251.66.3:50010 is added to blk_9094592690477586590 size 67108864
081110 122121 10760 INFO dfs.DataNode$DataXceiver: Receiving block blk_-3673133694834392576 src: /10.251.109.209:49088 dest: /10.251.109.209:50010
081110 122121 10760 INFO dfs.DataNode$DataXceiver: Receiving block blk_386153464-9723336379 src: /10.251.109.209:49088 dest: /10.251.109.209:50010
081110 122207 11264 INFO dfs.DataNode$PacketResponder: Received block blk_48742413802609430 of size 67108864 from /10.251.106.10
081110 122207 11264 INFO dfs.DataNode$PacketResponder: Received block blk_64489023084432701 of size 67108864 from /10.251.106.10
081110 122210 11081 INFO dfs.DataNode$DataXceiver: Receiving block blk_6085274723649229095 src: /10.251.127.191:51113 dest: /10.251.127.191:50010
081110 122210 11081 INFO dfs.DataNode$DataXceiver: Receiving block blk_5690895497620227243 src: /10.251.127.191:51113 dest: /10.251.127.191:50010
081110 122309 11240 INFO dfs.DataNode$PacketResponder: Received block blk_-227411387418683230 of size 67108864 from /10.251.194.213
081110 122309 11240 INFO dfs.DataNode$PacketResponder: Received block blk_3873102278-43612814 of size 67108864 from /10.251.194.213
081110 122314 29 INFO dfs.FSNamesystem: BLOCK* NameSystem.addStoredBlock: blockMap updated: 10.251.31.160:50010 is added to blk_3079488924320077240 size 67108864
081110 122314 29 INFO dfs.FSNamesystem: BLOCK* NameSystem.addStoredBlock: blockMap updated: 10.251.31.160:50010 is added to blk_0724029743090788432 size 67108864
081110 122407 11042 INFO dfs.DataNode$PacketResponder: Received block blk_692184983396207285 of size 67108864 from /10.250.6.214
081110 122407 11042 INFO dfs.DataNode$PacketResponder: Received block blk_199496375802832682 of size 67108864 from /10.250.6.214
081110 122444 30 INFO dfs.FSNamesystem: BLOCK* NameSystem.addStoredBlock: blockMap updated: 10.251.66.102:50010 is added to blk_-5009274684359267777 size 67108864
081110 122444 30 INFO dfs.FSNamesystem: BLOCK* NameSystem.addStoredBlock: blockMap updated: 10.251.66.102:50010 is added to blk_84-73262067599754077 size 67108864
081110 122607 11193 INFO dfs.DataNode$PacketResponder: Received block blk_2599050023684318911 of size 67108864 from /10.251.106.10
081110 122607 11193 INFO dfs.DataNode$PacketResponder: Received block blk_0115093912068983542 of size 67108864 from /10.251.106.10
081110 122609 26 INFO dfs.FSNamesystem: BLOCK* NameSystem.addStoredBlock: blockMap updated: 10.251.123.195:50010 is added to blk_3911263675181899748 size 67108864
081110 122609 26 INFO dfs.FSNamesystem: BLOCK* NameSystem.addStoredBlock: blockMap updated: 10.251.123.195:50010 is added to blk_1191258988637467391 size 67108864
081110 122630 10903 INFO dfs.DataNode$DataXceiver: Receiving block blk_5641239200978828454 src: /10.251.42.9:51808 dest: /10.251.42.9:50010
081110 122630 10903 INFO dfs.DataNode$DataXceiver: Receiving block blk_4934584085216722908 src: /10.251.42.9:51808 dest: /10.251.42.9:50010
081110 122648 11281 INFO dfs.DataNode$DataXceiver: Receiving block blk_-8852638972311349374 src: /10.251.107.227:46913 dest: /10.251.107.227:50010
081110 122648 11281 INFO dfs.DataNode$DataXceiver: Receiving block blk_81333945732872981-46 src: /10.251.107.227:46913 dest: /10.251.107.227:50010
081110 122702 11168 INFO dfs.DataNode$DataXceiver: Receiving block blk_-719498947487451844 src: /10.251.125.193:52079 dest: /10.251.125.193:50010
081110 122702 11168 INFO dfs.DataNode$DataXceiver: Receiving block blk_44474978919451-7848 src: /10.251.125.193:52079 dest: /10.251.125.193:50010
081110 122717 27 INFO dfs.FSNamesystem: BLOCK* NameSystem.addStoredBlock: blockMap updated: 10.251.66.63:50010 is added to blk_-3170270010972115378 size 67108864
081110 122717 27 INFO dfs.FSNamesystem: BLOCK* NameSystem.addStoredBlock: blockMap updated: 10.251.66.63:50010 is added to blk_07-81112050177320739 size 67108864
081110 122719 11316 INFO dfs.DataNode$DataXceiver: Receiving block blk_6988110707613820142 src: /10.251.123.132:47658 dest: /10.251.123.132:50010
081110 122719 11316 INFO dfs.DataNode$DataXceiver: Receiving block blk_0081210463692817871 src: /10.251.123.132:47658 dest: /10.251.123.132:50010
081110 123008 11210 INFO dfs.DataNode$PacketResponder: PacketResponder 1 for block blk_-1490623381339215624 terminating
081110 123008 11210 INFO dfs.DataNode$PacketResponder: PacketResponder 1 for block blk_4309966812335-341221 terminating
081110 123012 10997 INFO dfs.DataNode$DataXceiver: Receiving block blk_-2192382893903170466 src: /10.251.201.204:36915 dest: /10.251.201.204:50010
081110 123012 10997 INFO dfs.DataNode$DataXceiver: Receiving block blk_939241-1360238827096 src: /10.251.201.204:36915 dest: /10.251.201.204:50010
081110 123040 26 INFO dfs.FSNamesystem: BLOCK* NameSystem.addStoredBlock: blockMap updated: 10.251.203.149:50010 is added to blk_-6247364168500873179 size 67108864
081110 123040 26 INFO dfs.FSNamesystem: BLOCK* NameSystem.addStoredBlock: blockMap updated: 10.251.203.149:50010 is added to blk_630460838751277614-9 size 67108864
081110 123114 33 INFO dfs.FSNamesystem: BLOCK* NameSystem.addStoredBlock: blockMap updated: 10.251.125.237:50010 is added to blk_4234385041723406944 size 67108864
081110 123114 33 INFO dfs.FSNamesystem: BLOCK* NameSystem.addStoredBlock: blockMap updated: 10.251.125.237:50010 is added to blk_8424423040941734365 size 67108864
081110 123132 11170 INFO dfs.DataNode$PacketResponder: Received block blk_8968608251219902913 of size 67108864 from /10.251.195.52
081110 123132 11170 INFO dfs.DataNode$PacketResponder: Received block blk_9082913912856618209 of size 67108864 from /10.251.195.52
081110 123237 30 INFO dfs.FSNamesystem: BLOCK* NameSystem.addStoredBlock: blockMap updated: 10.250.10.100:50010 is added to blk_-8502460962248995911 size 28489733
081110 123237 30 INFO dfs.FSNamesystem: BLOCK* NameSystem.addStoredBlock: blockMap updated: 10.250.10.100:50010 is added to blk_6592-581964102409289 size 28489733
081110 123252 11126 INFO dfs.DataNode$PacketResponder: Received block blk_-1201318815778694289 of size 67108864 from /10.251.194.147
081110 123252 11126 INFO dfs.DataNode$PacketResponder: Received block blk_40128979256-83871118 of size 67108864 from /10.251.194.147
081110 123252 11243 INFO dfs.DataNode$PacketResponder: Received block blk_-9089815063425241739 of size 67108864 from /10.251.126.255
081110 123252 11243 INFO dfs.DataNode$PacketResponder: Received block blk_-5807389293446021195 of size 67108864 from /10.251.126.255
081110 123309 29 INFO dfs.FSNamesystem: BLOCK* NameSystem.addStoredBlock: blockMap updated: 10.251.214.32:50010 is added to blk_1389634598105954660 size 67108864
081110 123309 29 INFO dfs.FSNamesystem: BLOCK* NameSystem.addStoredBlock: blockMap updated: 10.251.214.32:50010 is added to blk_0843650659435618919 size 67108864
081110 123401 10856 INFO dfs.DataNode$PacketResponder: Received block blk_557803157214911261 of size 67108864 from /10.251.198.196
081110 123401 10856 INFO dfs.DataNode$PacketResponder: Received block blk_042167113555921187 of size 67108864 from /10.251.198.196
081110 123453 27 INFO dfs.FSNamesystem: BLOCK* NameSystem.addStoredBlock: blockMap updated: 10.251.42.9:50010 is added to blk_-1435656632270396446 size 28490269
081110 123453 27 INFO dfs.FSNamesystem: BLOCK* NameSystem.addStoredBlock: blockMap updated: 10.251.42.9:50010 is added to blk_2516963604326635447- size 28490269
081110 123517 11398 INFO dfs.DataNode$PacketResponder: PacketResponder 2 for block blk_7345322407792942877 terminating
081110 123517 11398 INFO dfs.DataNode$PacketResponder: PacketResponder 2 for block blk_4448722520279373779 terminating
081110 123541 11406 INFO dfs.DataNode$PacketResponder: PacketResponder 1 for block blk_-8939321760994370713 terminating
081110 123541 11406 INFO dfs.DataNode$PacketResponder: PacketResponder 1 for block blk_83797437-39023161909 terminating
081110 123543 11010 INFO dfs.DataNode$PacketResponder: PacketResponder 0 for block blk_3958940914408609637 terminating
081110 123543 11010 INFO dfs.DataNode$PacketResponder: PacketResponder 0 for block blk_9890654014387309946 terminating
081110 123726 30 INFO dfs.FSNamesystem: BLOCK* NameSystem.allocateBlock: /user/root/randtxt2/_temporary/_task_200811101024_0002_m_001968_1/part-01968. blk_5106303344783117537
081110 123726 30 INFO dfs.FSNamesystem: BLOCK* NameSystem.allocateBlock: /user/root/randtxt2/_temporary/_task_200811101024_0002_m_001968_1/part-01968. blk_7303357835106113447
081110 123810 11328 INFO dfs.DataNode$DataXceiver: Receiving block blk_6628512193350164674 src: /10.251.73.220:33460 dest: /10.251.73.220:50010
081110 123810 11328 INFO dfs.DataNode$DataXceiver: Receiving block blk_1312409625617634856 src: /10.251.73.220:33460 dest: /10.251.73.220:50010
081110 123827 11309 INFO dfs.DataNode$PacketResponder: PacketResponder 1 for block blk_-5587827566367944828 terminating
081110 123827 11309 INFO dfs.DataNode$PacketResponder: PacketResponder 1 for block blk_8582453478766572698- terminating
081110 124158 11529 INFO dfs.DataNode$DataXceiver: 10.250.11.53:50010 Served block blk_-743349875664670637 to /10.250.11.53
081110 124158 11529 INFO dfs.DataNode$DataXceiver: 10.250.11.53:50010 Served block blk_336-364749777854660 to /10.250.11.53
081110 124159 11369 WARN dfs.DataNode$DataXceiver: 10.251.70.5:50010:Got exception while serving blk_4581070264530964999 to /10.250.13.188:
081110 124159 11369 WARN dfs.DataNode$DataXceiver: 10.251.70.5:50010:Got exception while serving blk_6903401465978904259 to /10.250.13.188:
081110 124817 11533 WARN dfs.DataNode$DataXceiver: 10.251.74.79:50010:Got exception while serving blk_2139707931694085102 to /10.251.111.228:
081110 124817 11533 WARN dfs.DataNode$DataXceiver: 10.251.74.79:50010:Got exception while serving blk_9536821321077019490 to /10.251.111.228:
081110 125138 11558 WARN dfs.DataNode$DataXceiver: 10.251.42.246:50010:Got exception while serving blk_-3056652732896088330 to /10.251.27.63:
081110 125138 11558 WARN dfs.DataNode$DataXceiver: 10.251.42.246:50010:Got exception while serving blk_5-032888650023669337 to /10.251.27.63:
081110 125914 11536 WARN dfs.DataNode$DataXceiver: 10.250.13.188:50010:Got exception while serving blk_73389299186801686 to /10.251.123.33:
081110 125914 11536 WARN dfs.DataNode$DataXceiver: 10.250.13.188:50010:Got exception while serving blk_62091881839866379 to /10.251.123.33:
081110 125920 11517 WARN dfs.DataNode$DataXceiver: 10.251.42.16:50010:Got exception while serving blk_4963214289850966664 to /10.251.202.181:
081110 125920 11517 WARN dfs.DataNode$DataXceiver: 10.251.42.16:50010:Got exception while serving blk_9986668639214640452 to /10.251.202.181:
081110 130315 11823 WARN dfs.DataNode$DataXceiver: 10.251.71.240:50010:Got exception while serving blk_-8082428389627750477 to /10.251.71.97:
081110 130315 11823 WARN dfs.DataNode$DataXceiver: 10.251.71.240:50010:Got exception while serving blk_8787325287240-748960 to /10.251.71.97:
081110 130558 11608 INFO dfs.DataNode$DataXceiver: 10.251.39.192:50010 Served block blk_6338761369201338121 to /10.251.90.81
081110 130558 11608 INFO dfs.DataNode$DataXceiver: 10.251.39.192:50010 Served block blk_1333980167683312261 to /10.251.90.81
081110 131041 11754 WARN dfs.DataNode$DataXceiver: 10.251.122.38:50010:Got exception while serving blk_7489155602821840025 to /10.251.26.8:
081110 131041 11754 WARN dfs.DataNode$DataXceiver: 10.251.122.38:50010:Got exception while serving blk_1752682800951244058 to /10.251.26.8:
081110 131128 11976 INFO dfs.DataNode$DataXceiver: 10.251.67.225:50010 Served block blk_2038610753592374847 to /10.250.18.114
081110 131128 11976 INFO dfs.DataNode$DataXceiver: 10.251.67.225:50010 Served block blk_5422338367081407579 to /10.250.18.114
081110 131233 11867 WARN dfs.DataNode$DataXceiver: 10.251.197.226:50010:Got exception while serving blk_2101007907134483259 to /10.251.31.242:
081110 131233 11867 WARN dfs.DataNode$DataXceiver: 10.251.197.226:50010:Got exception while serving blk_4853329410107092017 to /10.251.31.242:
081110 131806 11757 WARN dfs.DataNode$DataXceiver: 10.251.26.177:50010:Got exception while serving blk_3848747149919646864 to /10.251.125.174:
081110 131806 11757 WARN dfs.DataNode$DataXceiver: 10.251.26.177:50010:Got exception while serving blk_9487487436191894664 to /10.251.125.174:
081110 131950 11797 WARN dfs.DataNode$DataXceiver: 10.251.30.85:50010:Got exception while serving blk_8059204889272489644 to /10.250.7.96:
081110 131950 11797 WARN dfs.DataNode$DataXceiver: 10.251.30.85:50010:Got exception while serving blk_8284704082844965929 to /10.250.7.96:
081110 132523 11832 WARN dfs.DataNode$DataXceiver: 10.251.39.179:50010:Got exception while serving blk_1683075246463470765 to /10.250.14.38:
081110 132523 11832 WARN dfs.DataNode$DataXceiver: 10.251.39.179:50010:Got exception while serving blk_3412047635785674066 to /10.250.14.38:
081110 133337 11768 INFO dfs.DataNode$DataXceiver: 10.250.10.100:50010 Served block blk_9216955386716663841 to /10.251.90.64
081110 133337 11768 INFO dfs.DataNode$DataXceiver: 10.250.10.100:50010 Served block blk_9168845656712636193 to /10.251.90.64
081110 133657 11701 WARN dfs.DataNode$DataXceiver: 10.251.123.132:50010:Got exception while serving blk_4048438071314937575 to /10.251.194.213:
081110 133657 11701 WARN dfs.DataNode$DataXceiver: 10.251.123.132:50010:Got exception while serving blk_3459518408471037437 to /10.251.194.213:
081110 133823 11970 INFO dfs.DataNode$DataXceiver: 10.251.203.149:50010 Served block blk_-1432303681669932458 to /10.250.10.176
081110 133823 11970 INFO dfs.DataNode$DataXceiver: 10.251.203.149:50010 Served block blk_158-6962336343210948 to /10.250.10.176
081110 133946 11947 WARN dfs.DataNode$DataXceiver: 10.251.126.255:50010:Got exception while serving blk_1910039736720341651 to /10.251.31.85:
081110 133946 11947 WARN dfs.DataNode$DataXceiver: 10.251.126.255:50010:Got exception while serving blk_4360531390707911621 to /10.251.31.85:
081110 135429 12030 WARN dfs.DataNode$DataXceiver: 10.251.70.37:50010:Got exception while serving blk_1646534811870220828 to /10.250.11.100:
081110 135429 12030 WARN dfs.DataNode$DataXceiver: 10.251.70.37:50010:Got exception while serving blk_3108822118644768520 to /10.250.11.100:
081110 135645 13 INFO dfs.DataBlockScanner: Verification succeeded for blk_-4984504651603069357
081110 135645 13 INFO dfs.DataBlockScanner: Verification succeeded for blk_46391075-85965044630
081110 135653 12034 WARN dfs.DataNode$DataXceiver: 10.251.214.130:50010:Got exception while serving blk_424461424221613461 to /10.251.71.193:
081110 135653 12034 WARN dfs.DataNode$DataXceiver: 10.251.214.130:50010:Got exception while serving blk_422643142146642141 to /10.251.71.193:
081110 135803 12201 INFO dfs.DataNode$DataXceiver: 10.251.214.18:50010 Served block blk_7297060562345904886 to /10.251.29.239
081110 135803 12201 INFO dfs.DataNode$DataXceiver: 10.251.214.18:50010 Served block blk_7989450438262706650 to /10.251.29.239
081110 135806 12060 WARN dfs.DataNode$DataXceiver: 10.251.215.70:50010:Got exception while serving blk_-7391656937286046074 to /10.251.107.196:
081110 135806 12060 WARN dfs.DataNode$DataXceiver: 10.251.215.70:50010:Got exception while serving blk_4632-767597148606039 to /10.251.107.196:
081110 142841 28 INFO dfs.FSNamesystem: BLOCK* NameSystem.allocateBlock: /user/root/sortrand2/_temporary/_task_200811101024_0003_r_000258_0/part-00258. blk_387577766066135394
081110 142841 28 INFO dfs.FSNamesystem: BLOCK* NameSystem.allocateBlock: /user/root/sortrand2/_temporary/_task_200811101024_0003_r_000258_0/part-00258. blk_569674163753770836
081110 143222 12360 INFO dfs.DataNode$DataXceiver: Receiving block blk_6107935679779418195 src: /10.251.43.115:55925 dest: /10.251.43.115:50010
081110 143222 12360 INFO dfs.DataNode$DataXceiver: Receiving block blk_9756811695734970197 src: /10.251.43.115:55925 dest: /10.251.43.115:50010
081110 143232 12469 INFO dfs.DataNode$PacketResponder: PacketResponder 2 for block blk_3584162266158512993 terminating
081110 143232 12469 INFO dfs.DataNode$PacketResponder: PacketResponder 2 for block blk_8562515312926196834 terminating
081110 143318 12458 INFO dfs.DataNode$PacketResponder: PacketResponder 2 for block blk_-2591043665372016488 terminating
081110 143318 12458 INFO dfs.DataNode$PacketResponder: PacketResponder 2 for block blk_4205041-386189537662 terminating
081110 143336 30 INFO dfs.FSNamesystem: BLOCK* NameSystem.allocateBlock: /user/root/sortrand2/_temporary/_task_200811101024_0003_r_000257_0/part-00257. blk_-1732662141253491971
081110 143336 30 INFO dfs.FSNamesystem: BLOCK* NameSystem.allocateBlock: /user/root/sortrand2/_temporary/_task_200811101024_0003_r_000257_0/part-00257. blk_-2242699471131113657
081110 143353 12141 INFO dfs.DataNode$DataXceiver: Receiving block blk_4959462704623252283 src: /10.251.125.174:44166 dest: /10.251.125.174:50010
081110 143353 12141 INFO dfs.DataNode$DataXceiver: Receiving block blk_8449245759622032236 src: /10.251.125.174:44166 dest: /10.251.125.174:50010
081110 143430 34 INFO dfs.FSNamesystem: BLOCK* NameSystem.addStoredBlock: blockMap updated: 10.250.7.96:50010 is added to blk_4553790855855864497 size 67108864
081110 143430 34 INFO dfs.FSNamesystem: BLOCK* NameSystem.addStoredBlock: blockMap updated: 10.250.7.96:50010 is added to blk_7848455539548756590 size 67108864
081110 143551 12299 INFO dfs.DataNode$DataXceiver: Receiving block blk_-3261177124784025140 src: /10.251.29.239:43937 dest: /10.251.29.239:50010
081110 143551 12299 INFO dfs.DataNode$DataXceiver: Receiving block blk_2147705-078344121216 src: /10.251.29.239:43937 dest: /10.251.29.239:50010
081110 143554 12294 INFO dfs.DataNode$PacketResponder: Received block blk_7501235595045510958 of size 67108864 from /10.251.214.67
081110 143554 12294 INFO dfs.DataNode$PacketResponder: Received block blk_9850402750955155531 of size 67108864 from /10.251.214.67
081110 143613 12543 INFO dfs.DataNode$DataXceiver: Receiving block blk_-3486808304671603275 src: /10.251.30.85:37518 dest: /10.251.30.85:50010
081110 143613 12543 INFO dfs.DataNode$DataXceiver: Receiving block blk_0376338840045266187- src: /10.251.30.85:37518 dest: /10.251.30.85:50010
081110 143651 12577 INFO dfs.DataNode$DataXceiver: Receiving block blk_6563909003697001371 src: /10.251.39.144:48872 dest: /10.251.39.144:50010
081110 143651 12577 INFO dfs.DataNode$DataXceiver: Receiving block blk_0909639756016003371 src: /10.251.39.144:48872 dest: /10.251.39.144:50010
081110 143725 12558 INFO dfs.DataNode$PacketResponder: PacketResponder 0 for block blk_4068667188725811395 terminating
081110 143725 12558 INFO dfs.DataNode$PacketResponder: PacketResponder 0 for block blk_8468798610575316182 terminating
081110 143736 12448 INFO dfs.DataNode$DataXceiver: Receiving block blk_-7355153279766988632 src: /10.251.194.245:35876 dest: /10.251.194.245:50010
081110 143736 12448 INFO dfs.DataNode$DataXceiver: Receiving block blk_373-6685778651352992 src: /10.251.194.245:35876 dest: /10.251.194.245:50010
081110 143920 12287 INFO dfs.DataNode$DataXceiver: Receiving block blk_-4854562124894030819 src: /10.250.10.100:40486 dest: /10.250.10.100:50010
081110 143920 12287 INFO dfs.DataNode$DataXceiver: Receiving block blk_44514862483902185-09 src: /10.250.10.100:40486 dest: /10.250.10.100:50010
081110 143945 12653 INFO dfs.DataNode$PacketResponder: Received block blk_1828089683746536118 of size 67108864 from /10.250.6.223
081110 143945 12653 INFO dfs.DataNode$PacketResponder: Received block blk_4669168808317815823 of size 67108864 from /10.250.6.223
081110 144004 12354 INFO dfs.DataNode$DataXceiver: Receiving block blk_1345503778930512538 src: /10.251.75.163:40307 dest: /10.251.75.163:50010
081110 144004 12354 INFO dfs.DataNode$DataXceiver: Receiving block blk_9135540783237505813 src: /10.251.75.163:40307 dest: /10.251.75.163:50010
081110 144024 32 INFO dfs.FSNamesystem: BLOCK* NameSystem.addStoredBlock: blockMap updated: 10.251.195.70:50010 is added to blk_4318179566727871532 size 67108864
081110 144024 32 INFO dfs.FSNamesystem: BLOCK* NameSystem.addStoredBlock: blockMap updated: 10.251.195.70:50010 is added to blk_1214955613778638772 size 67108864
081110 144035 12577 INFO dfs.DataNode$PacketResponder: PacketResponder 2 for block blk_727000711161641724 terminating
081110 144035 12577 INFO dfs.DataNode$PacketResponder: PacketResponder 2 for block blk_701122106767071144 terminating
081110 144100 31 INFO dfs.FSNamesystem: BLOCK* NameSystem.addStoredBlock: blockMap updated: 10.251.123.33:50010 is added to blk_-2916658835497879256 size 67108864
081110 144100 31 INFO dfs.FSNamesystem: BLOCK* NameSystem.addStoredBlock: blockMap updated: 10.251.123.33:50010 is added to blk_5589147265968-783962 size 67108864
081110 144201 12384 INFO dfs.DataNode$PacketResponder: Received block blk_7227035060836018780 of size 67108864 from /10.250.5.237
081110 144201 12384 INFO dfs.DataNode$PacketResponder: Received block blk_1007672607032850883 of size 67108864 from /10.250.5.237
081110 144220 28 INFO dfs.FSNamesystem: BLOCK* NameSystem.addStoredBlock: blockMap updated: 10.251.111.209:50010 is added to blk_4069436988023676023 size 67108864
081110 144220 28 INFO dfs.FSNamesystem: BLOCK* NameSystem.addStoredBlock: blockMap updated: 10.251.111.209:50010 is added to blk_2200384796066846393 size 67108864
081110 144309 12287 INFO dfs.DataNode$PacketResponder: Received block blk_-3981735565440284420 of size 67108864 from /10.251.127.243
081110 144309 12287 INFO dfs.DataNode$PacketResponder: Received block blk_4440358892-317545026 of size 67108864 from /10.251.127.243
081110 144404 12709 INFO dfs.DataNode$DataXceiver: Receiving block blk_728165942214842306 src: /10.251.30.179:57828 dest: /10.251.30.179:50010
081110 144404 12709 INFO dfs.DataNode$DataXceiver: Receiving block blk_626247980423248151 src: /10.251.30.179:57828 dest: /10.251.30.179:50010
081110 144509 12519 INFO dfs.DataNode$DataXceiver: Receiving block blk_-3157541550945505354 src: /10.251.125.193:45917 dest: /10.251.125.193:50010
081110 144509 12519 INFO dfs.DataNode$DataXceiver: Receiving block blk_55-44557050535593114 src: /10.251.125.193:45917 dest: /10.251.125.193:50010
081110 144546 29 INFO dfs.FSNamesystem: BLOCK* NameSystem.addStoredBlock: blockMap updated: 10.251.27.63:50010 is added to blk_7838843222458775811 size 67108864
081110 144546 29 INFO dfs.FSNamesystem: BLOCK* NameSystem.addStoredBlock: blockMap updated: 10.251.27.63:50010 is added to blk_2277885347528438181 size 67108864
081110 144547 12473 INFO dfs.DataNode$PacketResponder: PacketResponder 2 for block blk_3088175971503531298 terminating
081110 144547 12473 INFO dfs.DataNode$PacketResponder: PacketResponder 2 for block blk_5087011885193597323 terminating
081110 144643 12257 INFO dfs.DataNode$PacketResponder: Received block blk_-3620767662957963389 of size 67108864 from /10.251.203.179
081110 144643 12257 INFO dfs.DataNode$PacketResponder: Received block blk_669369328767720-5936 of size 67108864 from /10.251.203.179
081110 144735 12785 INFO dfs.DataNode$DataXceiver: Receiving block blk_-5078186985701364847 src: /10.251.37.240:35757 dest: /10.251.37.240:50010
081110 144735 12785 INFO dfs.DataNode$DataXceiver: Receiving block blk_84684007968871-17553 src: /10.251.37.240:35757 dest: /10.251.37.240:50010
081110 144750 12364 INFO dfs.DataNode$DataXceiver: Receiving block blk_7193551490488433552 src: /10.251.74.227:44191 dest: /10.251.74.227:50010
081110 144750 12364 INFO dfs.DataNode$DataXceiver: Receiving block blk_7380199544154258335 src: /10.251.74.227:44191 dest: /10.251.74.227:50010
081110 144848 31 INFO dfs.FSNamesystem: BLOCK* NameSystem.addStoredBlock: blockMap updated: 10.251.66.102:50010 is added to blk_-8022986908643041177 size 67108864
081110 144848 31 INFO dfs.FSNamesystem: BLOCK* NameSystem.addStoredBlock: blockMap updated: 10.251.66.102:50010 is added to blk_096823201889404-6717 size 67108864
081110 144947 12810 INFO dfs.DataNode$DataXceiver: Receiving block blk_-5003122231679852524 src: /10.250.7.230:51033 dest: /10.250.7.230:50010
081110 144947 12810 INFO dfs.DataNode$DataXceiver: Receiving block blk_223192-5742003165285 src: /10.250.7.230:51033 dest: /10.250.7.230:50010
081110 145021 12676 INFO dfs.DataNode$PacketResponder: Received block blk_-3276232266876914214 of size 67108864 from /10.250.7.146
081110 145021 12676 INFO dfs.DataNode$PacketResponder: Received block blk_9218631263427264-672 of size 67108864 from /10.250.7.146
081110 145037 35 INFO dfs.FSNamesystem: BLOCK* NameSystem.allocateBlock: /user/root/sortrand2/_temporary/_task_200811101024_0003_r_000210_0/part-00210. blk_-7667417209393167541
081110 145037 35 INFO dfs.FSNamesystem: BLOCK* NameSystem.allocateBlock: /user/root/sortrand2/_temporary/_task_200811101024_0003_r_000210_0/part-00210. blk_63996-64177021731745
081110 145114 29 INFO dfs.FSNamesystem: BLOCK* NameSystem.addStoredBlock: blockMap updated: 10.251.31.242:50010 is added to blk_-5400783031085008882 size 67108864
081110 145114 29 INFO dfs.FSNamesystem: BLOCK* NameSystem.addStoredBlock: blockMap updated: 10.251.31.242:50010 is added to blk_858500234780808-0310 size 67108864
081110 145120 12820 INFO dfs.DataNode$PacketResponder: PacketResponder 2 for block blk_-1197396592032418307 terminating
081110 145120 12820 INFO dfs.DataNode$PacketResponder: PacketResponder 2 for block blk_327391029-9035478116 terminating
081110 145203 12416 INFO dfs.DataNode$PacketResponder: PacketResponder 0 for block blk_7533949673910842243 terminating
081110 145203 12416 INFO dfs.DataNode$PacketResponder: PacketResponder 0 for block blk_2397534194293467083 terminating
081110 145213 12875 INFO dfs.DataNode$PacketResponder: PacketResponder 2 for block blk_8842097432176169457 terminating
081110 145213 12875 INFO dfs.DataNode$PacketResponder: PacketResponder 2 for block blk_1048937727698426154 terminating
081110 145452 12780 INFO dfs.DataNode$PacketResponder: Received block blk_560063894682806537 of size 67108864 from /10.251.194.129
081110 145452 12780 INFO dfs.DataNode$PacketResponder: Received block blk_390685268008646357 of size 67108864 from /10.251.194.129
081110 145506 12603 INFO dfs.DataNode$PacketResponder: Received block blk_2652444451422301232 of size 67108864 from /10.251.214.225
081110 145506 12603 INFO dfs.DataNode$PacketResponder: Received block blk_2264422034351142542 of size 67108864 from /10.251.214.225
081110 145606 12992 INFO dfs.DataNode$PacketResponder: Received block blk_7016884347337429710 of size 67108864 from /10.251.194.129
081110 145606 12992 INFO dfs.DataNode$PacketResponder: Received block blk_8874037337746940121 of size 67108864 from /10.251.194.129
081110 145606 30 INFO dfs.FSNamesystem: BLOCK* NameSystem.addStoredBlock: blockMap updated: 10.251.26.131:50010 is added to blk_-4174618838156947380 size 67108864
081110 145606 30 INFO dfs.FSNamesystem: BLOCK* NameSystem.addStoredBlock: blockMap updated: 10.251.26.131:50010 is added to blk_86-18518743748096134 size 67108864
081110 145703 12721 INFO dfs.DataNode$PacketResponder: PacketResponder 1 for block blk_-3402248757106237109 terminating
081110 145703 12721 INFO dfs.DataNode$PacketResponder: PacketResponder 1 for block blk_280047437-1027623195 terminating
081110 145746 12982 INFO dfs.DataNode$DataXceiver: Receiving block blk_-8915123233040672605 src: /10.250.10.176:58294 dest: /10.250.10.176:50010
081110 145746 12982 INFO dfs.DataNode$DataXceiver: Receiving block blk_528203-0160219637354 src: /10.250.10.176:58294 dest: /10.250.10.176:50010
081110 145749 12962 INFO dfs.DataNode$PacketResponder: Received block blk_-5633587983998853189 of size 67108864 from /10.251.73.220
081110 145749 12962 INFO dfs.DataNode$PacketResponder: Received block blk_793638539-8983885951 of size 67108864 from /10.251.73.220
081110 145818 12949 INFO dfs.DataNode$PacketResponder: PacketResponder 1 for block blk_2570966823909513791 terminating
081110 145818 12949 INFO dfs.DataNode$PacketResponder: PacketResponder 1 for block blk_2086963915209579173 terminating
081110 145931 12812 INFO dfs.DataNode$PacketResponder: Received block blk_-6168484338203583997 of size 67108864 from /10.251.39.192
081110 145931 12812 INFO dfs.DataNode$PacketResponder: Received block blk_868231890953348-7364 of size 67108864 from /10.251.39.192
081110 145944 12814 INFO dfs.DataNode$DataXceiver: Receiving block blk_-3172594752427649592 src: /10.251.198.196:57807 dest: /10.251.198.196:50010
081110 145944 12814 INFO dfs.DataNode$DataXceiver: Receiving block blk_6227559-277425439914 src: /10.251.198.196:57807 dest: /10.251.198.196:50010
081110 150009 12830 INFO dfs.DataNode$PacketResponder: PacketResponder 2 for block blk_8285441926344578159 terminating
081110 150009 12830 INFO dfs.DataNode$PacketResponder: PacketResponder 2 for block blk_1552134445982867984 terminating
081110 150125 26 INFO dfs.FSNamesystem: BLOCK* NameSystem.addStoredBlock: blockMap updated: 10.251.71.193:50010 is added to blk_7415823309220171667 size 67108864
081110 150125 26 INFO dfs.FSNamesystem: BLOCK* NameSystem.addStoredBlock: blockMap updated: 10.251.71.193:50010 is added to blk_7822769106320751314 size 67108864
081110 150205 29 INFO dfs.FSNamesystem: BLOCK* NameSystem.allocateBlock: /user/root/sortrand2/_temporary/_task_200811101024_0003_r_000116_0/part-00116. blk_6749232449432458524
081110 150205 29 INFO dfs.FSNamesystem: BLOCK* NameSystem.allocateBlock: /user/root/sortrand2/_temporary/_task_200811101024_0003_r_000116_0/part-00116. blk_7485445329234269424
081110 150238 31 INFO dfs.FSNamesystem: BLOCK* NameSystem.addStoredBlock: blockMap updated: 10.251.38.197:50010 is added to blk_-5427918313707752877 size 67108864
081110 150238 31 INFO dfs.FSNamesystem: BLOCK* NameSystem.addStoredBlock: blockMap updated: 10.251.38.197:50010 is added to blk_355910277-3827747178 size 67108864
081110 150240 12700 INFO dfs.DataNode$DataXceiver: Receiving block blk_-4673509946769671609 src: /10.251.30.85:34022 dest: /10.251.30.85:50010
081110 150240 12700 INFO dfs.DataNode$DataXceiver: Receiving block blk_6360607795671994946- src: /10.251.30.85:34022 dest: /10.251.30.85:50010
081110 150254 13 INFO dfs.DataBlockScanner: Verification succeeded for blk_-7803343374223161433
081110 150254 13 INFO dfs.DataBlockScanner: Verification succeeded for blk_3084333124462773313-
081110 150316 26 INFO dfs.FSNamesystem: BLOCK* NameSystem.addStoredBlock: blockMap updated: 10.251.105.189:50010 is added to blk_-3275237990609680332 size 67108864
081110 150316 26 INFO dfs.FSNamesystem: BLOCK* NameSystem.addStoredBlock: blockMap updated: 10.251.105.189:50010 is added to blk_39062263787-05392903 size 67108864
081110 150436 13158 INFO dfs.DataNode$DataXceiver: Receiving block blk_-8584158329012779023 src: /10.250.19.16:50122 dest: /10.250.19.16:50010
081110 150436 13158 INFO dfs.DataNode$DataXceiver: Receiving block blk_027895-8208251934731 src: /10.250.19.16:50122 dest: /10.250.19.16:50010
081110 150455 13155 INFO dfs.DataNode$DataXceiver: Receiving block blk_-4468166796563085237 src: /10.251.215.50:53705 dest: /10.251.215.50:50010
081110 150455 13155 INFO dfs.DataNode$DataXceiver: Receiving block blk_174-6636439586068257 src: /10.251.215.50:53705 dest: /10.251.215.50:50010
081110 150531 26 INFO dfs.FSNamesystem: BLOCK* NameSystem.allocateBlock: /user/root/sortrand2/_temporary/_task_200811101024_0003_r_000315_0/part-00315. blk_-463998587096565542
081110 150531 26 INFO dfs.FSNamesystem: BLOCK* NameSystem.allocateBlock: /user/root/sortrand2/_temporary/_task_200811101024_0003_r_000315_0/part-00315. blk_8995-85270349665564
081110 150600 35 INFO dfs.FSNamesystem: BLOCK* NameSystem.addStoredBlock: blockMap updated: 10.251.73.220:50010 is added to blk_578261619176233743 size 67108864
081110 150600 35 INFO dfs.FSNamesystem: BLOCK* NameSystem.addStoredBlock: blockMap updated: 10.251.73.220:50010 is added to blk_621736942186135737 size 67108864
081110 150618 30 INFO dfs.FSNamesystem: BLOCK* NameSystem.addStoredBlock: blockMap updated: 10.251.73.188:50010 is added to blk_-3897674589140998025 size 67108864
081110 150618 30 INFO dfs.FSNamesystem: BLOCK* NameSystem.addStoredBlock: blockMap updated: 10.251.73.188:50010 is added to blk_556309981494978720-8 size 67108864
081110 150751 27 INFO dfs.FSNamesystem: BLOCK* NameSystem.addStoredBlock: blockMap updated: 10.250.17.225:50010 is added to blk_-3573208405519699182 size 67108864
081110 150751 27 INFO dfs.FSNamesystem: BLOCK* NameSystem.addStoredBlock: blockMap updated: 10.250.17.225:50010 is added to blk_579002969351843-2815 size 67108864
081110 150809 26 INFO dfs.FSNamesystem: BLOCK* NameSystem.addStoredBlock: blockMap updated: 10.251.214.67:50010 is added to blk_4154740411570608045 size 67108864
081110 150809 26 INFO dfs.FSNamesystem: BLOCK* NameSystem.addStoredBlock: blockMap updated: 10.251.214.67:50010 is added to blk_5578114040006457441 size 67108864
081110 150933 34 INFO dfs.FSNamesystem: BLOCK* NameSystem.addStoredBlock: blockMap updated: 10.251.203.179:50010 is added to blk_8188837227311063557 size 67108864
081110 150933 34 INFO dfs.FSNamesystem: BLOCK* NameSystem.addStoredBlock: blockMap updated: 10.251.203.179:50010 is added to blk_7578213328811760358 size 67108864
081110 151115 34 INFO dfs.FSNamesystem: BLOCK* NameSystem.addStoredBlock: blockMap updated: 10.251.42.191:50010 is added to blk_-4208396523159735354 size 67108864
081110 151115 34 INFO dfs.FSNamesystem: BLOCK* NameSystem.addStoredBlock: blockMap updated: 10.251.42.191:50010 is added to blk_9-556235137234450938 size 67108864
081110 151202 13109 INFO dfs.DataNode$DataXceiver: Receiving block blk_7572868180557515526 src: /10.251.214.130:38983 dest: /10.251.214.130:50010
081110 151202 13109 INFO dfs.DataNode$DataXceiver: Receiving block blk_6780855185155527267 src: /10.251.214.130:38983 dest: /10.251.214.130:50010
081110 151229 13144 INFO dfs.DataNode$PacketResponder: PacketResponder 2 for block blk_-1733803097614960767 terminating
081110 151229 13144 INFO dfs.DataNode$PacketResponder: PacketResponder 2 for block blk_03-87313499776671600 terminating
081110 151307 35 INFO dfs.FSNamesystem: BLOCK* NameSystem.allocateBlock: /user/root/sortrand2/_temporary/_task_200811101024_0003_r_000152_0/part-00152. blk_-7603795308074215276
081110 151307 35 INFO dfs.FSNamesystem: BLOCK* NameSystem.allocateBlock: /user/root/sortrand2/_temporary/_task_200811101024_0003_r_000152_0/part-00152. blk_70079-36475512036872
081110 151427 35 INFO dfs.FSNamesystem: BLOCK* NameSystem.allocateBlock: /user/root/sortrand2/_temporary/_task_200811101024_0003_r_000344_0/part-00344. blk_-2004529166303428909
081110 151427 35 INFO dfs.FSNamesystem: BLOCK* NameSystem.allocateBlock: /user/root/sortrand2/_temporary/_task_200811101024_0003_r_000344_0/part-00344. blk_6234903090640821529-
081110 151503 13083 INFO dfs.DataNode$DataXceiver: Receiving block blk_-5817942497672492100 src: /10.251.107.19:35639 dest: /10.251.107.19:50010
081110 151503 13083 INFO dfs.DataNode$DataXceiver: Receiving block blk_6402-891057414277929 src: /10.251.107.19:35639 dest: /10.251.107.19:50010
081110 151558 13270 INFO dfs.DataNode$PacketResponder: PacketResponder 1 for block blk_-7512746652453970810 terminating
081110 151558 13270 INFO dfs.DataNode$PacketResponder: PacketResponder 1 for block blk_9218-054075616752743 terminating
081110 151600 28 INFO dfs.FSNamesystem: BLOCK* NameSystem.addStoredBlock: blockMap updated: 10.251.75.143:50010 is added to blk_2618566506268332756 size 67108864
081110 151600 28 INFO dfs.FSNamesystem: BLOCK* NameSystem.addStoredBlock: blockMap updated: 10.251.75.143:50010 is added to blk_6325865066768321562 size 67108864
081110 151717 12949 INFO dfs.DataNode$PacketResponder: Received block blk_-265588615173040885 of size 67108864 from /10.251.215.70
081110 151717 12949 INFO dfs.DataNode$PacketResponder: Received block blk_0673258615804-81558 of size 67108864 from /10.251.215.70
081110 151902 27 INFO dfs.FSNamesystem: BLOCK* NameSystem.addStoredBlock: blockMap updated: 10.250.13.188:50010 is added to blk_5971534893446541111 size 67108864
081110 151902 27 INFO dfs.FSNamesystem: BLOCK* NameSystem.addStoredBlock: blockMap updated: 10.250.13.188:50010 is added to blk_5971191183544463145 size 67108864
081110 151940 12996 INFO dfs.DataNode$DataXceiver: Receiving block blk_4742178675580222210 src: /10.251.42.9:60232 dest: /10.251.42.9:50010
081110 151940 12996 INFO dfs.DataNode$DataXceiver: Receiving block blk_8272501817675024242 src: /10.251.42.9:60232 dest: /10.251.42.9:50010
081110 152137 13387 INFO dfs.DataNode$PacketResponder: PacketResponder 2 for block blk_-900229825899812461 terminating
081110 152137 13387 INFO dfs.DataNode$PacketResponder: PacketResponder 2 for block blk_9814509898-62229201 terminating
081110 152147 30 INFO dfs.FSNamesystem: BLOCK* NameSystem.addStoredBlock: blockMap updated: 10.251.70.37:50010 is added to blk_300967862449910205 size 67108864
081110 152147 30 INFO dfs.FSNamesystem: BLOCK* NameSystem.addStoredBlock: blockMap updated: 10.251.70.37:50010 is added to blk_340200692401799568 size 67108864
081110 152215 32 INFO dfs.FSNamesystem: BLOCK* NameSystem.addStoredBlock: blockMap updated: 10.250.19.227:50010 is added to blk_2059389709317340334 size 67108864
081110 152215 32 INFO dfs.FSNamesystem: BLOCK* NameSystem.addStoredBlock: blockMap updated: 10.250.19.227:50010 is added to blk_4933995370308120473 size 67108864
081110 152240 13092 INFO dfs.DataNode$PacketResponder: PacketResponder 0 for block blk_-6865167803683277211 terminating
081110 152240 13092 INFO dfs.DataNode$PacketResponder: PacketResponder 0 for block blk_281683625817-0371667 terminating
081110 152613 13407 INFO dfs.DataNode$DataXceiver: Receiving block blk_1321799290531408498 src: /10.251.126.255:43447 dest: /10.251.126.255:50010
081110 152613 13407 INFO dfs.DataNode$DataXceiver: Receiving block blk_3983927141490810259 src: /10.251.126.255:43447 dest: /10.251.126.255:50010
081110 153301 13 INFO dfs.DataBlockScanner: Verification succeeded for blk_-8507209254958698084
081110 153301 13 INFO dfs.DataBlockScanner: Verification succeeded for blk_55889298-09564704820
081110 153917 13338 INFO dfs.DataNode$PacketResponder: Received block blk_-7716943410942322104 of size 67108864 from /10.251.126.5
081110 153917 13338 INFO dfs.DataNode$PacketResponder: Received block blk_2132940307142471-964 of size 67108864 from /10.251.126.5
081110 155142 13655 INFO dfs.DataNode$DataXceiver: Receiving block blk_-6884056342993438262 src: /10.251.193.175:46638 dest: /10.251.193.175:50010
081110 155142 13655 INFO dfs.DataNode$DataXceiver: Receiving block blk_934643-6580836222849 src: /10.251.193.175:46638 dest: /10.251.193.175:50010
081110 160100 31 INFO dfs.FSNamesystem: BLOCK* NameSystem.addStoredBlock: blockMap updated: 10.251.70.5:50010 is added to blk_-4092973201423074374 size 67108864
081110 160100 31 INFO dfs.FSNamesystem: BLOCK* NameSystem.addStoredBlock: blockMap updated: 10.251.70.5:50010 is added to blk_70943401-20243734729 size 67108864
081110 163007 13812 INFO dfs.DataNode$DataXceiver: 10.251.67.225:50010 Served block blk_5240632065631390212 to /10.251.67.225
081110 163007 13812 INFO dfs.DataNode$DataXceiver: 10.251.67.225:50010 Served block blk_2165256016320930423 to /10.251.67.225
081110 163625 13543 INFO dfs.DataNode$DataXceiver: 10.251.106.50:50010 Served block blk_-8907436477337775860 to /10.251.106.50
081110 163625 13543 INFO dfs.DataNode$DataXceiver: 10.251.106.50:50010 Served block blk_3457467790680773783- to /10.251.106.50
081110 163945 13711 WARN dfs.DataNode$DataXceiver: 10.251.30.101:50010:Got exception while serving blk_-5340885607150360719 to /10.251.30.101:
081110 163945 13711 WARN dfs.DataNode$DataXceiver: 10.251.30.101:50010:Got exception while serving blk_840-0890751350617563 to /10.251.30.101:
081110 170322 13709 WARN dfs.DataNode$DataXceiver: 10.251.195.33:50010:Got exception while serving blk_6702054389824523327 to /10.251.195.33:
081110 170322 13709 WARN dfs.DataNode$DataXceiver: 10.251.195.33:50010:Got exception while serving blk_4022874229533765083 to /10.251.195.33:
081110 173556 13687 INFO dfs.DataNode$DataXceiver: 10.251.194.147:50010 Served block blk_7703498406755483188 to /10.251.111.209
081110 173556 13687 INFO dfs.DataNode$DataXceiver: 10.251.194.147:50010 Served block blk_8398834545087706714 to /10.251.111.209
081110 173657 13 INFO dfs.DataBlockScanner: Verification succeeded for blk_2904134648927436267
081110 173657 13 INFO dfs.DataBlockScanner: Verification succeeded for blk_9016624722734464398
081110 175354 14021 WARN dfs.DataNode$DataXceiver: 10.250.11.53:50010:Got exception while serving blk_-7125370327234065733 to /10.250.15.240:
081110 175354 14021 WARN dfs.DataNode$DataXceiver: 10.250.11.53:50010:Got exception while serving blk_-3022375754203167373 to /10.250.15.240:
081110 175426 13827 INFO dfs.DataNode$DataXceiver: 10.251.202.209:50010 Served block blk_-5086369325828333421 to /10.251.194.213
081110 175426 13827 INFO dfs.DataNode$DataXceiver: 10.251.202.209:50010 Served block blk_3303632522868381459- to /10.251.194.213
081110 175818 13937 WARN dfs.DataNode$DataXceiver: 10.250.10.223:50010:Got exception while serving blk_8478683141242372735 to /10.251.70.5:
081110 175818 13937 WARN dfs.DataNode$DataXceiver: 10.250.10.223:50010:Got exception while serving blk_4228677182874134533 to /10.251.70.5:
081110 175826 14005 INFO dfs.DataNode$DataXceiver: 10.251.215.50:50010 Served block blk_668295516093167045 to /10.251.30.6
081110 175826 14005 INFO dfs.DataNode$DataXceiver: 10.251.215.50:50010 Served block blk_550917308469615662 to /10.251.30.6
081110 175934 12298 WARN dfs.DataNode$DataXceiver: 10.251.107.50:50010:Got exception while serving blk_-4737948505610037427 to /10.251.75.79:
081110 175934 12298 WARN dfs.DataNode$DataXceiver: 10.251.107.50:50010:Got exception while serving blk_958020614737-4470753 to /10.251.75.79:
081110 183200 13 INFO dfs.DataBlockScanner: Verification succeeded for blk_1584196996810164915
081110 183200 13 INFO dfs.DataBlockScanner: Verification succeeded for blk_1069596191896158144
081110 190333 13 INFO dfs.DataBlockScanner: Verification succeeded for blk_1150231966878829887
081110 190333 13 INFO dfs.DataBlockScanner: Verification succeeded for blk_8161779863288982051
081110 191403 14120 WARN dfs.DataNode$DataXceiver: 10.250.14.196:50010:Got exception while serving blk_2967299761311489673 to /10.251.89.155:
081110 191403 14120 WARN dfs.DataNode$DataXceiver: 10.250.14.196:50010:Got exception while serving blk_2274693386197791691 to /10.251.89.155:
081110 192015 14269 WARN dfs.DataNode$DataXceiver: 10.250.10.223:50010:Got exception while serving blk_9095955277706686312 to /10.250.5.161:
081110 192015 14269 WARN dfs.DataNode$DataXceiver: 10.250.10.223:50010:Got exception while serving blk_7263501267659807959 to /10.250.5.161:
081110 193334 14294 WARN dfs.DataNode$DataXceiver: 10.251.39.179:50010:Got exception while serving blk_-8558281124275910849 to /10.251.30.134:
081110 193334 14294 WARN dfs.DataNode$DataXceiver: 10.251.39.179:50010:Got exception while serving blk_02192184148295-85578 to /10.251.30.134:
081110 193551 14191 INFO dfs.DataNode$DataXceiver: 10.251.71.97:50010 Served block blk_6552418180158772377 to /10.251.39.242
081110 193551 14191 INFO dfs.DataNode$DataXceiver: 10.251.71.97:50010 Served block blk_7745821031575687182 to /10.251.39.242
081110 194159 14349 WARN dfs.DataNode$DataXceiver: 10.251.26.8:50010:Got exception while serving blk_-3572295706132449090 to /10.251.111.130:
081110 194159 14349 WARN dfs.DataNode$DataXceiver: 10.251.26.8:50010:Got exception while serving blk_9314020-625735099274 to /10.251.111.130:
081110 194544 14270 INFO dfs.DataNode$DataXceiver: 10.251.202.209:50010 Served block blk_-1442905060580014339 to /10.251.202.209
081110 194544 14270 INFO dfs.DataNode$DataXceiver: 10.251.202.209:50010 Served block blk_-0485409101324056093 to /10.251.202.209
081110 194735 14044 WARN dfs.DataNode$DataXceiver: 10.251.127.243:50010:Got exception while serving blk_7760079751081658559 to /10.251.215.70:
081110 194735 14044 WARN dfs.DataNode$DataXceiver: 10.251.127.243:50010:Got exception while serving blk_8707850569017957165 to /10.251.215.70:
081110 195500 14389 INFO dfs.DataNode$DataXceiver: 10.251.39.179:50010 Served block blk_798664047382151445 to /10.251.39.179
081110 195500 14389 INFO dfs.DataNode$DataXceiver: 10.251.39.179:50010 Served block blk_762754905461448831 to /10.251.39.179
081110 200311 14622 INFO dfs.DataNode$DataXceiver: 10.250.11.194:50010 Served block blk_8591104451552720112 to /10.250.11.194
081110 200311 14622 INFO dfs.DataNode$DataXceiver: 10.250.11.194:50010 Served block blk_5101284924512711505 to /10.250.11.194
081110 210112 28 INFO dfs.FSNamesystem: BLOCK* NameSystem.delete: blk_-531469051872229488 is added to invalidSet of 10.251.71.146:50010
081110 210112 28 INFO dfs.FSNamesystem: BLOCK* NameSystem.delete: blk_889543170-652294128 is added to invalidSet of 10.251.71.146:50010
081110 210115 28 INFO dfs.FSNamesystem: BLOCK* NameSystem.delete: blk_-4657423175636611807 is added to invalidSet of 10.251.193.175:50010
081110 210115 28 INFO dfs.FSNamesystem: BLOCK* NameSystem.delete: blk_5716437746352-660118 is added to invalidSet of 10.251.193.175:50010
081110 210115 28 INFO dfs.FSNamesystem: BLOCK* NameSystem.delete: blk_-6117917602803602155 is added to invalidSet of 10.251.67.211:50010
081110 210115 28 INFO dfs.FSNamesystem: BLOCK* NameSystem.delete: blk_201537511020616-6789 is added to invalidSet of 10.251.67.211:50010
081110 210115 28 INFO dfs.FSNamesystem: BLOCK* NameSystem.delete: blk_-7584542530081657301 is added to invalidSet of 10.250.10.223:50010
081110 210115 28 INFO dfs.FSNamesystem: BLOCK* NameSystem.delete: blk_61434750-55057208138 is added to invalidSet of 10.250.10.223:50010
081110 210118 28 INFO dfs.FSNamesystem: BLOCK* NameSystem.delete: blk_4640277741339926850 is added to invalidSet of 10.251.26.131:50010
081110 210118 28 INFO dfs.FSNamesystem: BLOCK* NameSystem.delete: blk_9160344968202745377 is added to invalidSet of 10.251.26.131:50010
081110 210118 28 INFO dfs.FSNamesystem: BLOCK* NameSystem.delete: blk_-7285565997486715015 is added to invalidSet of 10.250.6.191:50010
081110 210118 28 INFO dfs.FSNamesystem: BLOCK* NameSystem.delete: blk_81569655-57471729058 is added to invalidSet of 10.250.6.191:50010
081110 210123 28 INFO dfs.FSNamesystem: BLOCK* NameSystem.delete: blk_3652427357251545055 is added to invalidSet of 10.250.10.223:50010
081110 210123 28 INFO dfs.FSNamesystem: BLOCK* NameSystem.delete: blk_5543575267310455522 is added to invalidSet of 10.250.10.223:50010
081110 210123 28 INFO dfs.FSNamesystem: BLOCK* NameSystem.delete: blk_5163387277374142808 is added to invalidSet of 10.251.71.193:50010
081110 210123 28 INFO dfs.FSNamesystem: BLOCK* NameSystem.delete: blk_8477371387103425268 is added to invalidSet of 10.251.71.193:50010
081110 210124 28 INFO dfs.FSNamesystem: BLOCK* NameSystem.delete: blk_-1342669964196815853 is added to invalidSet of 10.250.17.225:50010
081110 210124 28 INFO dfs.FSNamesystem: BLOCK* NameSystem.delete: blk_965614-9933268156841 is added to invalidSet of 10.250.17.225:50010
081110 210125 28 INFO dfs.FSNamesystem: BLOCK* NameSystem.delete: blk_-424018194735922479 is added to invalidSet of 10.251.42.84:50010
081110 210125 28 INFO dfs.FSNamesystem: BLOCK* NameSystem.delete: blk_0292448174391952-47 is added to invalidSet of 10.251.42.84:50010
081110 210126 28 INFO dfs.FSNamesystem: BLOCK* NameSystem.delete: blk_-3754029959138975487 is added to invalidSet of 10.251.214.112:50010
081110 210126 28 INFO dfs.FSNamesystem: BLOCK* NameSystem.delete: blk_8-357044785959132979 is added to invalidSet of 10.251.214.112:50010
081110 210126 28 INFO dfs.FSNamesystem: BLOCK* NameSystem.delete: blk_-4149539113118855204 is added to invalidSet of 10.251.71.16:50010
081110 210126 28 INFO dfs.FSNamesystem: BLOCK* NameSystem.delete: blk_18904145318-53521419 is added to invalidSet of 10.251.71.16:50010
081110 210126 28 INFO dfs.FSNamesystem: BLOCK* NameSystem.delete: blk_5868517220927475394 is added to invalidSet of 10.251.67.113:50010
081110 210126 28 INFO dfs.FSNamesystem: BLOCK* NameSystem.delete: blk_5425960597237214878 is added to invalidSet of 10.251.67.113:50010
081110 210127 28 INFO dfs.FSNamesystem: BLOCK* NameSystem.delete: blk_6093858391888371854 is added to invalidSet of 10.251.42.207:50010
081110 210127 28 INFO dfs.FSNamesystem: BLOCK* NameSystem.delete: blk_3810688983857345819 is added to invalidSet of 10.251.42.207:50010
081110 210128 28 INFO dfs.FSNamesystem: BLOCK* NameSystem.delete: blk_7048740572660501729 is added to invalidSet of 10.251.107.98:50010
081110 210128 28 INFO dfs.FSNamesystem: BLOCK* NameSystem.delete: blk_2700051562947767048 is added to invalidSet of 10.251.107.98:50010
081110 210129 28 INFO dfs.FSNamesystem: BLOCK* NameSystem.delete: blk_-2025578204394955498 is added to invalidSet of 10.251.91.159:50010
081110 210129 28 INFO dfs.FSNamesystem: BLOCK* NameSystem.delete: blk_40282952754890495-53 is added to invalidSet of 10.251.91.159:50010
081110 210129 28 INFO dfs.FSNamesystem: BLOCK* NameSystem.delete: blk_-795209964982424254 is added to invalidSet of 10.251.107.227:50010
081110 210129 28 INFO dfs.FSNamesystem: BLOCK* NameSystem.delete: blk_99024225854-6994742 is added to invalidSet of 10.251.107.227:50010
081110 210131 28 INFO dfs.FSNamesystem: BLOCK* NameSystem.delete: blk_7606019272539977822 is added to invalidSet of 10.251.67.211:50010
081110 210131 28 INFO dfs.FSNamesystem: BLOCK* NameSystem.delete: blk_2012095967967783272 is added to invalidSet of 10.251.67.211:50010
081110 210132 28 INFO dfs.FSNamesystem: BLOCK* NameSystem.delete: blk_1960893136630391966 is added to invalidSet of 10.251.39.144:50010
081110 210132 28 INFO dfs.FSNamesystem: BLOCK* NameSystem.delete: blk_1960361183390639966 is added to invalidSet of 10.251.39.144:50010
081110 210142 28 INFO dfs.FSNamesystem: BLOCK* NameSystem.delete: blk_-8632488927959646482 is added to invalidSet of 10.251.39.64:50010
081110 210142 28 INFO dfs.FSNamesystem: BLOCK* NameSystem.delete: blk_4662728969-549428883 is added to invalidSet of 10.251.39.64:50010
081110 210144 28 INFO dfs.FSNamesystem: BLOCK* NameSystem.delete: blk_1302893891174665780 is added to invalidSet of 10.251.214.225:50010
081110 210144 28 INFO dfs.FSNamesystem: BLOCK* NameSystem.delete: blk_9893024638171715068 is added to invalidSet of 10.251.214.225:50010
081110 210145 28 INFO dfs.FSNamesystem: BLOCK* NameSystem.delete: blk_-490230821467544285 is added to invalidSet of 10.250.10.6:50010
081110 210145 28 INFO dfs.FSNamesystem: BLOCK* NameSystem.delete: blk_42-8694051228447530 is added to invalidSet of 10.250.10.6:50010
081110 210146 28 INFO dfs.FSNamesystem: BLOCK* NameSystem.delete: blk_4713968111267226537 is added to invalidSet of 10.251.70.5:50010
081110 210146 28 INFO dfs.FSNamesystem: BLOCK* NameSystem.delete: blk_9173187641226367521 is added to invalidSet of 10.251.70.5:50010
081110 210146 28 INFO dfs.FSNamesystem: BLOCK* NameSystem.delete: blk_7473411975130090672 is added to invalidSet of 10.251.75.143:50010
081110 210146 28 INFO dfs.FSNamesystem: BLOCK* NameSystem.delete: blk_5132397707401019647 is added to invalidSet of 10.251.75.143:50010
081110 210147 28 INFO dfs.FSNamesystem: BLOCK* NameSystem.delete: blk_753559000954836892 is added to invalidSet of 10.251.30.101:50010
081110 210147 28 INFO dfs.FSNamesystem: BLOCK* NameSystem.delete: blk_358025085690743995 is added to invalidSet of 10.251.30.101:50010
081110 210147 28 INFO dfs.FSNamesystem: BLOCK* NameSystem.delete: blk_9085898147979939648 is added to invalidSet of 10.251.67.225:50010
081110 210147 28 INFO dfs.FSNamesystem: BLOCK* NameSystem.delete: blk_6349907988499958871 is added to invalidSet of 10.251.67.225:50010
081110 210148 28 INFO dfs.FSNamesystem: BLOCK* NameSystem.delete: blk_-5403209762224435166 is added to invalidSet of 10.251.125.193:50010
081110 210148 28 INFO dfs.FSNamesystem: BLOCK* NameSystem.delete: blk_5946210-632374042562 is added to invalidSet of 10.251.125.193:50010
081110 210149 28 INFO dfs.FSNamesystem: BLOCK* NameSystem.delete: blk_-6932221506331060207 is added to invalidSet of 10.251.74.79:50010
081110 210149 28 INFO dfs.FSNamesystem: BLOCK* NameSystem.delete: blk_57-63131662020230092 is added to invalidSet of 10.251.74.79:50010
081110 210149 28 INFO dfs.FSNamesystem: BLOCK* NameSystem.delete: blk_-7693277678281547790 is added to invalidSet of 10.251.30.6:50010
081110 210149 28 INFO dfs.FSNamesystem: BLOCK* NameSystem.delete: blk_372772998786645-0771 is added to invalidSet of 10.251.30.6:50010
081110 210151 28 INFO dfs.FSNamesystem: BLOCK* NameSystem.delete: blk_3792448673967861371 is added to invalidSet of 10.251.89.155:50010
081110 210151 28 INFO dfs.FSNamesystem: BLOCK* NameSystem.delete: blk_6786998173713726443 is added to invalidSet of 10.251.89.155:50010
081110 210151 28 INFO dfs.FSNamesystem: BLOCK* NameSystem.delete: blk_5496448884081025648 is added to invalidSet of 10.251.123.195:50010
081110 210151 28 INFO dfs.FSNamesystem: BLOCK* NameSystem.delete: blk_8484505408468468129 is added to invalidSet of 10.251.123.195:50010
081110 210153 28 INFO dfs.FSNamesystem: BLOCK* NameSystem.delete: blk_1102735311308675356 is added to invalidSet of 10.251.71.97:50010
081110 210153 28 INFO dfs.FSNamesystem: BLOCK* NameSystem.delete: blk_3630085167132351571 is added to invalidSet of 10.251.71.97:50010
081110 210153 28 INFO dfs.FSNamesystem: BLOCK* NameSystem.delete: blk_7094265091490664593 is added to invalidSet of 10.251.71.68:50010
081110 210153 28 INFO dfs.FSNamesystem: BLOCK* NameSystem.delete: blk_9129973060945446065 is added to invalidSet of 10.251.71.68:50010
081110 210157 28 INFO dfs.FSNamesystem: BLOCK* NameSystem.delete: blk_-1271403908410292619 is added to invalidSet of 10.251.43.147:50010
081110 210157 28 INFO dfs.FSNamesystem: BLOCK* NameSystem.delete: blk_1369-042890012741219 is added to invalidSet of 10.251.43.147:50010
081110 210201 28 INFO dfs.FSNamesystem: BLOCK* NameSystem.delete: blk_-2439225174716664723 is added to invalidSet of 10.251.42.207:50010
081110 210201 28 INFO dfs.FSNamesystem: BLOCK* NameSystem.delete: blk_757349236124472661-2 is added to invalidSet of 10.251.42.207:50010
081110 210201 28 INFO dfs.FSNamesystem: BLOCK* NameSystem.delete: blk_-9220604860626391374 is added to invalidSet of 10.251.30.179:50010
081110 210201 28 INFO dfs.FSNamesystem: BLOCK* NameSystem.delete: blk_0224986269017466-303 is added to invalidSet of 10.251.30.179:50010
081110 210210 14441 INFO dfs.DataNode$DataXceiver: 10.250.15.101:50010 Served block blk_-2557432794238860908 to /10.251.74.134
081110 210210 14441 INFO dfs.DataNode$DataXceiver: 10.250.15.101:50010 Served block blk_2900285-844795327368 to /10.251.74.134
081110 210243 14482 INFO dfs.DataNode$PacketResponder: Received block blk_-8214089520956286311 of size 67108864 from /10.251.26.131
081110 210243 14482 INFO dfs.DataNode$PacketResponder: Received block blk_58215928106-84619032 of size 67108864 from /10.251.26.131
081110 210252 18 INFO dfs.FSDataset: Deleting block blk_-8949548167466276130 file /mnt/hadoop/dfs/data/current/subdir2/blk_-8949548167466276130
081110 210252 18 INFO dfs.FSDataset: Deleting block blk_69-68194654380426177 file /mnt/hadoop/dfs/data/current/subdir2/blk_-0795427161884963466
081110 210255 14644 INFO dfs.DataNode$DataXceiver: Receiving block blk_-4831379247767940447 src: /10.251.65.237:42885 dest: /10.251.65.237:50010
081110 210255 14644 INFO dfs.DataNode$DataXceiver: Receiving block blk_743-6293097741748744 src: /10.251.65.237:42885 dest: /10.251.65.237:50010
081110 210259 19 INFO dfs.FSDataset: Deleting block blk_-7548149518969960333 file /mnt/hadoop/dfs/data/current/subdir8/blk_-7548149518969960333
081110 210259 19 INFO dfs.FSDataset: Deleting block blk_945065331879936-1489 file /mnt/hadoop/dfs/data/current/subdir8/blk_1964-458373980959316
081110 210308 19 INFO dfs.FSDataset: Deleting block blk_-7353572928777348242 file /mnt/hadoop/dfs/data/current/subdir22/blk_-7353572928777348242
081110 210308 19 INFO dfs.FSDataset: Deleting block blk_73779343282-75742852 file /mnt/hadoop/dfs/data/current/subdir22/blk_42737238798324-57725
081110 210330 19 INFO dfs.FSDataset: Deleting block blk_7206839389762980382 file /mnt/hadoop/dfs/data/current/subdir61/blk_7206839389762980382
081110 210330 19 INFO dfs.FSDataset: Deleting block blk_6233989729286803708 file /mnt/hadoop/dfs/data/current/subdir61/blk_0738833978229826906
081110 210339 19 INFO dfs.FSDataset: Deleting block blk_-9171803179611497035 file /mnt/hadoop/dfs/data/current/subdir35/blk_-9171803179611497035
081110 210339 19 INFO dfs.FSDataset: Deleting block blk_71719098619301173-54 file /mnt/hadoop/dfs/data/current/subdir35/blk_984501197-6190137731
081110 210354 19 INFO dfs.FSDataset: Deleting block blk_-4598246018559857954 file /mnt/hadoop/dfs/data/current/subdir34/blk_-4598246018559857954
081110 210354 19 INFO dfs.FSDataset: Deleting block blk_85597448506-52598941 file /mnt/hadoop/dfs/data/current/subdir34/blk_455689-9598045752418
081110 210354 19 INFO dfs.FSDataset: Deleting block blk_-6901909114834172466 file /mnt/hadoop/dfs/data/current/subdir57/blk_-6901909114834172466
081110 210354 19 INFO dfs.FSDataset: Deleting block blk_-0461791406936481129 file /mnt/hadoop/dfs/data/current/subdir57/blk_437899406-1610912461
081110 210401 19 INFO dfs.FSDataset: Deleting block blk_-6075803209168884005 file /mnt/hadoop/dfs/data/current/subdir31/blk_-6075803209168884005
081110 210401 19 INFO dfs.FSDataset: Deleting block blk_6915068003720548-808 file /mnt/hadoop/dfs/data/current/subdir31/blk_30-87682108486000595
081110 210401 19 INFO dfs.FSDataset: Deleting block blk_-8617088607862430908 file /mnt/hadoop/dfs/data/current/subdir53/blk_-8617088607862430908
081110 210401 19 INFO dfs.FSDataset: Deleting block blk_86284686190-08037078 file /mnt/hadoop/dfs/data/current/subdir53/blk_8-981637080684702608
081110 210403 14498 INFO dfs.DataNode$DataXceiver: Receiving block blk_7347539858784653625 src: /10.250.11.194:46600 dest: /10.250.11.194:50010
081110 210403 14498 INFO dfs.DataNode$DataXceiver: Receiving block blk_2465894587857335736 src: /10.250.11.194:46600 dest: /10.250.11.194:50010
081110 210404 19 INFO dfs.FSDataset: Deleting block blk_7855353385462032387 file /mnt/hadoop/dfs/data/current/subdir41/blk_7855353385462032387
081110 210404 19 INFO dfs.FSDataset: Deleting block blk_3283555334206757883 file /mnt/hadoop/dfs/data/current/subdir41/blk_2333358647835572508
081110 210413 19 INFO dfs.FSDataset: Deleting block blk_3733339790842827121 file /mnt/hadoop/dfs/data/current/subdir42/blk_3733339790842827121
081110 210413 19 INFO dfs.FSDataset: Deleting block blk_2140122839789333377 file /mnt/hadoop/dfs/data/current/subdir42/blk_2833177720482391393
081110 210417 19 INFO dfs.FSDataset: Deleting block blk_-9017308542351369260 file /mnt/hadoop/dfs/data/current/subdir14/blk_-9017308542351369260
081110 210417 19 INFO dfs.FSDataset: Deleting block blk_6200903965274511-383 file /mnt/hadoop/dfs/data/current/subdir14/blk_0104826993-303575216
081110 210422 11315 INFO dfs.DataNode$PacketResponder: Received block blk_-3734839878416656496 of size 67108864 from /10.251.66.102
081110 210422 11315 INFO dfs.DataNode$PacketResponder: Received block blk_8678714-683596336494 of size 67108864 from /10.251.66.102
081110 210423 19 INFO dfs.FSDataset: Deleting block blk_-8360774680830158225 file /mnt/hadoop/dfs/data/current/subdir31/blk_-8360774680830158225
081110 210423 19 INFO dfs.FSDataset: Deleting block blk_263065088403857827-1 file /mnt/hadoop/dfs/data/current/subdir31/blk_0280716358342075-688
081110 210425 19 INFO dfs.FSDataset: Deleting block blk_-6942784423611603919 file /mnt/hadoop/dfs/data/current/subdir38/blk_-6942784423611603919
081110 210425 19 INFO dfs.FSDataset: Deleting block blk_966-7499601133844122 file /mnt/hadoop/dfs/data/current/subdir38/blk_29684032199671144-63
081110 210427 19 INFO dfs.FSDataset: Deleting block blk_-5603192027616633151 file /mnt/hadoop/dfs/data/current/subdir34/blk_-5603192027616633151
081110 210427 19 INFO dfs.FSDataset: Deleting block blk_06121029-31365536716 file /mnt/hadoop/dfs/data/current/subdir34/blk_05736-31121362516690
081110 210442 19 INFO dfs.FSDataset: Deleting block blk_-7854501109698465657 file /mnt/hadoop/dfs/data/current/subdir34/blk_-7854501109698465657
081110 210442 19 INFO dfs.FSDataset: Deleting block blk_465-0507458661979158 file /mnt/hadoop/dfs/data/current/subdir34/blk_54745-06818566579901
081110 210449 19 INFO dfs.FSDataset: Deleting block blk_-4551689611865410817 file /mnt/hadoop/dfs/data/current/blk_-4551689611865410817
081110 210449 19 INFO dfs.FSDataset: Deleting block blk_691518746541-0885161 file /mnt/hadoop/dfs/data/current/blk_65-61645178549110818
081110 210450 19 INFO dfs.FSDataset: Deleting block blk_-1750007847201154657 file /mnt/hadoop/dfs/data/current/subdir1/blk_-1750007847201154657
081110 210450 19 INFO dfs.FSDataset: Deleting block blk_107510027774565-0841 file /mnt/hadoop/dfs/data/current/subdir1/blk_8165250177004770415-
081110 210502 19 INFO dfs.FSDataset: Deleting block blk_-3564493590065542578 file /mnt/hadoop/dfs/data/current/subdir55/blk_-3564493590065542578
081110 210502 19 INFO dfs.FSDataset: Deleting block blk_04054753995525-34686 file /mnt/hadoop/dfs/data/current/subdir55/blk_5804599450236-475563
081110 210509 18 INFO dfs.FSDataset: Deleting block blk_-2929627680703662712 file /mnt/hadoop/dfs/data/current/subdir32/blk_-2929627680703662712
081110 210509 18 INFO dfs.FSDataset: Deleting block blk_9213776-606292267802 file /mnt/hadoop/dfs/data/current/subdir32/blk_60829292606-37261727
081110 210510 19 INFO dfs.FSDataset: Deleting block blk_2708206493147801743 file /mnt/hadoop/dfs/data/current/subdir15/blk_2708206493147801743
081110 210510 19 INFO dfs.FSDataset: Deleting block blk_0024342973610188747 file /mnt/hadoop/dfs/data/current/subdir15/blk_0817104449836322770
081110 210511 19 INFO dfs.FSDataset: Deleting block blk_-4110699195744660699 file /mnt/hadoop/dfs/data/current/subdir34/blk_-4110699195744660699
081110 210511 19 INFO dfs.FSDataset: Deleting block blk_6964-101056971694949 file /mnt/hadoop/dfs/data/current/subdir34/blk_9114769950-660499164
081110 210512 19 INFO dfs.FSDataset: Deleting block blk_7721951162137927252 file /mnt/hadoop/dfs/data/current/subdir52/blk_7721951162137927252
081110 210512 19 INFO dfs.FSDataset: Deleting block blk_9951132757162772122 file /mnt/hadoop/dfs/data/current/subdir52/blk_9772796222112755113
081110 210515 19 INFO dfs.FSDataset: Deleting block blk_-1535908830476495455 file /mnt/hadoop/dfs/data/current/subdir10/blk_-1535908830476495455
081110 210515 19 INFO dfs.FSDataset: Deleting block blk_87350585-54930564149 file /mnt/hadoop/dfs/data/current/subdir10/blk_3453517-940655580489
081110 210516 19 INFO dfs.FSDataset: Deleting block blk_1184972950286241114 file /mnt/hadoop/dfs/data/current/subdir39/blk_1184972950286241114
081110 210516 19 INFO dfs.FSDataset: Deleting block blk_1214882191454609127 file /mnt/hadoop/dfs/data/current/subdir39/blk_1891246427541191082
081110 210517 19 INFO dfs.FSDataset: Deleting block blk_-3396836569886642130 file /mnt/hadoop/dfs/data/current/subdir32/blk_-3396836569886642130
081110 210517 19 INFO dfs.FSDataset: Deleting block blk_683-1889636604563923 file /mnt/hadoop/dfs/data/current/subdir32/blk_610663-8864935393682
081110 210532 19 INFO dfs.FSDataset: Deleting block blk_22457656256024207 file /mnt/hadoop/dfs/data/current/subdir33/blk_22457656256024207
081110 210532 19 INFO dfs.FSDataset: Deleting block blk_25452276670225406 file /mnt/hadoop/dfs/data/current/subdir33/blk_72255627456402260
081110 210534 19 INFO dfs.FSDataset: Deleting block blk_5905689738251144455 file /mnt/hadoop/dfs/data/current/blk_5905689738251144455
081110 210534 19 INFO dfs.FSDataset: Deleting block blk_9514826851440957535 file /mnt/hadoop/dfs/data/current/blk_5592905448811764355
081110 210537 19 INFO dfs.FSDataset: Deleting block blk_-2210703755506918304 file /mnt/hadoop/dfs/data/current/subdir26/blk_-2210703755506918304
081110 210537 19 INFO dfs.FSDataset: Deleting block blk_439021727500160-3585 file /mnt/hadoop/dfs/data/current/subdir26/blk_4227183130500509756-
081110 210540 18 INFO dfs.FSDataset: Deleting block blk_773599351835388127 file /mnt/hadoop/dfs/data/current/subdir60/blk_773599351835388127
081110 210540 18 INFO dfs.FSDataset: Deleting block blk_593379837721515838 file /mnt/hadoop/dfs/data/current/subdir60/blk_153953177288758393
081110 210540 19 INFO dfs.FSDataset: Deleting block blk_3921292580505776296 file /mnt/hadoop/dfs/data/current/subdir57/blk_3921292580505776296
081110 210540 19 INFO dfs.FSDataset: Deleting block blk_1559092392576726082 file /mnt/hadoop/dfs/data/current/subdir57/blk_9722989107650255263
081110 210542 19 INFO dfs.FSDataset: Deleting block blk_4162832865986721185 file /mnt/hadoop/dfs/data/current/subdir4/blk_4162832865986721185
081110 210542 19 INFO dfs.FSDataset: Deleting block blk_2849878626113518265 file /mnt/hadoop/dfs/data/current/subdir4/blk_5163482882665897121
081110 210545 19 INFO dfs.FSDataset: Deleting block blk_2156262111024914941 file /mnt/hadoop/dfs/data/current/subdir14/blk_2156262111024914941
081110 210545 19 INFO dfs.FSDataset: Deleting block blk_5142126914911426201 file /mnt/hadoop/dfs/data/current/subdir14/blk_1216149126291240541
081110 210548 19 INFO dfs.FSDataset: Deleting block blk_4658551441818960395 file /mnt/hadoop/dfs/data/current/subdir19/blk_4658551441818960395
081110 210548 19 INFO dfs.FSDataset: Deleting block blk_1968885590461414355 file /mnt/hadoop/dfs/data/current/subdir19/blk_1180556395814844695
081110 210549 19 INFO dfs.FSDataset: Deleting block blk_3076992299328673559 file /mnt/hadoop/dfs/data/current/subdir54/blk_3076992299328673559
081110 210549 19 INFO dfs.FSDataset: Deleting block blk_9369295269932078573 file /mnt/hadoop/dfs/data/current/subdir54/blk_5039696958233799722
081110 210549 19 INFO dfs.FSDataset: Deleting block blk_6085442148007558065 file /mnt/hadoop/dfs/data/current/subdir63/blk_6085442148007558065
081110 210549 19 INFO dfs.FSDataset: Deleting block blk_6168400585470585024 file /mnt/hadoop/dfs/data/current/subdir63/blk_2007055480556861844
081110 210555 19 INFO dfs.FSDataset: Deleting block blk_1746384029810476219 file /mnt/hadoop/dfs/data/current/subdir18/blk_1746384029810476219
081110 210555 19 INFO dfs.FSDataset: Deleting block blk_2790632896440174181 file /mnt/hadoop/dfs/data/current/subdir18/blk_4419863410607128972
081110 210555 19 INFO dfs.FSDataset: Deleting block blk_4939101994162863442 file /mnt/hadoop/dfs/data/current/subdir24/blk_4939101994162863442
081110 210555 19 INFO dfs.FSDataset: Deleting block blk_4201499643923189614 file /mnt/hadoop/dfs/data/current/subdir24/blk_1984269914033942461
081110 210558 19 INFO dfs.FSDataset: Deleting block blk_1144571179430079218 file /mnt/hadoop/dfs/data/current/subdir33/blk_1144571179430079218
081110 210558 19 INFO dfs.FSDataset: Deleting block blk_4789570171141294103 file /mnt/hadoop/dfs/data/current/subdir33/blk_9790851042114137147
081110 210558 19 INFO dfs.FSDataset: Deleting block blk_8693774866554287286 file /mnt/hadoop/dfs/data/current/subdir55/blk_8693774866554287286
081110 210558 19 INFO dfs.FSDataset: Deleting block blk_5689728668457823764 file /mnt/hadoop/dfs/data/current/subdir55/blk_3467496277865828865
081110 210600 18 INFO dfs.FSDataset: Deleting block blk_6695517786834913217 file /mnt/hadoop/dfs/data/current/subdir15/blk_6695517786834913217
081110 210600 18 INFO dfs.FSDataset: Deleting block blk_5947632731857698116 file /mnt/hadoop/dfs/data/current/subdir15/blk_1539779123646878516
081110 210601 19 INFO dfs.FSDataset: Deleting block blk_70980361971054326 file /mnt/hadoop/dfs/data/current/subdir27/blk_70980361971054326
081110 210601 19 INFO dfs.FSDataset: Deleting block blk_80347009956161732 file /mnt/hadoop/dfs/data/current/subdir27/blk_68046013092971573
081110 210608 19 INFO dfs.FSDataset: Deleting block blk_6499414220139660338 file /mnt/hadoop/dfs/data/current/subdir59/blk_6499414220139660338
081110 210608 19 INFO dfs.FSDataset: Deleting block blk_9134324402901683966 file /mnt/hadoop/dfs/data/current/subdir59/blk_9442368610609329413
081110 210620 19 INFO dfs.FSDataset: Deleting block blk_8598135237831029828 file /mnt/hadoop/dfs/data/current/subdir59/blk_8598135237831029828
081110 210620 19 INFO dfs.FSDataset: Deleting block blk_8188322253830951798 file /mnt/hadoop/dfs/data/current/subdir59/blk_5027295312988838381
081110 210640 19 INFO dfs.FSDataset: Deleting block blk_7108974241330205218 file /mnt/hadoop/dfs/data/current/subdir22/blk_7108974241330205218
081110 210640 19 INFO dfs.FSDataset: Deleting block blk_4020270591188142337 file /mnt/hadoop/dfs/data/current/subdir22/blk_7730129022834518014
081110 210704 19 INFO dfs.FSDataset: Deleting block blk_8929806114713265094 file /mnt/hadoop/dfs/data/current/subdir1/blk_8929806114713265094
081110 210704 19 INFO dfs.FSDataset: Deleting block blk_0965894217193648102 file /mnt/hadoop/dfs/data/current/subdir1/blk_5198160216949730824
081110 210710 19 INFO dfs.FSDataset: Deleting block blk_6445339027653789144 file /mnt/hadoop/dfs/data/current/subdir16/blk_6445339027653789144
081110 210710 19 INFO dfs.FSDataset: Deleting block blk_6530512477398444396 file /mnt/hadoop/dfs/data/current/subdir16/blk_9143342376094756584
081110 210721 14857 INFO dfs.DataNode$DataXceiver: Receiving block blk_3235988328669699941 src: /10.251.199.159:43276 dest: /10.251.199.159:50010
081110 210721 14857 INFO dfs.DataNode$DataXceiver: Receiving block blk_6363599232189648989 src: /10.251.199.159:43276 dest: /10.251.199.159:50010
081110 210737 19 INFO dfs.FSDataset: Deleting block blk_8699831307500970779 file /mnt/hadoop/dfs/data/current/subdir54/blk_8699831307500970779
081110 210737 19 INFO dfs.FSDataset: Deleting block blk_9901800799853777603 file /mnt/hadoop/dfs/data/current/subdir54/blk_9800579069390718737
081110 210753 19 INFO dfs.FSDataset: Deleting block blk_3221204570666147236 file /mnt/hadoop/dfs/data/current/subdir34/blk_3221204570666147236
081110 210753 19 INFO dfs.FSDataset: Deleting block blk_2372664514321062670 file /mnt/hadoop/dfs/data/current/subdir34/blk_7100632312642264765
081110 210832 14473 INFO dfs.DataNode$DataXceiver: Receiving block blk_-5808893254440551816 src: /10.250.11.194:53256 dest: /10.250.11.194:50010
081110 210832 14473 INFO dfs.DataNode$DataXceiver: Receiving block blk_825458811844-6503059 src: /10.250.11.194:53256 dest: /10.250.11.194:50010
081110 210837 14418 INFO dfs.DataNode$PacketResponder: PacketResponder 1 for block blk_3940282600163903101 terminating
081110 210837 14418 INFO dfs.DataNode$PacketResponder: PacketResponder 1 for block blk_0938490011366122030 terminating
081110 211021 14407 INFO dfs.DataNode$DataXceiver: Receiving block blk_4233013542759682998 src: /10.251.109.209:48041 dest: /10.251.109.209:50010
081110 211021 14407 INFO dfs.DataNode$DataXceiver: Receiving block blk_3852932836207915944 src: /10.251.109.209:48041 dest: /10.251.109.209:50010
081110 211030 19 INFO dfs.FSDataset: Deleting block blk_7360639743953947587 file /mnt/hadoop/dfs/data/current/subdir35/blk_7360639743953947587
081110 211030 19 INFO dfs.FSDataset: Deleting block blk_3759479976343750386 file /mnt/hadoop/dfs/data/current/subdir35/blk_4793973306773695485
081110 211108 14882 INFO dfs.DataNode$PacketResponder: Received block blk_4182287230523664560 of size 67108864 from /10.251.111.130
081110 211108 14882 INFO dfs.DataNode$PacketResponder: Received block blk_5881422730460322566 of size 67108864 from /10.251.111.130
081110 211109 14620 INFO dfs.DataNode$DataXceiver: Receiving block blk_995094303184954394 src: /10.251.91.84:35590 dest: /10.251.91.84:50010
081110 211109 14620 INFO dfs.DataNode$DataXceiver: Receiving block blk_133049599948359404 src: /10.251.91.84:35590 dest: /10.251.91.84:50010
081110 211122 33 INFO dfs.FSNamesystem: BLOCK* NameSystem.addStoredBlock: blockMap updated: 10.251.30.6:50010 is added to blk_3585424189730250601 size 67108864
081110 211122 33 INFO dfs.FSNamesystem: BLOCK* NameSystem.addStoredBlock: blockMap updated: 10.251.30.6:50010 is added to blk_6839103782154245500 size 67108864
081110 211131 14600 INFO dfs.DataNode$PacketResponder: PacketResponder 1 for block blk_-5680441982827916621 terminating
081110 211131 14600 INFO dfs.DataNode$PacketResponder: PacketResponder 1 for block blk_51629628-04168947128 terminating
081110 211323 14609 INFO dfs.DataNode$PacketResponder: PacketResponder 0 for block blk_2089955821703690032 terminating
081110 211323 14609 INFO dfs.DataNode$PacketResponder: PacketResponder 0 for block blk_0192895033280965207 terminating
081110 211355 32 INFO dfs.FSNamesystem: BLOCK* NameSystem.addStoredBlock: blockMap updated: 10.251.106.10:50010 is added to blk_1151012386083696649 size 67108864
081110 211355 32 INFO dfs.FSNamesystem: BLOCK* NameSystem.addStoredBlock: blockMap updated: 10.251.106.10:50010 is added to blk_6065390166918112834 size 67108864
081110 211358 14754 INFO dfs.DataNode$DataXceiver: Receiving block blk_4149909442914612270 src: /10.251.195.33:55490 dest: /10.251.195.33:50010
081110 211358 14754 INFO dfs.DataNode$DataXceiver: Receiving block blk_9224916147424094190 src: /10.251.195.33:55490 dest: /10.251.195.33:50010
081110 211410 14947 INFO dfs.DataNode$PacketResponder: PacketResponder 0 for block blk_2282833575688432184 terminating
081110 211410 14947 INFO dfs.DataNode$PacketResponder: PacketResponder 0 for block blk_3452284263882837581 terminating
081110 211504 14451 INFO dfs.DataNode$PacketResponder: Received block blk_3960527526103274525 of size 67108864 from /10.251.30.134
081110 211504 14451 INFO dfs.DataNode$PacketResponder: Received block blk_6212007563557295324 of size 67108864 from /10.251.30.134
081110 211523 14688 INFO dfs.DataNode$DataXceiver: Receiving block blk_-852118157909078164 src: /10.251.30.101:57254 dest: /10.251.30.101:50010
081110 211523 14688 INFO dfs.DataNode$DataXceiver: Receiving block blk_941-170125518880679 src: /10.251.30.101:57254 dest: /10.251.30.101:50010
081110 211541 18 INFO dfs.DataNode: 10.250.15.198:50010 Starting thread to transfer block blk_4292382298896622412 to 10.250.15.240:50010
081110 211541 18 INFO dfs.DataNode: 10.250.15.198:50010 Starting thread to transfer block blk_2932862828292126944 to 10.250.15.240:50010
081110 211737 14817 INFO dfs.DataNode$PacketResponder: Received block blk_-185994527242886002 of size 3552954 from /10.251.39.160
081110 211737 14817 INFO dfs.DataNode$PacketResponder: Received block blk_78990485248256201-2 of size 3552954 from /10.251.39.160
081110 211845 26 INFO dfs.FSNamesystem: BLOCK* NameSystem.addStoredBlock: blockMap updated: 10.251.73.188:50010 is added to blk_8761786041973172187 size 67108864
081110 211845 26 INFO dfs.FSNamesystem: BLOCK* NameSystem.addStoredBlock: blockMap updated: 10.251.73.188:50010 is added to blk_1681771319470872786 size 67108864
081110 211926 26 INFO dfs.FSNamesystem: BLOCK* NameSystem.addStoredBlock: blockMap updated: 10.251.70.211:50010 is added to blk_-5471660287004025096 size 67108864
081110 211926 26 INFO dfs.FSNamesystem: BLOCK* NameSystem.addStoredBlock: blockMap updated: 10.251.70.211:50010 is added to blk_974200670-5645860120 size 67108864
081110 212039 14833 INFO dfs.DataNode$PacketResponder: PacketResponder 1 for block blk_3755116621101133849 terminating
081110 212039 14833 INFO dfs.DataNode$PacketResponder: PacketResponder 1 for block blk_4315011678191352136 terminating
081110 212051 26 INFO dfs.FSNamesystem: BLOCK* NameSystem.addStoredBlock: blockMap updated: 10.251.39.144:50010 is added to blk_-5542336029922582303 size 67108864
081110 212051 26 INFO dfs.FSNamesystem: BLOCK* NameSystem.addStoredBlock: blockMap updated: 10.251.39.144:50010 is added to blk_35-22032229033486955 size 67108864
081110 212111 14543 INFO dfs.DataNode$PacketResponder: PacketResponder 0 for block blk_165707910410871749 terminating
081110 212111 14543 INFO dfs.DataNode$PacketResponder: PacketResponder 0 for block blk_191079748170017654 terminating
081110 212139 14759 INFO dfs.DataNode$PacketResponder: PacketResponder 0 for block blk_2957756905007569214 terminating
081110 212139 14759 INFO dfs.DataNode$PacketResponder: PacketResponder 0 for block blk_9555162956702704079 terminating
081110 212221 15037 INFO dfs.DataNode$PacketResponder: PacketResponder 1 for block blk_4884219613602801814 terminating
081110 212221 15037 INFO dfs.DataNode$PacketResponder: PacketResponder 1 for block blk_8234206684101148891 terminating
081110 212234 14745 INFO dfs.DataNode$PacketResponder: Received block blk_6698851413708497072 of size 67108864 from /10.251.74.134
081110 212234 14745 INFO dfs.DataNode$PacketResponder: Received block blk_0179438742758866901 of size 67108864 from /10.251.74.134
081110 212249 14727 INFO dfs.DataNode$PacketResponder: Received block blk_6730979070070986233 of size 67108864 from /10.251.90.239
081110 212249 14727 INFO dfs.DataNode$PacketResponder: Received block blk_2603097307909687730 of size 67108864 from /10.251.90.239
081110 212258 19 INFO dfs.FSDataset: Deleting block blk_-468830939205980722 file /mnt/hadoop/dfs/data/current/subdir10/blk_-468830939205980722
081110 212258 19 INFO dfs.FSDataset: Deleting block blk_46209729805380839-2 file /mnt/hadoop/dfs/data/current/subdir10/blk_502828309697320984-
081110 212312 15013 INFO dfs.DataNode$PacketResponder: Received block blk_-7056746602297676104 of size 67108864 from /10.251.39.209
081110 212312 15013 INFO dfs.DataNode$PacketResponder: Received block blk_0676561946647-700722 of size 67108864 from /10.251.39.209
081110 212329 14784 INFO dfs.DataNode$DataXceiver: Receiving block blk_8473858691873523269 src: /10.250.11.53:60609 dest: /10.250.11.53:50010
081110 212329 14784 INFO dfs.DataNode$DataXceiver: Receiving block blk_6898235723478638519 src: /10.250.11.53:60609 dest: /10.250.11.53:50010
081110 212501 15023 INFO dfs.DataNode$PacketResponder: Received block blk_6686361711974377273 of size 3554889 from /10.251.214.130
081110 212501 15023 INFO dfs.DataNode$PacketResponder: Received block blk_7666319777314812763 of size 3554889 from /10.251.214.130
081110 212509 34 INFO dfs.FSNamesystem: BLOCK* NameSystem.addStoredBlock: blockMap updated: 10.251.123.33:50010 is added to blk_-6442394521537090621 size 67108864
081110 212509 34 INFO dfs.FSNamesystem: BLOCK* NameSystem.addStoredBlock: blockMap updated: 10.251.123.33:50010 is added to blk_91-26351447920536420 size 67108864
081110 212510 19 INFO dfs.FSNamesystem: BLOCK* ask 10.250.18.114:50010 to delete  blk_-5140072410813878235
081110 212510 19 INFO dfs.FSNamesystem: BLOCK* ask 10.250.18.114:50010 to delete  blk_17387825203-45401810
081110 212556 27 INFO dfs.FSNamesystem: BLOCK* NameSystem.addStoredBlock: blockMap updated: 10.251.91.84:50010 is added to blk_6039898256291822367 size 67108864
081110 212556 27 INFO dfs.FSNamesystem: BLOCK* NameSystem.addStoredBlock: blockMap updated: 10.251.91.84:50010 is added to blk_8879693629230682251 size 67108864
081110 212644 28 INFO dfs.FSNamesystem: BLOCK* NameSystem.allocateBlock: /user/root/rand3/_temporary/_task_200811101024_0005_m_000720_0/part-00720. blk_-7988596544606686086
081110 212644 28 INFO dfs.FSNamesystem: BLOCK* NameSystem.allocateBlock: /user/root/rand3/_temporary/_task_200811101024_0005_m_000720_0/part-00720. blk_9-560858667689440866
081110 212831 14962 INFO dfs.DataNode$PacketResponder: PacketResponder 1 for block blk_5729560286355779655 terminating
081110 212831 14962 INFO dfs.DataNode$PacketResponder: PacketResponder 1 for block blk_9372567859255565760 terminating
081110 212851 28 INFO dfs.FSNamesystem: BLOCK* NameSystem.addStoredBlock: blockMap updated: 10.251.126.5:50010 is added to blk_-989798817617753264 size 67108864
081110 212851 28 INFO dfs.FSNamesystem: BLOCK* NameSystem.addStoredBlock: blockMap updated: 10.251.126.5:50010 is added to blk_3485797819-71679826 size 67108864
081110 212942 15258 INFO dfs.DataNode$PacketResponder: Received block blk_-2242088550278361724 of size 67108864 from /10.251.123.20
081110 212942 15258 INFO dfs.DataNode$PacketResponder: Received block blk_388-6021252047825427 of size 67108864 from /10.251.123.20
081110 213021 15065 INFO dfs.DataNode$PacketResponder: Received block blk_5602895463700536678 of size 67108864 from /10.251.30.179
081110 213021 15065 INFO dfs.DataNode$PacketResponder: Received block blk_4506559806203763786 of size 67108864 from /10.251.30.179
081110 213026 15051 INFO dfs.DataNode$DataXceiver: Receiving block blk_7580930377559819562 src: /10.251.110.68:54793 dest: /10.251.110.68:50010
081110 213026 15051 INFO dfs.DataNode$DataXceiver: Receiving block blk_2359770953908816575 src: /10.251.110.68:54793 dest: /10.251.110.68:50010
081110 213221 15038 INFO dfs.DataNode$PacketResponder: PacketResponder 0 for block blk_429279891070363457 terminating
081110 213221 15038 INFO dfs.DataNode$PacketResponder: PacketResponder 0 for block blk_077292913705344986 terminating
081110 213334 15049 INFO dfs.DataNode$PacketResponder: PacketResponder 0 for block blk_-9132218772786220159 terminating
081110 213334 15049 INFO dfs.DataNode$PacketResponder: PacketResponder 0 for block blk_0177292212789213-586 terminating
081110 213351 15202 INFO dfs.DataNode$DataXceiver: Receiving block blk_-2901266958756042716 src: /10.251.110.160:35787 dest: /10.251.110.160:50010
081110 213351 15202 INFO dfs.DataNode$DataXceiver: Receiving block blk_768121625049-7920566 src: /10.251.110.160:35787 dest: /10.251.110.160:50010
081110 213423 14805 INFO dfs.DataNode$PacketResponder: Received block blk_6323743466920239525 of size 67108864 from /10.250.15.67
081110 213423 14805 INFO dfs.DataNode$PacketResponder: Received block blk_3659204263976235423 of size 67108864 from /10.250.15.67
081110 213434 15194 INFO dfs.DataNode$PacketResponder: PacketResponder 2 for block blk_-7948158002985968470 terminating
081110 213434 15194 INFO dfs.DataNode$PacketResponder: PacketResponder 2 for block blk_091987558-6409048278 terminating
081110 213448 15242 INFO dfs.DataNode$DataXceiver: Receiving block blk_-8974021306351083168 src: /10.251.91.15:40699 dest: /10.251.91.15:50010
081110 213448 15242 INFO dfs.DataNode$DataXceiver: Receiving block blk_30673821640-18190538 src: /10.251.91.15:40699 dest: /10.251.91.15:50010
081110 213534 15015 INFO dfs.DataNode$PacketResponder: PacketResponder 1 for block blk_-4917866339076366459 terminating
081110 213534 15015 INFO dfs.DataNode$PacketResponder: PacketResponder 1 for block blk_49-45697783396366601 terminating
081110 213723 27 INFO dfs.FSNamesystem: BLOCK* NameSystem.addStoredBlock: blockMap updated: 10.251.214.112:50010 is added to blk_8063831442998721547 size 67108864
081110 213723 27 INFO dfs.FSNamesystem: BLOCK* NameSystem.addStoredBlock: blockMap updated: 10.251.214.112:50010 is added to blk_9839305212876471484 size 67108864
081110 213816 28 INFO dfs.FSNamesystem: BLOCK* NameSystem.allocateBlock: /user/root/rand3/_temporary/_task_200811101024_0005_m_001091_0/part-01091. blk_-4468645577339843974
081110 213816 28 INFO dfs.FSNamesystem: BLOCK* NameSystem.allocateBlock: /user/root/rand3/_temporary/_task_200811101024_0005_m_001091_0/part-01091. blk_944436-4379673874855
081110 213828 15327 INFO dfs.DataNode$DataXceiver: Receiving block blk_9121519145462575118 src: /10.250.10.223:58281 dest: /10.250.10.223:50010
081110 213828 15327 INFO dfs.DataNode$DataXceiver: Receiving block blk_2151949416215571158 src: /10.250.10.223:58281 dest: /10.250.10.223:50010
081110 213833 15315 INFO dfs.DataNode$PacketResponder: PacketResponder 2 for block blk_-6773301007994789531 terminating
081110 213833 15315 INFO dfs.DataNode$PacketResponder: PacketResponder 2 for block blk_73403709779659018-31 terminating
081110 213854 15334 INFO dfs.DataNode$DataXceiver: Receiving block blk_-878226404201600469 src: /10.250.7.96:40849 dest: /10.250.7.96:50010
081110 213854 15334 INFO dfs.DataNode$DataXceiver: Receiving block blk_26004428-0468296710 src: /10.250.7.96:40849 dest: /10.250.7.96:50010
081110 213959 15103 INFO dfs.DataNode$PacketResponder: Received block blk_-6031720401337601269 of size 67108864 from /10.250.10.100
081110 213959 15103 INFO dfs.DataNode$PacketResponder: Received block blk_230270-0619316304716 of size 67108864 from /10.250.10.100
081110 214044 28 INFO dfs.FSNamesystem: BLOCK* NameSystem.addStoredBlock: blockMap updated: 10.251.198.33:50010 is added to blk_-5159573936338473350 size 67108864
081110 214044 28 INFO dfs.FSNamesystem: BLOCK* NameSystem.addStoredBlock: blockMap updated: 10.251.198.33:50010 is added to blk_05933537633198-34755 size 67108864
081110 214101 15116 INFO dfs.DataNode$PacketResponder: PacketResponder 0 for block blk_-703436021914343546 terminating
081110 214101 15116 INFO dfs.DataNode$PacketResponder: PacketResponder 0 for block blk_75644403-6331394201 terminating
081110 214117 15141 INFO dfs.DataNode$PacketResponder: Received block blk_-8641647081502666269 of size 67108864 from /10.250.10.100
081110 214117 15141 INFO dfs.DataNode$PacketResponder: Received block blk_0944621682-658671066 of size 67108864 from /10.250.10.100
081110 214226 15186 INFO dfs.DataNode$DataXceiver: Receiving block blk_3542047035353248258 src: /10.250.6.214:59051 dest: /10.250.6.214:50010
081110 214226 15186 INFO dfs.DataNode$DataXceiver: Receiving block blk_2283323445530085574 src: /10.250.6.214:59051 dest: /10.250.6.214:50010
081110 214321 15339 INFO dfs.DataNode$PacketResponder: PacketResponder 2 for block blk_-736188013503336717 terminating
081110 214321 15339 INFO dfs.DataNode$PacketResponder: PacketResponder 2 for block blk_06376-1573130883371 terminating
081110 214404 15111 INFO dfs.DataNode$PacketResponder: Received block blk_1188202922232921994 of size 67108864 from /10.250.10.100
081110 214404 15111 INFO dfs.DataNode$PacketResponder: Received block blk_1949210292829222318 of size 67108864 from /10.250.10.100
081110 214525 35 INFO dfs.FSNamesystem: BLOCK* NameSystem.addStoredBlock: blockMap updated: 10.251.195.33:50010 is added to blk_-9049344623659872649 size 67108864
081110 214525 35 INFO dfs.FSNamesystem: BLOCK* NameSystem.addStoredBlock: blockMap updated: 10.251.195.33:50010 is added to blk_37492494-95396606248 size 67108864
081110 214634 15356 INFO dfs.DataNode$PacketResponder: PacketResponder 0 for block blk_4575129504644372394 terminating
081110 214634 15356 INFO dfs.DataNode$PacketResponder: PacketResponder 0 for block blk_4554506329474127349 terminating
081110 214823 15099 INFO dfs.DataNode$DataXceiver: Receiving block blk_8574493302165689212 src: /10.251.194.245:34656 dest: /10.251.194.245:50010
081110 214823 15099 INFO dfs.DataNode$DataXceiver: Receiving block blk_1245236602153894879 src: /10.251.194.245:34656 dest: /10.251.194.245:50010
081110 214907 33 INFO dfs.FSNamesystem: BLOCK* NameSystem.addStoredBlock: blockMap updated: 10.251.107.19:50010 is added to blk_5574898547439146021 size 67108864
081110 214907 33 INFO dfs.FSNamesystem: BLOCK* NameSystem.addStoredBlock: blockMap updated: 10.251.107.19:50010 is added to blk_3419789105475425486 size 67108864
081110 215003 15501 INFO dfs.DataNode$PacketResponder: Received block blk_2474460483915499078 of size 67108864 from /10.251.195.52
081110 215003 15501 INFO dfs.DataNode$PacketResponder: Received block blk_8845620440193749749 of size 67108864 from /10.251.195.52
081110 215057 15637 INFO dfs.DataNode$PacketResponder: Received block blk_7851643274522055587 of size 67108864 from /10.251.214.112
081110 215057 15637 INFO dfs.DataNode$PacketResponder: Received block blk_4520672475878215355 of size 67108864 from /10.251.214.112
081110 215111 15220 INFO dfs.DataNode$PacketResponder: Received block blk_8097409435735325492 of size 67108864 from /10.251.111.209
081110 215111 15220 INFO dfs.DataNode$PacketResponder: Received block blk_4539422554093790378 of size 67108864 from /10.251.111.209
081110 215117 15436 INFO dfs.DataNode$PacketResponder: PacketResponder 2 for block blk_-966013175018359901 terminating
081110 215117 15436 INFO dfs.DataNode$PacketResponder: PacketResponder 2 for block blk_817596009531191063- terminating
081110 215253 35 INFO dfs.FSNamesystem: BLOCK* NameSystem.allocateBlock: /user/root/rand3/_temporary/_task_200811101024_0005_m_001655_0/part-01655. blk_-6802153775367591521
081110 215253 35 INFO dfs.FSNamesystem: BLOCK* NameSystem.allocateBlock: /user/root/rand3/_temporary/_task_200811101024_0005_m_001655_0/part-01655. blk_727-7155912805656331
081110 215310 15040 INFO dfs.DataNode$PacketResponder: Received block blk_-3300851862683571086 of size 67108864 from /10.251.203.166
081110 215310 15040 INFO dfs.DataNode$PacketResponder: Received block blk_8881323613076-500856 of size 67108864 from /10.251.203.166
081110 215310 34 INFO dfs.FSNamesystem: BLOCK* NameSystem.addStoredBlock: blockMap updated: 10.251.105.189:50010 is added to blk_-2035996502664501008 size 67108864
081110 215310 34 INFO dfs.FSNamesystem: BLOCK* NameSystem.addStoredBlock: blockMap updated: 10.251.105.189:50010 is added to blk_2006554980-560096132 size 67108864
081110 215357 15296 INFO dfs.DataNode$DataXceiver: Receiving block blk_8222237992861447018 src: /10.251.203.4:60086 dest: /10.251.203.4:50010
081110 215357 15296 INFO dfs.DataNode$DataXceiver: Receiving block blk_2782244201129867398 src: /10.251.203.4:60086 dest: /10.251.203.4:50010
081110 215546 15564 INFO dfs.DataNode$DataXceiver: Receiving block blk_6556854018013706836 src: /10.251.202.134:48721 dest: /10.251.202.134:50010
081110 215546 15564 INFO dfs.DataNode$DataXceiver: Receiving block blk_5068311876683056450 src: /10.251.202.134:48721 dest: /10.251.202.134:50010
081110 215546 15644 INFO dfs.DataNode$PacketResponder: Received block blk_8302956190102508375 of size 67108864 from /10.251.109.236
081110 215546 15644 INFO dfs.DataNode$PacketResponder: Received block blk_9208672581150950330 of size 67108864 from /10.251.109.236
081110 215654 15437 INFO dfs.DataNode$DataXceiver: Receiving block blk_-2583370070230800221 src: /10.251.31.160:58714 dest: /10.251.31.160:50010
081110 215654 15437 INFO dfs.DataNode$DataXceiver: Receiving block blk_32780201327-00302805 src: /10.251.31.160:58714 dest: /10.251.31.160:50010
081110 215722 15450 INFO dfs.DataNode$DataXceiver: Receiving block blk_392347292517057138 src: /10.251.31.160:58721 dest: /10.251.31.160:50010
081110 215722 15450 INFO dfs.DataNode$DataXceiver: Receiving block blk_222519871703533794 src: /10.251.31.160:58721 dest: /10.251.31.160:50010
081110 215726 15711 INFO dfs.DataNode$PacketResponder: PacketResponder 2 for block blk_1639683981444528748 terminating
081110 215726 15711 INFO dfs.DataNode$PacketResponder: PacketResponder 2 for block blk_9461838842794461583 terminating
081110 215726 15721 INFO dfs.DataNode$DataXceiver: Receiving block blk_5525607749827896334 src: /10.251.66.102:33326 dest: /10.251.66.102:50010
081110 215726 15721 INFO dfs.DataNode$DataXceiver: Receiving block blk_7936587253204756849 src: /10.251.66.102:33326 dest: /10.251.66.102:50010
081110 215806 15819 INFO dfs.DataNode$PacketResponder: PacketResponder 0 for block blk_6809155287484296510 terminating
081110 215806 15819 INFO dfs.DataNode$PacketResponder: PacketResponder 0 for block blk_1154689495722688500 terminating
081110 215813 15758 INFO dfs.DataNode$PacketResponder: PacketResponder 2 for block blk_-5908283405801966540 terminating
081110 215813 15758 INFO dfs.DataNode$PacketResponder: PacketResponder 2 for block blk_02880980-36945605154 terminating
081110 215817 27 INFO dfs.FSNamesystem: BLOCK* NameSystem.allocateBlock: /user/root/rand3/_temporary/_task_200811101024_0005_m_001824_0/part-01824. blk_-4654885003331291932
081110 215817 27 INFO dfs.FSNamesystem: BLOCK* NameSystem.allocateBlock: /user/root/rand3/_temporary/_task_200811101024_0005_m_001824_0/part-01824. blk_2418340955381306-293
081110 220009 15450 INFO dfs.DataNode$PacketResponder: Received block blk_-8923698979247229952 of size 67108864 from /10.251.90.239
081110 220009 15450 INFO dfs.DataNode$PacketResponder: Received block blk_429897299-9728625923 of size 67108864 from /10.251.90.239
081110 220042 30 INFO dfs.FSNamesystem: BLOCK* NameSystem.addStoredBlock: blockMap updated: 10.251.91.84:50010 is added to blk_-2321016155994168744 size 67108864
081110 220042 30 INFO dfs.FSNamesystem: BLOCK* NameSystem.addStoredBlock: blockMap updated: 10.251.91.84:50010 is added to blk_6645-584191907142321 size 67108864
081110 220148 15613 INFO dfs.DataNode$PacketResponder: Received block blk_-2151458111813215098 of size 67108864 from /10.250.9.207
081110 220148 15613 INFO dfs.DataNode$PacketResponder: Received block blk_1814-525209111588131 of size 67108864 from /10.250.9.207
081110 220238 15679 INFO dfs.DataNode$PacketResponder: PacketResponder 0 for block blk_-1733154814375651491 terminating
081110 220238 15679 INFO dfs.DataNode$PacketResponder: PacketResponder 0 for block blk_7341415487-159151633 terminating
081110 220312 15681 INFO dfs.DataNode$DataXceiver: Receiving block blk_-3187293586306086277 src: /10.251.35.1:50933 dest: /10.251.35.1:50010
081110 220312 15681 INFO dfs.DataNode$DataXceiver: Receiving block blk_63620-03736218978785 src: /10.251.35.1:50933 dest: /10.251.35.1:50010
081110 220314 15849 INFO dfs.DataNode$DataXceiver: Receiving block blk_-7914996925059840931 src: /10.251.91.15:59714 dest: /10.251.91.15:50010
081110 220314 15849 INFO dfs.DataNode$DataXceiver: Receiving block blk_99010754269195-84993 src: /10.251.91.15:59714 dest: /10.251.91.15:50010
081110 220350 15848 INFO dfs.DataNode$PacketResponder: Received block blk_5379939266348893280 of size 67108864 from /10.251.66.63
081110 220350 15848 INFO dfs.DataNode$PacketResponder: Received block blk_8653923839697384029 of size 67108864 from /10.251.66.63
081110 220626 34 INFO dfs.FSNamesystem: BLOCK* NameSystem.delete: blk_8981795097778421111 is added to invalidSet of 10.251.194.129:50010
081110 220626 34 INFO dfs.FSNamesystem: BLOCK* NameSystem.delete: blk_9111778295987814017 is added to invalidSet of 10.251.194.129:50010
081110 220630 34 INFO dfs.FSNamesystem: BLOCK* NameSystem.delete: blk_1979447750586388860 is added to invalidSet of 10.251.215.192:50010
081110 220630 34 INFO dfs.FSNamesystem: BLOCK* NameSystem.delete: blk_9556874870968341870 is added to invalidSet of 10.251.215.192:50010
081110 220636 32 INFO dfs.FSNamesystem: BLOCK* NameSystem.delete: blk_3332848207645320273 is added to invalidSet of 10.251.90.64:50010
081110 220636 32 INFO dfs.FSNamesystem: BLOCK* NameSystem.delete: blk_2043372732342683850 is added to invalidSet of 10.251.90.64:50010
081110 220636 32 INFO dfs.FSNamesystem: BLOCK* NameSystem.delete: blk_6881216037013929188 is added to invalidSet of 10.251.91.32:50010
081110 220636 32 INFO dfs.FSNamesystem: BLOCK* NameSystem.delete: blk_9880768111306128293 is added to invalidSet of 10.251.91.32:50010
081110 220637 32 INFO dfs.FSNamesystem: BLOCK* NameSystem.delete: blk_7541621664406141215 is added to invalidSet of 10.251.214.32:50010
081110 220637 32 INFO dfs.FSNamesystem: BLOCK* NameSystem.delete: blk_5261440745211416661 is added to invalidSet of 10.251.214.32:50010
081110 220645 32 INFO dfs.FSNamesystem: BLOCK* NameSystem.delete: blk_-1680175975862749862 is added to invalidSet of 10.250.14.38:50010
081110 220645 32 INFO dfs.FSNamesystem: BLOCK* NameSystem.delete: blk_46776-21816920578598 is added to invalidSet of 10.250.14.38:50010
081110 220646 32 INFO dfs.FSNamesystem: BLOCK* NameSystem.delete: blk_5176179471361959897 is added to invalidSet of 10.250.9.207:50010
081110 220646 32 INFO dfs.FSNamesystem: BLOCK* NameSystem.delete: blk_5596919114967778371 is added to invalidSet of 10.250.9.207:50010
081110 220648 32 INFO dfs.FSNamesystem: BLOCK* NameSystem.delete: blk_-4385347171136037814 is added to invalidSet of 10.251.67.113:50010
081110 220648 32 INFO dfs.FSNamesystem: BLOCK* NameSystem.delete: blk_-4487803311751343716 is added to invalidSet of 10.251.67.113:50010
081110 220648 32 INFO dfs.FSNamesystem: BLOCK* NameSystem.delete: blk_8384329882986724706 is added to invalidSet of 10.251.123.195:50010
081110 220648 32 INFO dfs.FSNamesystem: BLOCK* NameSystem.delete: blk_7888766898034223942 is added to invalidSet of 10.251.123.195:50010
081110 220650 32 INFO dfs.FSNamesystem: BLOCK* NameSystem.delete: blk_6392434729242722288 is added to invalidSet of 10.251.30.134:50010
081110 220650 32 INFO dfs.FSNamesystem: BLOCK* NameSystem.delete: blk_7237228492349226824 is added to invalidSet of 10.251.30.134:50010
081110 220651 32 INFO dfs.FSNamesystem: BLOCK* NameSystem.delete: blk_1714886759174770356 is added to invalidSet of 10.251.31.5:50010
081110 220651 32 INFO dfs.FSNamesystem: BLOCK* NameSystem.delete: blk_6579167787150473841 is added to invalidSet of 10.251.31.5:50010
081110 220651 32 INFO dfs.FSNamesystem: BLOCK* NameSystem.delete: blk_7400944190976416273 is added to invalidSet of 10.251.127.243:50010
081110 220651 32 INFO dfs.FSNamesystem: BLOCK* NameSystem.delete: blk_0690641444912790377 is added to invalidSet of 10.251.127.243:50010
081110 220651 32 INFO dfs.FSNamesystem: BLOCK* NameSystem.delete: blk_8442157310069672329 is added to invalidSet of 10.251.39.64:50010
081110 220651 32 INFO dfs.FSNamesystem: BLOCK* NameSystem.delete: blk_2391942326810706547 is added to invalidSet of 10.251.39.64:50010
081110 220653 32 INFO dfs.FSNamesystem: BLOCK* NameSystem.delete: blk_-5624558200776510955 is added to invalidSet of 10.251.107.242:50010
081110 220653 32 INFO dfs.FSNamesystem: BLOCK* NameSystem.delete: blk_71256558240756-95500 is added to invalidSet of 10.251.107.242:50010
081110 220655 32 INFO dfs.FSNamesystem: BLOCK* NameSystem.delete: blk_1481009974400305784 is added to invalidSet of 10.251.39.242:50010
081110 220655 32 INFO dfs.FSNamesystem: BLOCK* NameSystem.delete: blk_0810047903447418950 is added to invalidSet of 10.251.39.242:50010
081110 220655 32 INFO dfs.FSNamesystem: BLOCK* NameSystem.delete: blk_355286618997526877 is added to invalidSet of 10.250.7.32:50010
081110 220655 32 INFO dfs.FSNamesystem: BLOCK* NameSystem.delete: blk_672817572669839855 is added to invalidSet of 10.250.7.32:50010
081110 220655 32 INFO dfs.FSNamesystem: BLOCK* NameSystem.delete: blk_-7369651436133452001 is added to invalidSet of 10.251.127.191:50010
081110 220655 32 INFO dfs.FSNamesystem: BLOCK* NameSystem.delete: blk_101034639-6533761452 is added to invalidSet of 10.251.127.191:50010
081110 220656 32 INFO dfs.FSNamesystem: BLOCK* NameSystem.delete: blk_-8353423262983821010 is added to invalidSet of 10.251.39.209:50010
081110 220656 32 INFO dfs.FSNamesystem: BLOCK* NameSystem.delete: blk_0516038388294-232321 is added to invalidSet of 10.251.39.209:50010
081110 220658 32 INFO dfs.FSNamesystem: BLOCK* NameSystem.delete: blk_7017399031777870797 is added to invalidSet of 10.250.5.161:50010
081110 220658 32 INFO dfs.FSNamesystem: BLOCK* NameSystem.delete: blk_9017787771377009793 is added to invalidSet of 10.250.5.161:50010
081110 220708 19 INFO dfs.FSDataset: Deleting block blk_-6891122177443047531 file /mnt/hadoop/dfs/data/current/subdir36/blk_-6891122177443047531
081110 220708 19 INFO dfs.FSDataset: Deleting block blk_1436571724317204189- file /mnt/hadoop/dfs/data/current/subdir36/blk_16083275971-21347144
081110 220711 30 INFO dfs.FSNamesystem: BLOCK* NameSystem.allocateBlock: /user/root/randtxt3/_temporary/_task_200811101024_0007_m_000190_0/part-00190. blk_641646158310569454
081110 220711 30 INFO dfs.FSNamesystem: BLOCK* NameSystem.allocateBlock: /user/root/randtxt3/_temporary/_task_200811101024_0007_m_000190_0/part-00190. blk_364458064155941616
081110 220749 19 INFO dfs.FSDataset: Deleting block blk_-9171930401624803515 file /mnt/hadoop/dfs/data/current/subdir56/blk_-9171930401624803515
081110 220749 19 INFO dfs.FSDataset: Deleting block blk_27040330151184-95196 file /mnt/hadoop/dfs/data/current/subdir56/blk_1490142901736301-855
081110 220801 32 INFO dfs.FSNamesystem: BLOCK* NameSystem.addStoredBlock: blockMap updated: 10.251.42.84:50010 is added to blk_5938666289587069744 size 67108864
081110 220801 32 INFO dfs.FSNamesystem: BLOCK* NameSystem.addStoredBlock: blockMap updated: 10.251.42.84:50010 is added to blk_8662785698049769435 size 67108864
081110 220804 19 INFO dfs.FSDataset: Deleting block blk_-8294986551316947211 file /mnt/hadoop/dfs/data/current/subdir34/blk_-8294986551316947211
081110 220804 19 INFO dfs.FSDataset: Deleting block blk_-5148697546921318192 file /mnt/hadoop/dfs/data/current/subdir34/blk_12988146549-52719613
081110 220811 19 INFO dfs.FSDataset: Deleting block blk_-5718504625725408070 file /mnt/hadoop/dfs/data/current/blk_-5718504625725408070
081110 220811 19 INFO dfs.FSDataset: Deleting block blk_6-288551707704520504 file /mnt/hadoop/dfs/data/current/blk_05408704257150678-52
081110 220830 29 INFO dfs.FSNamesystem: BLOCK* NameSystem.allocateBlock: /user/root/randtxt3/_temporary/_task_200811101024_0007_m_000374_0/part-00374. blk_-1941312615450572331
081110 220830 29 INFO dfs.FSNamesystem: BLOCK* NameSystem.allocateBlock: /user/root/randtxt3/_temporary/_task_200811101024_0007_m_000374_0/part-00374. blk_-1353534426117152910
081110 220853 19 INFO dfs.FSDataset: Deleting block blk_2353918919834315845 file /mnt/hadoop/dfs/data/current/subdir35/blk_2353918919834315845
081110 220853 19 INFO dfs.FSDataset: Deleting block blk_5383915839824391451 file /mnt/hadoop/dfs/data/current/subdir35/blk_4815539591334981328
081110 220907 19 INFO dfs.FSDataset: Deleting block blk_391507259220628397 file /mnt/hadoop/dfs/data/current/blk_391507259220628397
081110 220907 19 INFO dfs.FSDataset: Deleting block blk_021567599733982022 file /mnt/hadoop/dfs/data/current/blk_326209939877522051
081110 220909 19 INFO dfs.FSDataset: Deleting block blk_-1263913006422225885 file /mnt/hadoop/dfs/data/current/subdir2/blk_-1263913006422225885
081110 220909 19 INFO dfs.FSDataset: Deleting block blk_3268290351042215862- file /mnt/hadoop/dfs/data/current/subdir2/blk_461-2139828552003226
081110 220911 19 INFO dfs.FSDataset: Deleting block blk_6542592144596063478 file /mnt/hadoop/dfs/data/current/subdir35/blk_6542592144596063478
081110 220911 19 INFO dfs.FSDataset: Deleting block blk_3518590452646644279 file /mnt/hadoop/dfs/data/current/subdir35/blk_5794641862064545329
081110 220916 15860 INFO dfs.DataNode$DataXceiver: Receiving block blk_-4473277914543734578 src: /10.251.215.16:34762 dest: /10.251.215.16:50010
081110 220916 15860 INFO dfs.DataNode$DataXceiver: Receiving block blk_72184435-74757439374 src: /10.251.215.16:34762 dest: /10.251.215.16:50010
081110 220921 19 INFO dfs.FSDataset: Deleting block blk_1689772850125323349 file /mnt/hadoop/dfs/data/current/subdir27/blk_1689772850125323349
081110 220921 19 INFO dfs.FSDataset: Deleting block blk_9508932131527643728 file /mnt/hadoop/dfs/data/current/subdir27/blk_8738301942526372951
081110 220923 19 INFO dfs.FSDataset: Deleting block blk_8615522912610884162 file /mnt/hadoop/dfs/data/current/subdir35/blk_8615522912610884162
081110 220923 19 INFO dfs.FSDataset: Deleting block blk_8666142021925815182 file /mnt/hadoop/dfs/data/current/subdir35/blk_0629561542821816218
081110 220925 19 INFO dfs.FSDataset: Deleting block blk_107727140948970996 file /mnt/hadoop/dfs/data/current/subdir33/blk_107727140948970996
081110 220925 19 INFO dfs.FSDataset: Deleting block blk_677179940708294019 file /mnt/hadoop/dfs/data/current/subdir33/blk_779491104926087790
081110 220936 19 INFO dfs.FSDataset: Deleting block blk_-1598760065436384831 file /mnt/hadoop/dfs/data/current/subdir53/blk_-1598760065436384831
081110 220936 19 INFO dfs.FSDataset: Deleting block blk_69501073846-43581638 file /mnt/hadoop/dfs/data/current/subdir53/blk_41303065858768413-69
081110 220955 19 INFO dfs.FSDataset: Deleting block blk_8950932638808086257 file /mnt/hadoop/dfs/data/current/subdir18/blk_8950932638808086257
081110 220955 19 INFO dfs.FSDataset: Deleting block blk_2908803028738986655 file /mnt/hadoop/dfs/data/current/subdir18/blk_8069857802035382689
081110 221033 15695 INFO dfs.DataNode$PacketResponder: Received block blk_-8835758154471700679 of size 67108864 from /10.251.73.188
081110 221033 15695 INFO dfs.DataNode$PacketResponder: Received block blk_797056454310187885-7 of size 67108864 from /10.251.73.188
081110 221038 16067 INFO dfs.DataNode$DataXceiver: Receiving block blk_323887415551221572 src: /10.251.39.144:46278 dest: /10.251.39.144:50010
081110 221038 16067 INFO dfs.DataNode$DataXceiver: Receiving block blk_737115555228312824 src: /10.251.39.144:46278 dest: /10.251.39.144:50010
081110 221125 15347 INFO dfs.DataNode$PacketResponder: Received block blk_231502148921342925 of size 67108864 from /10.251.215.192
081110 221125 15347 INFO dfs.DataNode$PacketResponder: Received block blk_213899241014252253 of size 67108864 from /10.251.215.192
081110 221134 16153 INFO dfs.DataNode$PacketResponder: PacketResponder 2 for block blk_1349228381785843634 terminating
081110 221134 16153 INFO dfs.DataNode$PacketResponder: PacketResponder 2 for block blk_1318833244828547639 terminating
081110 221212 28 INFO dfs.FSNamesystem: BLOCK* NameSystem.allocateBlock: /user/root/randtxt3/_temporary/_task_200811101024_0007_m_000186_0/part-00186. blk_-6754647973871368247
081110 221212 28 INFO dfs.FSNamesystem: BLOCK* NameSystem.allocateBlock: /user/root/randtxt3/_temporary/_task_200811101024_0007_m_000186_0/part-00186. blk_8769-778613447672354
081110 221253 15107 INFO dfs.DataNode$DataXceiver: Receiving block blk_-7539658633533020967 src: /10.250.5.161:52151 dest: /10.250.5.161:50010
081110 221253 15107 INFO dfs.DataNode$DataXceiver: Receiving block blk_5337630576089-633259 src: /10.250.5.161:52151 dest: /10.250.5.161:50010
081110 221343 15521 INFO dfs.DataNode$PacketResponder: Received block blk_6406847509870023726 of size 67108864 from /10.251.106.50
081110 221343 15521 INFO dfs.DataNode$PacketResponder: Received block blk_2030568470684297706 of size 67108864 from /10.251.106.50
081110 221447 28 INFO dfs.FSNamesystem: BLOCK* NameSystem.addStoredBlock: blockMap updated: 10.251.43.115:50010 is added to blk_-7893636450787030202 size 67108864
081110 221447 28 INFO dfs.FSNamesystem: BLOCK* NameSystem.addStoredBlock: blockMap updated: 10.251.43.115:50010 is added to blk_043029-8337080576627 size 67108864
081110 221653 15684 INFO dfs.DataNode$PacketResponder: Received block blk_-5777981614298940026 of size 67108864 from /10.251.214.67
081110 221653 15684 INFO dfs.DataNode$PacketResponder: Received block blk_89210-66257407417899 of size 67108864 from /10.251.214.67
081110 221803 15957 INFO dfs.DataNode$PacketResponder: Received block blk_4231049049582051919 of size 28496610 from /10.250.19.227
081110 221803 15957 INFO dfs.DataNode$PacketResponder: Received block blk_5084423249011951099 of size 28496610 from /10.250.19.227
081110 221932 19 INFO dfs.FSNamesystem: BLOCK* ask 10.251.122.79:50010 to delete  blk_8048594464172649365
081110 221932 19 INFO dfs.FSNamesystem: BLOCK* ask 10.251.122.79:50010 to delete  blk_4094392476846458561
081110 221943 15858 INFO dfs.DataNode$DataXceiver: Receiving block blk_4414644179961808738 src: /10.251.107.98:46161 dest: /10.251.107.98:50010
081110 221943 15858 INFO dfs.DataNode$DataXceiver: Receiving block blk_4849414916486137078 src: /10.251.107.98:46161 dest: /10.251.107.98:50010
081110 222039 16041 INFO dfs.DataNode$DataXceiver: Receiving block blk_7661189768086976193 src: /10.251.195.52:56915 dest: /10.251.195.52:50010
081110 222039 16041 INFO dfs.DataNode$DataXceiver: Receiving block blk_7967697186381616980 src: /10.251.195.52:56915 dest: /10.251.195.52:50010
081110 222052 16100 INFO dfs.DataNode$PacketResponder: PacketResponder 1 for block blk_-7170175035335391571 terminating
081110 222052 16100 INFO dfs.DataNode$PacketResponder: PacketResponder 1 for block blk_15033375-15793770115 terminating
081110 222130 27 INFO dfs.FSNamesystem: BLOCK* NameSystem.addStoredBlock: blockMap updated: 10.250.15.198:50010 is added to blk_4992622607400168655 size 67108864
081110 222130 27 INFO dfs.FSNamesystem: BLOCK* NameSystem.addStoredBlock: blockMap updated: 10.250.15.198:50010 is added to blk_0254207156966980624 size 67108864
081110 222221 15824 INFO dfs.DataNode$PacketResponder: PacketResponder 1 for block blk_8971893898579544235 terminating
081110 222221 15824 INFO dfs.DataNode$PacketResponder: PacketResponder 1 for block blk_9831755938992848475 terminating
081110 222321 16072 INFO dfs.DataNode$DataXceiver: Receiving block blk_-7418372263556457716 src: /10.251.89.155:53560 dest: /10.251.89.155:50010
081110 222321 16072 INFO dfs.DataNode$DataXceiver: Receiving block blk_74657137286375541-62 src: /10.251.89.155:53560 dest: /10.251.89.155:50010
081110 222413 16030 INFO dfs.DataNode$DataXceiver: Receiving block blk_-3417101330634563680 src: /10.251.110.68:44200 dest: /10.251.110.68:50010
081110 222413 16030 INFO dfs.DataNode$DataXceiver: Receiving block blk_11-41736433380060365 src: /10.251.110.68:44200 dest: /10.251.110.68:50010
081110 222455 16220 INFO dfs.DataNode$PacketResponder: Received block blk_4294115716822011564 of size 67108864 from /10.251.43.210
081110 222455 16220 INFO dfs.DataNode$PacketResponder: Received block blk_7621220548119141654 of size 67108864 from /10.251.43.210
081110 222459 35 INFO dfs.FSNamesystem: BLOCK* NameSystem.addStoredBlock: blockMap updated: 10.251.39.160:50010 is added to blk_1865953191447352631 size 67108864
081110 222459 35 INFO dfs.FSNamesystem: BLOCK* NameSystem.addStoredBlock: blockMap updated: 10.251.39.160:50010 is added to blk_3871443515995166213 size 67108864
081110 222511 16129 INFO dfs.DataNode$DataXceiver: Receiving block blk_2147212041377545584 src: /10.251.75.49:34485 dest: /10.251.75.49:50010
081110 222511 16129 INFO dfs.DataNode$DataXceiver: Receiving block blk_4401225721384747551 src: /10.251.75.49:34485 dest: /10.251.75.49:50010
081110 222512 16222 INFO dfs.DataNode$PacketResponder: PacketResponder 0 for block blk_708101772844351082 terminating
081110 222512 16222 INFO dfs.DataNode$PacketResponder: PacketResponder 0 for block blk_858318472047201710 terminating
081110 222529 15925 INFO dfs.DataNode$PacketResponder: PacketResponder 0 for block blk_-5610308397633191834 terminating
081110 222529 15925 INFO dfs.DataNode$PacketResponder: PacketResponder 0 for block blk_36-81304956108373193 terminating
081110 222621 16005 INFO dfs.DataNode$PacketResponder: PacketResponder 2 for block blk_-7159695919045792245 terminating
081110 222621 16005 INFO dfs.DataNode$PacketResponder: PacketResponder 2 for block blk_-9099779596524515142 terminating
081110 222712 33 INFO dfs.FSNamesystem: BLOCK* NameSystem.addStoredBlock: blockMap updated: 10.251.71.68:50010 is added to blk_8850044049297409379 size 67108864
081110 222712 33 INFO dfs.FSNamesystem: BLOCK* NameSystem.addStoredBlock: blockMap updated: 10.251.71.68:50010 is added to blk_4998970850097244043 size 67108864
081110 222946 32 INFO dfs.FSNamesystem: BLOCK* NameSystem.allocateBlock: /user/root/randtxt3/_temporary/_task_200811101024_0007_m_000585_0/part-00585. blk_8561332122820208519
081110 222946 32 INFO dfs.FSNamesystem: BLOCK* NameSystem.allocateBlock: /user/root/randtxt3/_temporary/_task_200811101024_0007_m_000585_0/part-00585. blk_8121508630292522183
081110 222948 28 INFO dfs.FSNamesystem: BLOCK* NameSystem.addStoredBlock: blockMap updated: 10.251.67.113:50010 is added to blk_-8393060055740236791 size 67108864
081110 222948 28 INFO dfs.FSNamesystem: BLOCK* NameSystem.addStoredBlock: blockMap updated: 10.251.67.113:50010 is added to blk_82506003637049395-17 size 67108864
081110 222951 30 INFO dfs.FSNamesystem: BLOCK* NameSystem.addStoredBlock: blockMap updated: 10.251.122.38:50010 is added to blk_-5861348317118763621 size 28500222
081110 222951 30 INFO dfs.FSNamesystem: BLOCK* NameSystem.addStoredBlock: blockMap updated: 10.251.122.38:50010 is added to blk_53-67114812387686131 size 28500222
081110 223000 16174 INFO dfs.DataNode$PacketResponder: Received block blk_5174461779237739025 of size 67108864 from /10.250.14.143
081110 223000 16174 INFO dfs.DataNode$PacketResponder: Received block blk_0351794254797276371 of size 67108864 from /10.250.14.143
081110 223002 15950 INFO dfs.DataNode$DataXceiver: Receiving block blk_1463530401988623658 src: /10.251.111.37:41293 dest: /10.251.111.37:50010
081110 223002 15950 INFO dfs.DataNode$DataXceiver: Receiving block blk_1895356008361634482 src: /10.251.111.37:41293 dest: /10.251.111.37:50010
081110 223032 16147 INFO dfs.DataNode$PacketResponder: Received block blk_-8377763431920892140 of size 67108864 from /10.250.6.223
081110 223032 16147 INFO dfs.DataNode$PacketResponder: Received block blk_7938-233016742891407 of size 67108864 from /10.250.6.223
081110 223108 16252 INFO dfs.DataNode$DataXceiver: Receiving block blk_-1728983474612515818 src: /10.251.70.211:39459 dest: /10.251.70.211:50010
081110 223108 16252 INFO dfs.DataNode$DataXceiver: Receiving block blk_23958756178142-41881 src: /10.251.70.211:39459 dest: /10.251.70.211:50010
081110 223140 15976 INFO dfs.DataNode$DataXceiver: Receiving block blk_8007544297333060851 src: /10.251.90.134:47340 dest: /10.251.90.134:50010
081110 223140 15976 INFO dfs.DataNode$DataXceiver: Receiving block blk_3389441670520078503 src: /10.251.90.134:47340 dest: /10.251.90.134:50010
081110 223206 28 INFO dfs.FSNamesystem: BLOCK* NameSystem.addStoredBlock: blockMap updated: 10.250.7.230:50010 is added to blk_6238543795209416553 size 67108864
081110 223206 28 INFO dfs.FSNamesystem: BLOCK* NameSystem.addStoredBlock: blockMap updated: 10.250.7.230:50010 is added to blk_0922554934356178653 size 67108864
081110 223311 16266 INFO dfs.DataNode$DataXceiver: Receiving block blk_4599950495841528213 src: /10.251.194.102:59433 dest: /10.251.194.102:50010
081110 223311 16266 INFO dfs.DataNode$DataXceiver: Receiving block blk_4399519525415082498 src: /10.251.194.102:59433 dest: /10.251.194.102:50010
081110 223410 16237 INFO dfs.DataNode$PacketResponder: Received block blk_-8524952715666214329 of size 67108864 from /10.251.90.64
081110 223410 16237 INFO dfs.DataNode$PacketResponder: Received block blk_2813-749125692656524 of size 67108864 from /10.251.90.64
081110 223615 33 INFO dfs.FSNamesystem: BLOCK* NameSystem.addStoredBlock: blockMap updated: 10.251.127.243:50010 is added to blk_-5882295985950637419 size 67108864
081110 223615 33 INFO dfs.FSNamesystem: BLOCK* NameSystem.addStoredBlock: blockMap updated: 10.251.127.243:50010 is added to blk_988936185-5995742025 size 67108864
081110 223623 16188 INFO dfs.DataNode$PacketResponder: Received block blk_-1485109068671160157 of size 67108864 from /10.251.71.68
081110 223623 16188 INFO dfs.DataNode$PacketResponder: Received block blk_106-0149085751687116 of size 67108864 from /10.251.71.68
081110 223802 15593 INFO dfs.DataNode$PacketResponder: Received block blk_3586596428873150919 of size 67108864 from /10.251.26.131
081110 223802 15593 INFO dfs.DataNode$PacketResponder: Received block blk_6199830898753146525 of size 67108864 from /10.251.26.131
081110 223833 16297 INFO dfs.DataNode$DataXceiver: Receiving block blk_-7815259387557421424 src: /10.250.13.240:50649 dest: /10.250.13.240:50010
081110 223833 16297 INFO dfs.DataNode$DataXceiver: Receiving block blk_53927444585127-58172 src: /10.250.13.240:50649 dest: /10.250.13.240:50010
081110 223849 16493 INFO dfs.DataNode$DataXceiver: Receiving block blk_3358274959811806117 src: /10.251.106.214:51334 dest: /10.251.106.214:50010
081110 223849 16493 INFO dfs.DataNode$DataXceiver: Receiving block blk_8739310851146918725 src: /10.251.106.214:51334 dest: /10.251.106.214:50010
081110 223854 27 INFO dfs.FSNamesystem: BLOCK* NameSystem.addStoredBlock: blockMap updated: 10.251.90.239:50010 is added to blk_-5927343391895571936 size 67108864
081110 223854 27 INFO dfs.FSNamesystem: BLOCK* NameSystem.addStoredBlock: blockMap updated: 10.251.90.239:50010 is added to blk_7399795681139352534- size 67108864
081110 223905 16320 INFO dfs.DataNode$DataXceiver: Receiving block blk_8907528844412790999 src: /10.251.126.227:42572 dest: /10.251.126.227:50010
081110 223905 16320 INFO dfs.DataNode$DataXceiver: Receiving block blk_1227809909849478459 src: /10.251.126.227:42572 dest: /10.251.126.227:50010
081110 224059 16244 INFO dfs.DataNode$PacketResponder: PacketResponder 2 for block blk_5262186175243998904 terminating
081110 224059 16244 INFO dfs.DataNode$PacketResponder: PacketResponder 2 for block blk_4912351286578469902 terminating
081110 224154 31 INFO dfs.FSNamesystem: BLOCK* NameSystem.addStoredBlock: blockMap updated: 10.251.215.192:50010 is added to blk_-1704027189958470814 size 67108864
081110 224154 31 INFO dfs.FSNamesystem: BLOCK* NameSystem.addStoredBlock: blockMap updated: 10.251.215.192:50010 is added to blk_081075897941-0424817 size 67108864
081110 224209 16540 INFO dfs.DataNode$DataXceiver: Receiving block blk_-337665304078248571 src: /10.251.106.37:55462 dest: /10.251.106.37:50010
081110 224209 16540 INFO dfs.DataNode$DataXceiver: Receiving block blk_03267063-1783544857 src: /10.251.106.37:55462 dest: /10.251.106.37:50010
081110 224212 29 INFO dfs.FSNamesystem: BLOCK* NameSystem.addStoredBlock: blockMap updated: 10.251.106.50:50010 is added to blk_-2023442822091562967 size 67108864
081110 224212 29 INFO dfs.FSNamesystem: BLOCK* NameSystem.addStoredBlock: blockMap updated: 10.251.106.50:50010 is added to blk_72069-16042223289425 size 67108864
081110 224218 30 INFO dfs.FSNamesystem: BLOCK* NameSystem.addStoredBlock: blockMap updated: 10.251.198.196:50010 is added to blk_1779145401405339993 size 28499417
081110 224218 30 INFO dfs.FSNamesystem: BLOCK* NameSystem.addStoredBlock: blockMap updated: 10.251.198.196:50010 is added to blk_5499337144091031957 size 28499417
081110 224338 31 INFO dfs.FSNamesystem: BLOCK* NameSystem.addStoredBlock: blockMap updated: 10.251.199.159:50010 is added to blk_7705518309270121951 size 67108864
081110 224338 31 INFO dfs.FSNamesystem: BLOCK* NameSystem.addStoredBlock: blockMap updated: 10.251.199.159:50010 is added to blk_2757389952070511011 size 67108864
081110 224437 16512 INFO dfs.DataNode$PacketResponder: PacketResponder 1 for block blk_-9120005470237070778 terminating
081110 224437 16512 INFO dfs.DataNode$PacketResponder: PacketResponder 1 for block blk_02772500014-77897003 terminating
081110 224504 31 INFO dfs.FSNamesystem: BLOCK* NameSystem.addStoredBlock: blockMap updated: 10.250.7.32:50010 is added to blk_3849239820458663566 size 67108864
081110 224504 31 INFO dfs.FSNamesystem: BLOCK* NameSystem.addStoredBlock: blockMap updated: 10.250.7.32:50010 is added to blk_3699842336656420885 size 67108864
081110 224632 16607 INFO dfs.DataNode$DataXceiver: Receiving block blk_-1657856234642335063 src: /10.251.38.197:44516 dest: /10.251.38.197:50010
081110 224632 16607 INFO dfs.DataNode$DataXceiver: Receiving block blk_56-63412273065338465 src: /10.251.38.197:44516 dest: /10.251.38.197:50010
081110 224636 16576 INFO dfs.DataNode$PacketResponder: Received block blk_6490003020931145707 of size 67108864 from /10.251.42.246
081110 224636 16576 INFO dfs.DataNode$PacketResponder: Received block blk_6057030937901042014 of size 67108864 from /10.251.42.246
081110 224637 16371 INFO dfs.DataNode$PacketResponder: PacketResponder 2 for block blk_6048652012880073760 terminating
081110 224637 16371 INFO dfs.DataNode$PacketResponder: PacketResponder 2 for block blk_6275178436608200008 terminating
081110 224652 16437 INFO dfs.DataNode$PacketResponder: Received block blk_5648034804629064273 of size 67108864 from /10.251.91.159
081110 224652 16437 INFO dfs.DataNode$PacketResponder: Received block blk_6462680384434905702 of size 67108864 from /10.251.91.159
081110 224732 16377 INFO dfs.DataNode$PacketResponder: PacketResponder 1 for block blk_5912213716795619450 terminating
081110 224732 16377 INFO dfs.DataNode$PacketResponder: PacketResponder 1 for block blk_9495656927027311115 terminating
081110 224746 16694 INFO dfs.DataNode$PacketResponder: Received block blk_-5534560875087182998 of size 67108864 from /10.250.7.230
081110 224746 16694 INFO dfs.DataNode$PacketResponder: Received block blk_5581359972688840750- of size 67108864 from /10.250.7.230
081110 224755 26 INFO dfs.FSNamesystem: BLOCK* NameSystem.allocateBlock: /user/root/randtxt3/_temporary/_task_200811101024_0007_m_001560_0/part-01560. blk_3376391218693716925
081110 224755 26 INFO dfs.FSNamesystem: BLOCK* NameSystem.allocateBlock: /user/root/randtxt3/_temporary/_task_200811101024_0007_m_001560_0/part-01560. blk_1652998721363963731
081110 224817 16597 INFO dfs.DataNode$PacketResponder: PacketResponder 2 for block blk_2691304991047255190 terminating
081110 224817 16597 INFO dfs.DataNode$PacketResponder: PacketResponder 2 for block blk_9599220195761034401 terminating
081110 224932 32 INFO dfs.FSNamesystem: BLOCK* NameSystem.allocateBlock: /user/root/randtxt3/_temporary/_task_200811101024_0007_m_001230_0/part-01230. blk_8708862520108736953
081110 224932 32 INFO dfs.FSNamesystem: BLOCK* NameSystem.allocateBlock: /user/root/randtxt3/_temporary/_task_200811101024_0007_m_001230_0/part-01230. blk_7033920751686880258
081110 224938 26 INFO dfs.FSNamesystem: BLOCK* NameSystem.addStoredBlock: blockMap updated: 10.251.75.79:50010 is added to blk_-5718873743060788176 size 67108864
081110 224938 26 INFO dfs.FSNamesystem: BLOCK* NameSystem.addStoredBlock: blockMap updated: 10.251.75.79:50010 is added to blk_1877136085874-786730 size 67108864
081110 224958 16603 INFO dfs.DataNode$DataXceiver: Receiving block blk_-2989288139685694818 src: /10.250.19.227:60160 dest: /10.250.19.227:50010
081110 224958 16603 INFO dfs.DataNode$DataXceiver: Receiving block blk_698-8198883912856924 src: /10.250.19.227:60160 dest: /10.250.19.227:50010
081110 225056 16728 INFO dfs.DataNode$DataXceiver: Receiving block blk_6245594177708848366 src: /10.250.15.198:46793 dest: /10.250.15.198:50010
081110 225056 16728 INFO dfs.DataNode$DataXceiver: Receiving block blk_4652759476481788306 src: /10.250.15.198:46793 dest: /10.250.15.198:50010
081110 225124 16591 INFO dfs.DataNode$PacketResponder: Received block blk_4433676399725693167 of size 67108864 from /10.251.37.240
081110 225124 16591 INFO dfs.DataNode$PacketResponder: Received block blk_9373469736543961276 of size 67108864 from /10.251.37.240
081110 225213 16632 INFO dfs.DataNode$PacketResponder: Received block blk_-5644397018622018109 of size 67108864 from /10.251.109.236
081110 225213 16632 INFO dfs.DataNode$PacketResponder: Received block blk_104289856213-1070649 of size 67108864 from /10.251.109.236
081110 225305 16687 INFO dfs.DataNode$PacketResponder: Received block blk_-6986311820863339652 of size 67108864 from /10.251.71.240
081110 225305 16687 INFO dfs.DataNode$PacketResponder: Received block blk_36393236618256-81980 of size 67108864 from /10.251.71.240
081110 225351 29 INFO dfs.FSNamesystem: BLOCK* NameSystem.addStoredBlock: blockMap updated: 10.251.39.64:50010 is added to blk_207875475387433291 size 67108864
081110 225351 29 INFO dfs.FSNamesystem: BLOCK* NameSystem.addStoredBlock: blockMap updated: 10.251.39.64:50010 is added to blk_128487753437720395 size 67108864
081110 225400 34 INFO dfs.FSNamesystem: BLOCK* NameSystem.addStoredBlock: blockMap updated: 10.251.199.225:50010 is added to blk_-7115635482536854135 size 67108864
081110 225400 34 INFO dfs.FSNamesystem: BLOCK* NameSystem.addStoredBlock: blockMap updated: 10.251.199.225:50010 is added to blk_665473531241155538-8 size 67108864
081110 225423 16747 INFO dfs.DataNode$PacketResponder: Received block blk_-1956140031907143783 of size 67108864 from /10.251.70.112
081110 225423 16747 INFO dfs.DataNode$PacketResponder: Received block blk_83-37906715041430191 of size 67108864 from /10.251.70.112
081110 225642 16655 INFO dfs.DataNode$PacketResponder: Received block blk_7534378757788640871 of size 67108864 from /10.251.214.130
081110 225642 16655 INFO dfs.DataNode$PacketResponder: Received block blk_8357876877784714530 of size 67108864 from /10.251.214.130
081110 225740 33 INFO dfs.FSNamesystem: BLOCK* NameSystem.allocateBlock: /user/root/randtxt3/_temporary/_task_200811101024_0007_m_001662_0/part-01662. blk_8196657927516481490
081110 225740 33 INFO dfs.FSNamesystem: BLOCK* NameSystem.allocateBlock: /user/root/randtxt3/_temporary/_task_200811101024_0007_m_001662_0/part-01662. blk_1874568610459297691
081110 225813 16867 INFO dfs.DataNode$DataXceiver: Receiving block blk_-5029807829679779067 src: /10.251.122.79:49600 dest: /10.251.122.79:50010
081110 225813 16867 INFO dfs.DataNode$DataXceiver: Receiving block blk_297207879-0087796956 src: /10.251.122.79:49600 dest: /10.251.122.79:50010
081110 225905 16532 INFO dfs.DataNode$DataXceiver: Receiving block blk_-3657751236932275338 src: /10.251.123.99:50481 dest: /10.251.123.99:50010
081110 225905 16532 INFO dfs.DataNode$DataXceiver: Receiving block blk_5357-238325271769336 src: /10.251.123.99:50481 dest: /10.251.123.99:50010
081110 225947 26 INFO dfs.FSNamesystem: BLOCK* NameSystem.addStoredBlock: blockMap updated: 10.251.74.227:50010 is added to blk_1594026090263820445 size 67108864
081110 225947 26 INFO dfs.FSNamesystem: BLOCK* NameSystem.addStoredBlock: blockMap updated: 10.251.74.227:50010 is added to blk_4249508512060463920 size 67108864
081110 230105 13 INFO dfs.DataBlockScanner: Verification succeeded for blk_3894335463008345041
081110 230105 13 INFO dfs.DataBlockScanner: Verification succeeded for blk_4139343438006585304
081110 230202 28 INFO dfs.FSNamesystem: BLOCK* NameSystem.addStoredBlock: blockMap updated: 10.251.193.224:50010 is added to blk_-6299730951392868297 size 67108864
081110 230202 28 INFO dfs.FSNamesystem: BLOCK* NameSystem.addStoredBlock: blockMap updated: 10.251.193.224:50010 is added to blk_8973995299-662820371 size 67108864
081110 230314 16898 INFO dfs.DataNode$PacketResponder: PacketResponder 0 for block blk_157913239647511296 terminating
081110 230314 16898 INFO dfs.DataNode$PacketResponder: PacketResponder 0 for block blk_511257341679213996 terminating
081110 230315 16811 INFO dfs.DataNode$PacketResponder: PacketResponder 1 for block blk_-6454539193224916125 terminating
081110 230315 16811 INFO dfs.DataNode$PacketResponder: PacketResponder 1 for block blk_6929316-354245192145 terminating
081110 230338 34 INFO dfs.FSNamesystem: BLOCK* NameSystem.addStoredBlock: blockMap updated: 10.251.194.213:50010 is added to blk_-3575568207121859434 size 67108864
081110 230338 34 INFO dfs.FSNamesystem: BLOCK* NameSystem.addStoredBlock: blockMap updated: 10.251.194.213:50010 is added to blk_12548387591-30526574 size 67108864
081110 230457 16876 INFO dfs.DataNode$PacketResponder: PacketResponder 2 for block blk_-4325209272072286951 terminating
081110 230457 16876 INFO dfs.DataNode$PacketResponder: PacketResponder 2 for block blk_563202028-9247529172 terminating
081110 230508 29 INFO dfs.FSNamesystem: BLOCK* NameSystem.addStoredBlock: blockMap updated: 10.251.91.159:50010 is added to blk_-5739126205963920408 size 67108864
081110 230508 29 INFO dfs.FSNamesystem: BLOCK* NameSystem.addStoredBlock: blockMap updated: 10.251.91.159:50010 is added to blk_17598026-30542906239 size 67108864
081110 230524 16637 INFO dfs.DataNode$PacketResponder: PacketResponder 2 for block blk_-9056865861421808370 terminating
081110 230524 16637 INFO dfs.DataNode$PacketResponder: PacketResponder 2 for block blk_5967021-864850830816 terminating
081110 230536 16598 INFO dfs.DataNode$PacketResponder: PacketResponder 1 for block blk_-6934248664959947757 terminating
081110 230536 16598 INFO dfs.DataNode$PacketResponder: PacketResponder 1 for block blk_5-979492946468773465 terminating
081110 230545 16742 INFO dfs.DataNode$PacketResponder: Received block blk_-2082401934988378573 of size 67108864 from /10.251.214.112
081110 230545 16742 INFO dfs.DataNode$PacketResponder: Received block blk_082074-3898349712385 of size 67108864 from /10.251.214.112
081110 230627 16366 INFO dfs.DataNode$PacketResponder: PacketResponder 1 for block blk_7627900514276120558 terminating
081110 230627 16366 INFO dfs.DataNode$PacketResponder: PacketResponder 1 for block blk_5057217075190842626 terminating
081110 230628 16721 INFO dfs.DataNode$PacketResponder: PacketResponder 0 for block blk_-1250775350296476256 terminating
081110 230628 16721 INFO dfs.DataNode$PacketResponder: PacketResponder 0 for block blk_76403-52657065922175 terminating
081110 230633 16678 INFO dfs.DataNode$PacketResponder: PacketResponder 2 for block blk_2389216938154332862 terminating
081110 230633 16678 INFO dfs.DataNode$PacketResponder: PacketResponder 2 for block blk_2865123298396413382 terminating
081110 230859 26 INFO dfs.FSNamesystem: BLOCK* NameSystem.addStoredBlock: blockMap updated: 10.251.38.53:50010 is added to blk_7430820184211246929 size 67108864
081110 230859 26 INFO dfs.FSNamesystem: BLOCK* NameSystem.addStoredBlock: blockMap updated: 10.251.38.53:50010 is added to blk_2023014911482869724 size 67108864
081110 231236 31 INFO dfs.FSNamesystem: BLOCK* NameSystem.delete: blk_-608202790716579401 is added to invalidSet of 10.251.198.33:50010
081110 231236 31 INFO dfs.FSNamesystem: BLOCK* NameSystem.delete: blk_92120710478675960-0 is added to invalidSet of 10.251.198.33:50010
081110 231241 26 INFO dfs.FSNamesystem: BLOCK* NameSystem.delete: blk_-1335063409877429524 is added to invalidSet of 10.251.107.196:50010
081110 231241 26 INFO dfs.FSNamesystem: BLOCK* NameSystem.delete: blk_437859394320-4102765 is added to invalidSet of 10.251.107.196:50010
081110 231556 16543 INFO dfs.DataNode$DataXceiver: 10.251.202.181:50010 Served block blk_-5236655516146555545 to /10.251.31.5
081110 231556 16543 INFO dfs.DataNode$DataXceiver: 10.251.202.181:50010 Served block blk_56464555351665-51255 to /10.251.31.5
081110 231904 17028 WARN dfs.DataNode$DataXceiver: 10.251.75.143:50010:Got exception while serving blk_2262752117989012641 to /10.250.13.188:
081110 231904 17028 WARN dfs.DataNode$DataXceiver: 10.251.75.143:50010:Got exception while serving blk_1624611582772192902 to /10.250.13.188:
081110 231911 16933 WARN dfs.DataNode$DataXceiver: 10.251.126.227:50010:Got exception while serving blk_-4181768899028058192 to /10.251.26.177:
081110 231911 16933 WARN dfs.DataNode$DataXceiver: 10.251.126.227:50010:Got exception while serving blk_40971806958882211-98 to /10.251.26.177:
081110 232739 16715 INFO dfs.DataNode$DataXceiver: 10.251.123.99:50010 Served block blk_-7990763409688650846 to /10.251.197.161
081110 232739 16715 INFO dfs.DataNode$DataXceiver: 10.251.123.99:50010 Served block blk_09509096-64468788367 to /10.251.197.161
081110 233940 17094 INFO dfs.DataNode$DataXceiver: 10.250.17.225:50010 Served block blk_-2656323385657954732 to /10.250.17.225
081110 233940 17094 INFO dfs.DataNode$DataXceiver: 10.250.17.225:50010 Served block blk_87362967533-45263255 to /10.250.17.225
081110 233954 17191 WARN dfs.DataNode$DataXceiver: 10.250.7.230:50010:Got exception while serving blk_-7029628814943626474 to /10.251.38.197:
081110 233954 17191 WARN dfs.DataNode$DataXceiver: 10.250.7.230:50010:Got exception while serving blk_72064-64264287491983 to /10.251.38.197:
081110 235445 16879 INFO dfs.DataNode$DataXceiver: 10.251.127.243:50010 Served block blk_8711213005689112399 to /10.251.74.134
081110 235445 16879 INFO dfs.DataNode$DataXceiver: 10.251.127.243:50010 Served block blk_8121096131895310792 to /10.251.74.134
081111 000037 17163 INFO dfs.DataNode$DataXceiver: 10.251.195.70:50010 Served block blk_-3696162841836791939 to /10.251.195.70
081111 000037 17163 INFO dfs.DataNode$DataXceiver: 10.251.195.70:50010 Served block blk_12176631996939-84638 to /10.251.195.70
081111 000626 17362 INFO dfs.DataNode$DataXceiver: 10.251.91.84:50010 Served block blk_-8915491531889006304 to /10.251.91.84
081111 000626 17362 INFO dfs.DataNode$DataXceiver: 10.251.91.84:50010 Served block blk_6-018410045335891899 to /10.251.91.84
081111 000932 16928 INFO dfs.DataNode$DataXceiver: 10.251.90.64:50010 Served block blk_-657087263710195616 to /10.250.14.196
081111 000932 16928 INFO dfs.DataNode$DataXceiver: 10.251.90.64:50010 Served block blk_7758601960-36117625 to /10.250.14.196
081111 002741 17343 INFO dfs.DataNode$DataXceiver: 10.250.10.213:50010 Served block blk_-1125621902344947014 to /10.250.10.213
081111 002741 17343 INFO dfs.DataNode$DataXceiver: 10.250.10.213:50010 Served block blk_7906115432411-942204 to /10.250.10.213
081111 004102 17259 WARN dfs.DataNode$DataXceiver: 10.251.214.175:50010:Got exception while serving blk_481857539063371482 to /10.251.105.189:
081111 004102 17259 WARN dfs.DataNode$DataXceiver: 10.251.214.175:50010:Got exception while serving blk_391870683351475842 to /10.251.105.189:
081111 004657 17337 INFO dfs.DataNode$DataXceiver: 10.250.10.6:50010 Served block blk_1200136320542454615 to /10.250.10.6
081111 004657 17337 INFO dfs.DataNode$DataXceiver: 10.250.10.6:50010 Served block blk_4005165253612032414 to /10.250.10.6
081111 011254 17716 WARN dfs.DataNode$DataXceiver: 10.251.39.144:50010:Got exception while serving blk_-8083036675630459841 to /10.251.39.209:
081111 011254 17716 WARN dfs.DataNode$DataXceiver: 10.251.39.144:50010:Got exception while serving blk_531886843034095-6670 to /10.251.39.209:
081111 012254 17517 WARN dfs.DataNode$DataXceiver: 10.250.7.32:50010:Got exception while serving blk_-1508527605812345693 to /10.251.74.192:
081111 012254 17517 WARN dfs.DataNode$DataXceiver: 10.250.7.32:50010:Got exception while serving blk_902587315625-3408165 to /10.251.74.192:
081111 013241 17501 INFO dfs.DataNode$DataXceiver: 10.251.31.180:50010 Served block blk_3905759687686730625 to /10.251.31.180
081111 013241 17501 INFO dfs.DataNode$DataXceiver: 10.251.31.180:50010 Served block blk_2865067360575639879 to /10.251.31.180
081111 013322 17524 INFO dfs.DataNode$DataXceiver: 10.251.121.224:50010 Served block blk_342378162324355732 to /10.251.121.224
081111 013322 17524 INFO dfs.DataNode$DataXceiver: 10.251.121.224:50010 Served block blk_432312235376483725 to /10.251.121.224
081111 013400 17543 INFO dfs.DataNode$DataXceiver: 10.250.14.38:50010 Served block blk_-8674089929114017279 to /10.250.14.38
081111 013400 17543 INFO dfs.DataNode$DataXceiver: 10.250.14.38:50010 Served block blk_6297414-799190880721 to /10.250.14.38
081111 014431 17416 WARN dfs.DataNode$DataXceiver: 10.251.107.98:50010:Got exception while serving blk_-3140031507252212554 to /10.250.7.244:
081111 014431 17416 WARN dfs.DataNode$DataXceiver: 10.251.107.98:50010:Got exception while serving blk_1225141542355030-072 to /10.250.7.244:
081111 020752 17598 INFO dfs.DataNode$DataXceiver: 10.251.125.237:50010 Served block blk_-309134958179110212 to /10.251.125.237
081111 020752 17598 INFO dfs.DataNode$DataXceiver: 10.251.125.237:50010 Served block blk_03111509218439219-7 to /10.251.125.237
081111 022143 17663 INFO dfs.DataNode$DataXceiver: 10.250.13.240:50010 Served block blk_-3134225108208373949 to /10.250.13.240
081111 022143 17663 INFO dfs.DataNode$DataXceiver: 10.250.13.240:50010 Served block blk_234907358249330182-1 to /10.250.13.240
081111 023010 27 INFO dfs.FSNamesystem: BLOCK* NameSystem.delete: blk_-8887373200836701910 is added to invalidSet of 10.251.193.224:50010
081111 023010 27 INFO dfs.FSNamesystem: BLOCK* NameSystem.delete: blk_3108876078813970-023 is added to invalidSet of 10.251.193.224:50010
081111 023011 27 INFO dfs.FSNamesystem: BLOCK* NameSystem.delete: blk_-1162676743264290624 is added to invalidSet of 10.251.194.213:50010
081111 023011 27 INFO dfs.FSNamesystem: BLOCK* NameSystem.delete: blk_46162677-03422924661 is added to invalidSet of 10.251.194.213:50010
081111 023011 27 INFO dfs.FSNamesystem: BLOCK* NameSystem.delete: blk_-5513640508500780385 is added to invalidSet of 10.251.203.179:50010
081111 023011 27 INFO dfs.FSNamesystem: BLOCK* NameSystem.delete: blk_-0706540135055808358 is added to invalidSet of 10.251.203.179:50010
081111 023011 27 INFO dfs.FSNamesystem: BLOCK* NameSystem.delete: blk_-7767902948513849386 is added to invalidSet of 10.251.71.146:50010
081111 023011 27 INFO dfs.FSNamesystem: BLOCK* NameSystem.delete: blk_6-791354398420786789 is added to invalidSet of 10.251.71.146:50010
081111 023013 27 INFO dfs.FSNamesystem: BLOCK* NameSystem.delete: blk_-5382946262718129284 is added to invalidSet of 10.250.5.161:50010
081111 023013 27 INFO dfs.FSNamesystem: BLOCK* NameSystem.delete: blk_59-82418247682196232 is added to invalidSet of 10.250.5.161:50010
081111 023013 27 INFO dfs.FSNamesystem: BLOCK* NameSystem.delete: blk_5668137923110942035 is added to invalidSet of 10.251.91.229:50010
081111 023013 27 INFO dfs.FSNamesystem: BLOCK* NameSystem.delete: blk_2713691430351068592 is added to invalidSet of 10.251.91.229:50010
081111 023013 27 INFO dfs.FSNamesystem: BLOCK* NameSystem.delete: blk_7197514030988119866 is added to invalidSet of 10.251.75.49:50010
081111 023013 27 INFO dfs.FSNamesystem: BLOCK* NameSystem.delete: blk_1798190654718068391 is added to invalidSet of 10.251.75.49:50010
081111 023015 27 INFO dfs.FSNamesystem: BLOCK* NameSystem.delete: blk_-5362598472846558076 is added to invalidSet of 10.250.14.143:50010
081111 023015 27 INFO dfs.FSNamesystem: BLOCK* NameSystem.delete: blk_-2596882558506347467 is added to invalidSet of 10.250.14.143:50010
081111 023017 27 INFO dfs.FSNamesystem: BLOCK* NameSystem.delete: blk_-4269939382058952254 is added to invalidSet of 10.251.203.129:50010
081111 023017 27 INFO dfs.FSNamesystem: BLOCK* NameSystem.delete: blk_8024259423-936925589 is added to invalidSet of 10.251.203.129:50010
081111 023017 27 INFO dfs.FSNamesystem: BLOCK* NameSystem.delete: blk_-6978845808078082463 is added to invalidSet of 10.251.109.209:50010
081111 023017 27 INFO dfs.FSNamesystem: BLOCK* NameSystem.delete: blk_9842853600-868747088 is added to invalidSet of 10.251.109.209:50010
081111 023022 27 INFO dfs.FSNamesystem: BLOCK* NameSystem.delete: blk_-1071115021179995772 is added to invalidSet of 10.250.11.53:50010
081111 023022 27 INFO dfs.FSNamesystem: BLOCK* NameSystem.delete: blk_7977925171012-015191 is added to invalidSet of 10.250.11.53:50010
081111 023022 27 INFO dfs.FSNamesystem: BLOCK* NameSystem.delete: blk_7336636250384047238 is added to invalidSet of 10.251.26.177:50010
081111 023022 27 INFO dfs.FSNamesystem: BLOCK* NameSystem.delete: blk_2236075463046783338 is added to invalidSet of 10.251.26.177:50010
081111 023022 27 INFO dfs.FSNamesystem: BLOCK* NameSystem.delete: blk_8493856762887493521 is added to invalidSet of 10.251.26.131:50010
081111 023022 27 INFO dfs.FSNamesystem: BLOCK* NameSystem.delete: blk_3785819472826389564 is added to invalidSet of 10.251.26.131:50010
081111 023024 27 INFO dfs.FSNamesystem: BLOCK* NameSystem.delete: blk_1043487525777829194 is added to invalidSet of 10.251.110.8:50010
081111 023024 27 INFO dfs.FSNamesystem: BLOCK* NameSystem.delete: blk_1847377148524970925 is added to invalidSet of 10.251.110.8:50010
081111 023024 27 INFO dfs.FSNamesystem: BLOCK* NameSystem.delete: blk_-3225035678192156905 is added to invalidSet of 10.251.38.214:50010
081111 023024 27 INFO dfs.FSNamesystem: BLOCK* NameSystem.delete: blk_3721651096920835552- is added to invalidSet of 10.251.38.214:50010
081111 023025 27 INFO dfs.FSNamesystem: BLOCK* NameSystem.delete: blk_5572208681898881669 is added to invalidSet of 10.251.38.197:50010
081111 023025 27 INFO dfs.FSNamesystem: BLOCK* NameSystem.delete: blk_9882672150859688681 is added to invalidSet of 10.251.38.197:50010
081111 023027 27 INFO dfs.FSNamesystem: BLOCK* NameSystem.delete: blk_-2225353020301959077 is added to invalidSet of 10.251.125.237:50010
081111 023027 27 INFO dfs.FSNamesystem: BLOCK* NameSystem.delete: blk_059075730-1523320922 is added to invalidSet of 10.251.125.237:50010
081111 023027 27 INFO dfs.FSNamesystem: BLOCK* NameSystem.delete: blk_3946183108430554053 is added to invalidSet of 10.250.11.100:50010
081111 023027 27 INFO dfs.FSNamesystem: BLOCK* NameSystem.delete: blk_1053439530386544810 is added to invalidSet of 10.250.11.100:50010
081111 023033 27 INFO dfs.FSNamesystem: BLOCK* NameSystem.delete: blk_-3681974396824196300 is added to invalidSet of 10.250.17.177:50010
081111 023033 27 INFO dfs.FSNamesystem: BLOCK* NameSystem.delete: blk_610-3837041936994682 is added to invalidSet of 10.250.17.177:50010
081111 023037 27 INFO dfs.FSNamesystem: BLOCK* NameSystem.delete: blk_2736251498135196075 is added to invalidSet of 10.251.90.64:50010
081111 023037 27 INFO dfs.FSNamesystem: BLOCK* NameSystem.delete: blk_3512891176609375245 is added to invalidSet of 10.251.90.64:50010
081111 023039 27 INFO dfs.FSNamesystem: BLOCK* NameSystem.delete: blk_1275198635723397883 is added to invalidSet of 10.251.202.134:50010
081111 023039 27 INFO dfs.FSNamesystem: BLOCK* NameSystem.delete: blk_7781537333619582289 is added to invalidSet of 10.251.202.134:50010
081111 023039 27 INFO dfs.FSNamesystem: BLOCK* NameSystem.delete: blk_3428998332517532825 is added to invalidSet of 10.251.43.192:50010
081111 023039 27 INFO dfs.FSNamesystem: BLOCK* NameSystem.delete: blk_5928335288337942512 is added to invalidSet of 10.251.43.192:50010
081111 023139 19 INFO dfs.FSDataset: Deleting block blk_-7106479503467535906 file /mnt/hadoop/dfs/data/current/subdir32/blk_-7106479503467535906
081111 023139 19 INFO dfs.FSDataset: Deleting block blk_0441756-673655907903 file /mnt/hadoop/dfs/data/current/subdir32/blk_96945053105734760-67
081111 023149 19 INFO dfs.FSDataset: Deleting block blk_-7411858598798393933 file /mnt/hadoop/dfs/data/current/subdir24/blk_-7411858598798393933
081111 023149 19 INFO dfs.FSDataset: Deleting block blk_571584399873883-9913 file /mnt/hadoop/dfs/data/current/subdir24/blk_99818-73159473933588
081111 023156 19 INFO dfs.FSDataset: Deleting block blk_-5429479049793046826 file /mnt/hadoop/dfs/data/current/subdir34/blk_-5429479049793046826
081111 023156 19 INFO dfs.FSDataset: Deleting block blk_04046787624-45939929 file /mnt/hadoop/dfs/data/current/subdir34/blk_446299468-4073909572
081111 023158 19 INFO dfs.FSDataset: Deleting block blk_-6431101765137189231 file /mnt/hadoop/dfs/data/current/subdir33/blk_-6431101765137189231
081111 023158 19 INFO dfs.FSDataset: Deleting block blk_6113-216133771849051 file /mnt/hadoop/dfs/data/current/subdir33/blk_-3113101674195237618
081111 023216 19 INFO dfs.FSDataset: Deleting block blk_-2923662094689783995 file /mnt/hadoop/dfs/data/current/subdir38/blk_-2923662094689783995
081111 023216 19 INFO dfs.FSDataset: Deleting block blk_993726284399508269-6 file /mnt/hadoop/dfs/data/current/subdir38/blk_932375966908698-4922
081111 023222 17683 INFO dfs.DataNode$DataXceiver: 10.250.14.143:50010 Served block blk_-664656559337730574 to /10.250.7.96
081111 023222 17683 INFO dfs.DataNode$DataXceiver: 10.250.14.143:50010 Served block blk_4057667565-95337346 to /10.250.7.96
081111 023222 17788 INFO dfs.DataNode$PacketResponder: Received block blk_3224393364314749254 of size 67108864 from /10.251.37.240
081111 023222 17788 INFO dfs.DataNode$PacketResponder: Received block blk_4439462742333541329 of size 67108864 from /10.251.37.240
081111 023229 19 INFO dfs.FSDataset: Deleting block blk_1483582953997932733 file /mnt/hadoop/dfs/data/current/subdir7/blk_1483582953997932733
081111 023229 19 INFO dfs.FSDataset: Deleting block blk_7338799919425533328 file /mnt/hadoop/dfs/data/current/subdir7/blk_8937437283915539392
081111 023230 19 INFO dfs.FSDataset: Deleting block blk_-3607708283707030582 file /mnt/hadoop/dfs/data/current/subdir31/blk_-3607708283707030582
081111 023230 19 INFO dfs.FSDataset: Deleting block blk_3-200236870705808737 file /mnt/hadoop/dfs/data/current/subdir31/blk_0032785382307708-607
081111 023234 19 INFO dfs.FSDataset: Deleting block blk_4365203784873840210 file /mnt/hadoop/dfs/data/current/subdir1/blk_4365203784873840210
081111 023234 19 INFO dfs.FSDataset: Deleting block blk_4826378140047025383 file /mnt/hadoop/dfs/data/current/subdir1/blk_0248477380021633854
081111 023243 19 INFO dfs.FSDataset: Deleting block blk_1920931690498309324 file /mnt/hadoop/dfs/data/current/subdir42/blk_1920931690498309324
081111 023243 19 INFO dfs.FSDataset: Deleting block blk_8199390462301994032 file /mnt/hadoop/dfs/data/current/subdir42/blk_0909441863921293039
081111 023243 19 INFO dfs.FSDataset: Deleting block blk_2731746367139956284 file /mnt/hadoop/dfs/data/current/subdir15/blk_2731746367139956284
081111 023243 19 INFO dfs.FSDataset: Deleting block blk_7384619423177663295 file /mnt/hadoop/dfs/data/current/subdir15/blk_1778766132936542934
081111 023247 19 INFO dfs.FSDataset: Deleting block blk_3312198496468502316 file /mnt/hadoop/dfs/data/current/subdir36/blk_3312198496468502316
081111 023247 19 INFO dfs.FSDataset: Deleting block blk_1836461459961032238 file /mnt/hadoop/dfs/data/current/subdir36/blk_3031428951934616286
081111 023247 19 INFO dfs.FSDataset: Deleting block blk_-626413149556394155 file /mnt/hadoop/dfs/data/current/subdir26/blk_-626413149556394155
081111 023247 19 INFO dfs.FSDataset: Deleting block blk_2-94695356146515431 file /mnt/hadoop/dfs/data/current/subdir26/blk_492541655-365193146
081111 023248 18 INFO dfs.FSDataset: Deleting block blk_1350741653957819140 file /mnt/hadoop/dfs/data/current/subdir32/blk_1350741653957819140
081111 023248 18 INFO dfs.FSDataset: Deleting block blk_1935131565774819004 file /mnt/hadoop/dfs/data/current/subdir32/blk_1849319573146501705
081111 023248 19 INFO dfs.FSDataset: Deleting block blk_6675564098604634452 file /mnt/hadoop/dfs/data/current/subdir1/blk_6675564098604634452
081111 023248 19 INFO dfs.FSDataset: Deleting block blk_4465476535694608026 file /mnt/hadoop/dfs/data/current/subdir1/blk_3706946245446655608
081111 023249 19 INFO dfs.FSDataset: Deleting block blk_1692958087244489888 file /mnt/hadoop/dfs/data/current/subdir62/blk_1692958087244489888
081111 023249 19 INFO dfs.FSDataset: Deleting block blk_9875828401896448928 file /mnt/hadoop/dfs/data/current/subdir62/blk_7284199889245608488
081111 023250 18 INFO dfs.FSDataset: Deleting block blk_5528471097481810388 file /mnt/hadoop/dfs/data/current/subdir5/blk_5528471097481810388
081111 023250 18 INFO dfs.FSDataset: Deleting block blk_5894877884115208301 file /mnt/hadoop/dfs/data/current/subdir5/blk_1597887208880451143
081111 023250 19 INFO dfs.FSDataset: Deleting block blk_797263375273454863 file /mnt/hadoop/dfs/data/current/subdir16/blk_797263375273454863
081111 023250 19 INFO dfs.FSDataset: Deleting block blk_479327636382745573 file /mnt/hadoop/dfs/data/current/subdir16/blk_332732756795673448
081111 023255 19 INFO dfs.FSDataset: Deleting block blk_5209577451013188921 file /mnt/hadoop/dfs/data/current/subdir24/blk_5209577451013188921
081111 023255 19 INFO dfs.FSDataset: Deleting block blk_9218038514170571592 file /mnt/hadoop/dfs/data/current/subdir24/blk_9341871052575189012
081111 023304 18 INFO dfs.FSDataset: Deleting block blk_4713539908695785630 file /mnt/hadoop/dfs/data/current/subdir39/blk_4713539908695785630
081111 023304 18 INFO dfs.FSDataset: Deleting block blk_0974335078591656893 file /mnt/hadoop/dfs/data/current/subdir39/blk_3958716496753395008
081111 023310 19 INFO dfs.FSDataset: Deleting block blk_6148201552996212693 file /mnt/hadoop/dfs/data/current/subdir15/blk_6148201552996212693
081111 023310 19 INFO dfs.FSDataset: Deleting block blk_6225912394116689250 file /mnt/hadoop/dfs/data/current/subdir15/blk_9136282269245911506
081111 023328 19 INFO dfs.FSDataset: Deleting block blk_9014154925388243050 file /mnt/hadoop/dfs/data/current/subdir28/blk_9014154925388243050
081111 023328 19 INFO dfs.FSDataset: Deleting block blk_8150549490825324301 file /mnt/hadoop/dfs/data/current/subdir28/blk_1032395810454490285
081111 023330 19 INFO dfs.FSDataset: Deleting block blk_8761138012128091849 file /mnt/hadoop/dfs/data/current/subdir33/blk_8761138012128091849
081111 023330 19 INFO dfs.FSDataset: Deleting block blk_1016221803988911874 file /mnt/hadoop/dfs/data/current/subdir33/blk_0381189911048212687
081111 023749 17857 INFO dfs.DataNode$PacketResponder: Received block blk_-4071286774767564790 of size 67108864 from /10.251.197.226
081111 023749 17857 INFO dfs.DataNode$PacketResponder: Received block blk_6001764477-429786775 of size 67108864 from /10.251.197.226
081111 023914 17773 INFO dfs.DataNode$DataXceiver: 10.251.122.65:50010 Served block blk_2866275036574950116 to /10.250.11.53
081111 023914 17773 INFO dfs.DataNode$DataXceiver: 10.251.122.65:50010 Served block blk_6367741500862926515 to /10.250.11.53
081111 024105 17911 INFO dfs.DataNode$PacketResponder: Received block blk_-6811519872198278365 of size 67108864 from /10.250.6.4
081111 024105 17911 INFO dfs.DataNode$PacketResponder: Received block blk_97181581-78982651362 of size 67108864 from /10.250.6.4
081111 024133 31 INFO dfs.FSNamesystem: BLOCK* NameSystem.addStoredBlock: blockMap updated: 10.251.199.19:50010 is added to blk_6748710057489679257 size 67108864
081111 024133 31 INFO dfs.FSNamesystem: BLOCK* NameSystem.addStoredBlock: blockMap updated: 10.251.199.19:50010 is added to blk_8507179474670952768 size 67108864
081111 024247 29 INFO dfs.FSNamesystem: BLOCK* NameSystem.addStoredBlock: blockMap updated: 10.251.39.209:50010 is added to blk_1833093108290599780 size 67108864
081111 024247 29 INFO dfs.FSNamesystem: BLOCK* NameSystem.addStoredBlock: blockMap updated: 10.251.39.209:50010 is added to blk_8300589092973193801 size 67108864
081111 024304 27 INFO dfs.FSNamesystem: BLOCK* NameSystem.addStoredBlock: blockMap updated: 10.250.7.146:50010 is added to blk_9163807899833139121 size 67108864
081111 024304 27 INFO dfs.FSNamesystem: BLOCK* NameSystem.addStoredBlock: blockMap updated: 10.250.7.146:50010 is added to blk_3883892319191179036 size 67108864
081111 024309 17772 INFO dfs.DataNode$DataXceiver: Receiving block blk_3941798034503185737 src: /10.250.11.85:42358 dest: /10.250.11.85:50010
081111 024309 17772 INFO dfs.DataNode$DataXceiver: Receiving block blk_1497438935308571703 src: /10.250.11.85:42358 dest: /10.250.11.85:50010
081111 024325 17904 INFO dfs.DataNode$PacketResponder: Received block blk_6894918622505820383 of size 67108864 from /10.250.14.143
081111 024325 17904 INFO dfs.DataNode$PacketResponder: Received block blk_0861934522880865923 of size 67108864 from /10.250.14.143
081111 024443 17867 INFO dfs.DataNode$DataXceiver: Receiving block blk_6491424745418112176 src: /10.251.214.130:57008 dest: /10.251.214.130:50010
081111 024443 17867 INFO dfs.DataNode$DataXceiver: Receiving block blk_1125114492716746484 src: /10.251.214.130:57008 dest: /10.251.214.130:50010
081111 024443 29 INFO dfs.FSNamesystem: BLOCK* NameSystem.allocateBlock: /user/root/rand4/_temporary/_task_200811101024_0009_m_000115_0/part-00115. blk_-17685631368401548
081111 024443 29 INFO dfs.FSNamesystem: BLOCK* NameSystem.allocateBlock: /user/root/rand4/_temporary/_task_200811101024_0009_m_000115_0/part-00115. blk_3846613-4188651057
081111 024724 31 INFO dfs.FSNamesystem: BLOCK* NameSystem.allocateBlock: /user/root/rand4/_temporary/_task_200811101024_0009_m_000176_0/part-00176. blk_8924207394547472950
081111 024724 31 INFO dfs.FSNamesystem: BLOCK* NameSystem.allocateBlock: /user/root/rand4/_temporary/_task_200811101024_0009_m_000176_0/part-00176. blk_2744795404928570239
081111 024742 17976 INFO dfs.DataNode$DataXceiver: Receiving block blk_-4526931594457272384 src: /10.251.43.147:40348 dest: /10.251.43.147:50010
081111 024742 17976 INFO dfs.DataNode$DataXceiver: Receiving block blk_3847935262514452974- src: /10.251.43.147:40348 dest: /10.251.43.147:50010
081111 024831 35 INFO dfs.FSNamesystem: BLOCK* NameSystem.addStoredBlock: blockMap updated: 10.251.31.242:50010 is added to blk_5390763359901143305 size 67108864
081111 024831 35 INFO dfs.FSNamesystem: BLOCK* NameSystem.addStoredBlock: blockMap updated: 10.251.31.242:50010 is added to blk_9701955403313335096 size 67108864
081111 024901 18086 INFO dfs.DataNode$DataXceiver: Receiving block blk_-11867600358649678 src: /10.251.75.79:46421 dest: /10.251.75.79:50010
081111 024901 18086 INFO dfs.DataNode$DataXceiver: Receiving block blk_857963-86160106478 src: /10.251.75.79:46421 dest: /10.251.75.79:50010
081111 024901 30 INFO dfs.FSNamesystem: BLOCK* NameSystem.addStoredBlock: blockMap updated: 10.250.11.194:50010 is added to blk_2430417102497887445 size 67108864
081111 024901 30 INFO dfs.FSNamesystem: BLOCK* NameSystem.addStoredBlock: blockMap updated: 10.250.11.194:50010 is added to blk_4104758079278443214 size 67108864
081111 024901 35 INFO dfs.FSNamesystem: BLOCK* NameSystem.addStoredBlock: blockMap updated: 10.251.214.18:50010 is added to blk_-747046374856916711 size 67108864
081111 024901 35 INFO dfs.FSNamesystem: BLOCK* NameSystem.addStoredBlock: blockMap updated: 10.251.214.18:50010 is added to blk_194870-767415746136 size 67108864
081111 025101 18187 INFO dfs.DataNode$PacketResponder: Received block blk_5062112794659861146 of size 67108864 from /10.251.91.84
081111 025101 18187 INFO dfs.DataNode$PacketResponder: Received block blk_4165051626142897916 of size 67108864 from /10.251.91.84
081111 025208 18218 INFO dfs.DataNode$DataXceiver: Receiving block blk_-116589515245909549 src: /10.251.203.179:33198 dest: /10.251.203.179:50010
081111 025208 18218 INFO dfs.DataNode$DataXceiver: Receiving block blk_9-19915945428565105 src: /10.251.203.179:33198 dest: /10.251.203.179:50010
081111 025335 17997 INFO dfs.DataNode$PacketResponder: PacketResponder 1 for block blk_4628975089896927394 terminating
081111 025335 17997 INFO dfs.DataNode$PacketResponder: PacketResponder 1 for block blk_9275893628864497099 terminating
081111 025336 18090 INFO dfs.DataNode$DataXceiver: Receiving block blk_-764747190320632607 src: /10.251.127.191:49914 dest: /10.251.127.191:50010
081111 025336 18090 INFO dfs.DataNode$DataXceiver: Receiving block blk_0774-79604063623127 src: /10.251.127.191:49914 dest: /10.251.127.191:50010
081111 025346 18124 INFO dfs.DataNode$PacketResponder: Received block blk_-8015797075596093783 of size 67108864 from /10.250.11.194
081111 025346 18124 INFO dfs.DataNode$PacketResponder: Received block blk_975106357300878-7599 of size 67108864 from /10.250.11.194
081111 025424 26 INFO dfs.FSNamesystem: BLOCK* NameSystem.addStoredBlock: blockMap updated: 10.251.110.160:50010 is added to blk_-1675768179383804109 size 67108864
081111 025424 26 INFO dfs.FSNamesystem: BLOCK* NameSystem.addStoredBlock: blockMap updated: 10.251.110.160:50010 is added to blk_89-76080794573163811 size 67108864
081111 025607 18122 INFO dfs.DataNode$PacketResponder: PacketResponder 2 for block blk_1155029843511109085 terminating
081111 025607 18122 INFO dfs.DataNode$PacketResponder: PacketResponder 2 for block blk_8825551401311090951 terminating
081111 025619 31 INFO dfs.FSNamesystem: BLOCK* NameSystem.addStoredBlock: blockMap updated: 10.251.67.113:50010 is added to blk_9060964400089016309 size 67108864
081111 025619 31 INFO dfs.FSNamesystem: BLOCK* NameSystem.addStoredBlock: blockMap updated: 10.251.67.113:50010 is added to blk_0869090634910004096 size 67108864
081111 025634 28 INFO dfs.FSNamesystem: BLOCK* NameSystem.addStoredBlock: blockMap updated: 10.251.214.67:50010 is added to blk_-1417908110808566576 size 67108864
081111 025634 28 INFO dfs.FSNamesystem: BLOCK* NameSystem.addStoredBlock: blockMap updated: 10.251.214.67:50010 is added to blk_08010517179-41668685 size 67108864
081111 025653 18457 INFO dfs.DataNode$PacketResponder: PacketResponder 0 for block blk_-7483426835701512490 terminating
081111 025653 18457 INFO dfs.DataNode$PacketResponder: PacketResponder 0 for block blk_3584-162752039014847 terminating
081111 025732 18087 INFO dfs.DataNode$DataXceiver: Receiving block blk_-3752135158991310104 src: /10.251.70.5:44375 dest: /10.251.70.5:50010
081111 025732 18087 INFO dfs.DataNode$DataXceiver: Receiving block blk_-1093145057812139351 src: /10.251.70.5:44375 dest: /10.251.70.5:50010
081111 025811 18303 INFO dfs.DataNode$DataXceiver: Receiving block blk_-8649503431827393598 src: /10.251.199.19:48778 dest: /10.251.199.19:50010
081111 025811 18303 INFO dfs.DataNode$DataXceiver: Receiving block blk_339018259837386454-9 src: /10.251.199.19:48778 dest: /10.251.199.19:50010
081111 025903 18116 INFO dfs.DataNode$PacketResponder: PacketResponder 2 for block blk_-6883339133893273874 terminating
081111 025903 18116 INFO dfs.DataNode$PacketResponder: PacketResponder 2 for block blk_8983841-793362333873 terminating
081111 025915 18170 INFO dfs.DataNode$PacketResponder: PacketResponder 0 for block blk_3695169334833427187 terminating
081111 025915 18170 INFO dfs.DataNode$PacketResponder: PacketResponder 0 for block blk_7314573968934336821 terminating
081111 025945 18127 INFO dfs.DataNode$PacketResponder: PacketResponder 0 for block blk_6055109613223910610 terminating
081111 025945 18127 INFO dfs.DataNode$PacketResponder: PacketResponder 0 for block blk_1919206165205130603 terminating
081111 030015 18180 INFO dfs.DataNode$DataXceiver: Receiving block blk_-1868325377308234190 src: /10.251.42.207:50666 dest: /10.251.42.207:50010
081111 030015 18180 INFO dfs.DataNode$DataXceiver: Receiving block blk_316172039820433587-8 src: /10.251.42.207:50666 dest: /10.251.42.207:50010
081111 030017 28 INFO dfs.FSNamesystem: BLOCK* NameSystem.addStoredBlock: blockMap updated: 10.251.26.177:50010 is added to blk_-6338549285508312302 size 3530010
081111 030017 28 INFO dfs.FSNamesystem: BLOCK* NameSystem.addStoredBlock: blockMap updated: 10.251.26.177:50010 is added to blk_934015552302-2883638 size 3530010
081111 030051 35 INFO dfs.FSNamesystem: BLOCK* NameSystem.addStoredBlock: blockMap updated: 10.251.30.179:50010 is added to blk_-900758580041645081 size 3543900
081111 030051 35 INFO dfs.FSNamesystem: BLOCK* NameSystem.addStoredBlock: blockMap updated: 10.251.30.179:50010 is added to blk_094685871500051084- size 3543900
081111 030153 34 INFO dfs.FSNamesystem: BLOCK* NameSystem.addStoredBlock: blockMap updated: 10.251.66.3:50010 is added to blk_1756478622414930264 size 67108864
081111 030153 34 INFO dfs.FSNamesystem: BLOCK* NameSystem.addStoredBlock: blockMap updated: 10.251.66.3:50010 is added to blk_3665748490262174214 size 67108864
081111 030225 27 INFO dfs.FSNamesystem: BLOCK* NameSystem.addStoredBlock: blockMap updated: 10.251.127.47:50010 is added to blk_-6555060221133060529 size 67108864
081111 030225 27 INFO dfs.FSNamesystem: BLOCK* NameSystem.addStoredBlock: blockMap updated: 10.251.127.47:50010 is added to blk_61-69003532651252500 size 67108864
081111 030233 18516 INFO dfs.DataNode$DataXceiver: Receiving block blk_9076677650086747187 src: /10.251.35.1:52094 dest: /10.251.35.1:50010
081111 030233 18516 INFO dfs.DataNode$DataXceiver: Receiving block blk_1800586477970667767 src: /10.251.35.1:52094 dest: /10.251.35.1:50010
081111 030236 18183 INFO dfs.DataNode$PacketResponder: PacketResponder 2 for block blk_-4165562468976768862 terminating
081111 030236 18183 INFO dfs.DataNode$PacketResponder: PacketResponder 2 for block blk_612965264748886-5766 terminating
081111 030240 18460 INFO dfs.DataNode$PacketResponder: PacketResponder 1 for block blk_-3295982945091621137 terminating
081111 030240 18460 INFO dfs.DataNode$PacketResponder: PacketResponder 1 for block blk_805-2999921721613534 terminating
081111 030300 34 INFO dfs.FSNamesystem: BLOCK* NameSystem.addStoredBlock: blockMap updated: 10.250.15.240:50010 is added to blk_-7637577152926063076 size 67108864
081111 030300 34 INFO dfs.FSNamesystem: BLOCK* NameSystem.addStoredBlock: blockMap updated: 10.250.15.240:50010 is added to blk_5702526-737676061739 size 67108864
081111 030318 18190 INFO dfs.DataNode$DataXceiver: Receiving block blk_3181161977343808286 src: /10.251.43.21:40127 dest: /10.251.43.21:50010
081111 030318 18190 INFO dfs.DataNode$DataXceiver: Receiving block blk_8610913188847372361 src: /10.251.43.21:40127 dest: /10.251.43.21:50010
081111 030414 18143 INFO dfs.DataNode$DataXceiver: Receiving block blk_6807535563873595117 src: /10.250.17.177:48934 dest: /10.250.17.177:50010
081111 030414 18143 INFO dfs.DataNode$DataXceiver: Receiving block blk_1978553637165537580 src: /10.250.17.177:48934 dest: /10.250.17.177:50010
081111 030416 18548 INFO dfs.DataNode$DataXceiver: Receiving block blk_7513976340045981966 src: /10.251.42.207:36468 dest: /10.251.42.207:50010
081111 030416 18548 INFO dfs.DataNode$DataXceiver: Receiving block blk_9617064055391687493 src: /10.251.42.207:36468 dest: /10.251.42.207:50010
081111 030418 29 INFO dfs.FSNamesystem: BLOCK* NameSystem.allocateBlock: /user/root/rand4/_temporary/_task_200811101024_0009_m_001061_0/part-01061. blk_-749176535135404637
081111 030418 29 INFO dfs.FSNamesystem: BLOCK* NameSystem.allocateBlock: /user/root/rand4/_temporary/_task_200811101024_0009_m_001061_0/part-01061. blk_3356674113-54457709
081111 030501 35 INFO dfs.FSNamesystem: BLOCK* NameSystem.addStoredBlock: blockMap updated: 10.251.199.245:50010 is added to blk_-7909610753867924116 size 67108864
081111 030501 35 INFO dfs.FSNamesystem: BLOCK* NameSystem.addStoredBlock: blockMap updated: 10.251.199.245:50010 is added to blk_776981739106-0465129 size 67108864
081111 030726 18409 INFO dfs.DataNode$PacketResponder: Received block blk_-7247291679155656679 of size 67108864 from /10.250.10.176
081111 030726 18409 INFO dfs.DataNode$PacketResponder: Received block blk_7-995472196577626561 of size 67108864 from /10.250.10.176
081111 030736 18126 INFO dfs.DataNode$PacketResponder: PacketResponder 1 for block blk_-6369730481066968769 terminating
081111 030736 18126 INFO dfs.DataNode$PacketResponder: PacketResponder 1 for block blk_68-97008134669667936 terminating
081111 030745 18290 INFO dfs.DataNode$DataXceiver: Receiving block blk_7780461223860192433 src: /10.251.127.191:58148 dest: /10.251.127.191:50010
081111 030745 18290 INFO dfs.DataNode$DataXceiver: Receiving block blk_1781234638269430270 src: /10.251.127.191:58148 dest: /10.251.127.191:50010
081111 030942 32 INFO dfs.FSNamesystem: BLOCK* NameSystem.allocateBlock: /user/root/rand4/_temporary/_task_200811101024_0009_m_001281_0/part-01281. blk_2084123600915946046
081111 030942 32 INFO dfs.FSNamesystem: BLOCK* NameSystem.allocateBlock: /user/root/rand4/_temporary/_task_200811101024_0009_m_001281_0/part-01281. blk_0469928120016404365
081111 030946 18336 INFO dfs.DataNode$DataXceiver: Receiving block blk_92273823183917102 src: /10.250.15.67:53441 dest: /10.250.15.67:50010
081111 030946 18336 INFO dfs.DataNode$DataXceiver: Receiving block blk_12071781233293928 src: /10.250.15.67:53441 dest: /10.250.15.67:50010
081111 030950 18479 INFO dfs.DataNode$PacketResponder: Received block blk_-1141332313413855099 of size 67108864 from /10.251.89.155
081111 030950 18479 INFO dfs.DataNode$PacketResponder: Received block blk_38929303115-43115314 of size 67108864 from /10.251.89.155
081111 030958 18454 INFO dfs.DataNode$DataXceiver: Receiving block blk_3016571528120363023 src: /10.251.194.102:60235 dest: /10.251.194.102:50010
081111 030958 18454 INFO dfs.DataNode$DataXceiver: Receiving block blk_5305232863171136002 src: /10.251.194.102:60235 dest: /10.251.194.102:50010
081111 031106 18346 INFO dfs.DataNode$DataXceiver: Receiving block blk_-7678242108759603056 src: /10.251.125.193:33553 dest: /10.251.125.193:50010
081111 031106 18346 INFO dfs.DataNode$DataXceiver: Receiving block blk_605-8175267209706483 src: /10.251.125.193:33553 dest: /10.251.125.193:50010
081111 031143 18339 INFO dfs.DataNode$DataXceiver: Receiving block blk_-7526023914950151999 src: /10.250.5.161:48457 dest: /10.250.5.161:50010
081111 031143 18339 INFO dfs.DataNode$DataXceiver: Receiving block blk_05-59939649702151921 src: /10.250.5.161:48457 dest: /10.250.5.161:50010
081111 031257 18567 INFO dfs.DataNode$DataXceiver: Receiving block blk_-6380328072112550668 src: /10.250.6.191:37701 dest: /10.250.6.191:50010
081111 031257 18567 INFO dfs.DataNode$DataXceiver: Receiving block blk_00357881325-18206626 src: /10.250.6.191:37701 dest: /10.250.6.191:50010
081111 031258 26 INFO dfs.FSNamesystem: BLOCK* NameSystem.addStoredBlock: blockMap updated: 10.250.11.100:50010 is added to blk_3222673463853349950 size 67108864
081111 031258 26 INFO dfs.FSNamesystem: BLOCK* NameSystem.addStoredBlock: blockMap updated: 10.250.11.100:50010 is added to blk_0732248995534626333 size 67108864
081111 031307 18432 INFO dfs.DataNode$PacketResponder: PacketResponder 2 for block blk_-3183355402229300197 terminating
081111 031307 18432 INFO dfs.DataNode$PacketResponder: PacketResponder 2 for block blk_15-54907829130033232 terminating
081111 031334 30 INFO dfs.FSNamesystem: BLOCK* NameSystem.addStoredBlock: blockMap updated: 10.251.26.8:50010 is added to blk_-5963475042722370536 size 67108864
081111 031334 30 INFO dfs.FSNamesystem: BLOCK* NameSystem.addStoredBlock: blockMap updated: 10.251.26.8:50010 is added to blk_25233357426576-97400 size 67108864
081111 031436 32 INFO dfs.FSNamesystem: BLOCK* NameSystem.allocateBlock: /user/root/rand4/_temporary/_task_200811101024_0009_m_001398_0/part-01398. blk_-7527506469734664572
081111 031436 32 INFO dfs.FSNamesystem: BLOCK* NameSystem.allocateBlock: /user/root/rand4/_temporary/_task_200811101024_0009_m_001398_0/part-01398. blk_747642-7256657034956
081111 031541 18484 INFO dfs.DataNode$PacketResponder: Received block blk_9072486569292195232 of size 67108864 from /10.251.71.68
081111 031541 18484 INFO dfs.DataNode$PacketResponder: Received block blk_2087325162429629959 of size 67108864 from /10.251.71.68
081111 031621 35 INFO dfs.FSNamesystem: BLOCK* NameSystem.addStoredBlock: blockMap updated: 10.251.199.159:50010 is added to blk_-4455205822455130625 size 67108864
081111 031621 35 INFO dfs.FSNamesystem: BLOCK* NameSystem.addStoredBlock: blockMap updated: 10.251.199.159:50010 is added to blk_-5552528063145045422 size 67108864
081111 031650 18225 INFO dfs.DataNode$PacketResponder: Received block blk_3777399812922072863 of size 67108864 from /10.251.199.225
081111 031650 18225 INFO dfs.DataNode$PacketResponder: Received block blk_8291673939270872723 of size 67108864 from /10.251.199.225
081111 031730 18310 INFO dfs.DataNode$PacketResponder: PacketResponder 1 for block blk_-4633546693082073737 terminating
081111 031730 18310 INFO dfs.DataNode$PacketResponder: PacketResponder 1 for block blk_3337-437423658796006 terminating
081111 031735 18435 INFO dfs.DataNode$PacketResponder: Received block blk_6799391641508508235 of size 67108864 from /10.251.107.98
081111 031735 18435 INFO dfs.DataNode$PacketResponder: Received block blk_7069303845581996125 of size 67108864 from /10.251.107.98
081111 031811 18619 INFO dfs.DataNode$PacketResponder: PacketResponder 0 for block blk_1002945451269828722 terminating
081111 031811 18619 INFO dfs.DataNode$PacketResponder: PacketResponder 0 for block blk_1802292156724482509 terminating
081111 031900 18547 INFO dfs.DataNode$PacketResponder: Received block blk_566413670355737377 of size 67108864 from /10.251.122.79
081111 031900 18547 INFO dfs.DataNode$PacketResponder: Received block blk_547733376536567701 of size 67108864 from /10.251.122.79
081111 031938 16978 INFO dfs.DataNode$PacketResponder: PacketResponder 1 for block blk_2819581679409796253 terminating
081111 031938 16978 INFO dfs.DataNode$PacketResponder: PacketResponder 1 for block blk_3629771929694015588 terminating
081111 031951 31 INFO dfs.FSNamesystem: BLOCK* NameSystem.addStoredBlock: blockMap updated: 10.251.127.243:50010 is added to blk_1512923509505250283 size 67108864
081111 031951 31 INFO dfs.FSNamesystem: BLOCK* NameSystem.addStoredBlock: blockMap updated: 10.251.127.243:50010 is added to blk_3025229155092180553 size 67108864
081111 032053 27 INFO dfs.FSNamesystem: BLOCK* NameSystem.allocateBlock: /user/root/rand4/_temporary/_task_200811101024_0009_m_001611_0/part-01611. blk_285336326661214154
081111 032053 27 INFO dfs.FSNamesystem: BLOCK* NameSystem.allocateBlock: /user/root/rand4/_temporary/_task_200811101024_0009_m_001611_0/part-01611. blk_231112563636644258
081111 032121 33 INFO dfs.FSNamesystem: BLOCK* NameSystem.addStoredBlock: blockMap updated: 10.251.90.134:50010 is added to blk_5955377624764578810 size 67108864
081111 032121 33 INFO dfs.FSNamesystem: BLOCK* NameSystem.addStoredBlock: blockMap updated: 10.251.90.134:50010 is added to blk_3757654581072758496 size 67108864
081111 032357 33 INFO dfs.FSNamesystem: BLOCK* NameSystem.allocateBlock: /user/root/rand4/_temporary/_task_200811101024_0009_m_001574_0/part-01574. blk_-7458279618877678162
081111 032357 33 INFO dfs.FSNamesystem: BLOCK* NameSystem.allocateBlock: /user/root/rand4/_temporary/_task_200811101024_0009_m_001574_0/part-01574. blk_985-6787726827171846
081111 032416 18576 INFO dfs.DataNode$PacketResponder: PacketResponder 0 for block blk_5018765878120211503 terminating
081111 032416 18576 INFO dfs.DataNode$PacketResponder: PacketResponder 0 for block blk_0201018635857821157 terminating
081111 032531 18607 INFO dfs.DataNode$DataXceiver: Receiving block blk_313888672758374538 src: /10.251.39.179:40031 dest: /10.251.39.179:50010
081111 032531 18607 INFO dfs.DataNode$DataXceiver: Receiving block blk_333877613825847885 src: /10.251.39.179:40031 dest: /10.251.39.179:50010
081111 032544 31 INFO dfs.FSNamesystem: BLOCK* NameSystem.addStoredBlock: blockMap updated: 10.251.109.209:50010 is added to blk_3764801892187716497 size 67108864
081111 032544 31 INFO dfs.FSNamesystem: BLOCK* NameSystem.addStoredBlock: blockMap updated: 10.251.109.209:50010 is added to blk_1108734697718749682 size 67108864
081111 032612 18586 INFO dfs.DataNode$PacketResponder: Received block blk_-3491385689517593364 of size 67108864 from /10.251.193.224
081111 032612 18586 INFO dfs.DataNode$PacketResponder: Received block blk_75844953-56116893393 of size 67108864 from /10.251.193.224
081111 032655 18710 INFO dfs.DataNode$PacketResponder: Received block blk_-2243784245784480521 of size 67108864 from /10.250.6.191
081111 032655 18710 INFO dfs.DataNode$PacketResponder: Received block blk_-8804553427742128244 of size 67108864 from /10.250.6.191
081111 032813 34 INFO dfs.FSNamesystem: BLOCK* NameSystem.addStoredBlock: blockMap updated: 10.250.6.223:50010 is added to blk_-4052810234606327693 size 67108864
081111 032813 34 INFO dfs.FSNamesystem: BLOCK* NameSystem.addStoredBlock: blockMap updated: 10.250.6.223:50010 is added to blk_632323804-0510769642 size 67108864
081111 032825 18758 INFO dfs.DataNode$PacketResponder: PacketResponder 2 for block blk_-6695620358347030339 terminating
081111 032825 18758 INFO dfs.DataNode$PacketResponder: PacketResponder 2 for block blk_66607253450839-90333 terminating
081111 032828 18581 INFO dfs.DataNode$PacketResponder: PacketResponder 0 for block blk_-5102453487463005287 terminating
081111 032828 18581 INFO dfs.DataNode$PacketResponder: PacketResponder 0 for block blk_424487107553-0058236 terminating
081111 032900 18814 INFO dfs.DataNode$DataXceiver: Receiving block blk_7924393760966842810 src: /10.251.202.209:59148 dest: /10.251.202.209:50010
081111 032900 18814 INFO dfs.DataNode$DataXceiver: Receiving block blk_6480262999307738461 src: /10.251.202.209:59148 dest: /10.251.202.209:50010
081111 032917 18710 INFO dfs.DataNode$PacketResponder: Received block blk_5915244038969911075 of size 67108864 from /10.250.11.53
081111 032917 18710 INFO dfs.DataNode$PacketResponder: Received block blk_3598142597095061194 of size 67108864 from /10.250.11.53
081111 033110 35 INFO dfs.FSNamesystem: BLOCK* NameSystem.addStoredBlock: blockMap updated: 10.250.10.144:50010 is added to blk_3243316191092266549 size 67108864
081111 033110 35 INFO dfs.FSNamesystem: BLOCK* NameSystem.addStoredBlock: blockMap updated: 10.250.10.144:50010 is added to blk_1914332931602669542 size 67108864
081111 033125 18859 INFO dfs.DataNode$PacketResponder: PacketResponder 1 for block blk_8229768485681546149 terminating
081111 033125 18859 INFO dfs.DataNode$PacketResponder: PacketResponder 1 for block blk_9197124545688626848 terminating
081111 033211 34 INFO dfs.FSNamesystem: BLOCK* NameSystem.addStoredBlock: blockMap updated: 10.251.43.21:50010 is added to blk_3206064173813164493 size 67108864
081111 033211 34 INFO dfs.FSNamesystem: BLOCK* NameSystem.addStoredBlock: blockMap updated: 10.251.43.21:50010 is added to blk_3918664367234041301 size 67108864
081111 033426 18894 INFO dfs.DataNode$PacketResponder: PacketResponder 2 for block blk_-1957299792594627113 terminating
081111 033426 18894 INFO dfs.DataNode$PacketResponder: PacketResponder 2 for block blk_71672254997293919-51 terminating
081111 033444 18940 INFO dfs.DataNode$DataXceiver: Receiving block blk_-1690784932539647416 src: /10.251.31.180:50205 dest: /10.251.31.180:50010
081111 033444 18940 INFO dfs.DataNode$DataXceiver: Receiving block blk_5711299693703-446846 src: /10.251.31.180:50205 dest: /10.251.31.180:50010
081111 033505 18847 INFO dfs.DataNode$PacketResponder: PacketResponder 1 for block blk_6745520736924802462 terminating
081111 033505 18847 INFO dfs.DataNode$PacketResponder: PacketResponder 1 for block blk_6502647962435740228 terminating
081111 033819 33 INFO dfs.FSNamesystem: BLOCK* NameSystem.delete: blk_-1525964299678787959 is added to invalidSet of 10.251.37.240:50010
081111 033819 33 INFO dfs.FSNamesystem: BLOCK* NameSystem.delete: blk_59669297-95278781459 is added to invalidSet of 10.251.37.240:50010
081111 033823 31 INFO dfs.FSNamesystem: BLOCK* NameSystem.delete: blk_7045475543362904558 is added to invalidSet of 10.251.106.214:50010
081111 033823 31 INFO dfs.FSNamesystem: BLOCK* NameSystem.delete: blk_4452753049408355756 is added to invalidSet of 10.251.106.214:50010
081111 033824 28 INFO dfs.FSNamesystem: BLOCK* NameSystem.delete: blk_-6802124772693111025 is added to invalidSet of 10.251.66.63:50010
081111 033824 28 INFO dfs.FSNamesystem: BLOCK* NameSystem.delete: blk_92702528111206417-63 is added to invalidSet of 10.251.66.63:50010
081111 033829 18 INFO dfs.FSDataset: Deleting block blk_-5205950257901523262 file /mnt/hadoop/dfs/data/current/subdir40/blk_-5205950257901523262
081111 033829 18 INFO dfs.FSDataset: Deleting block blk_205-6952529523720015 file /mnt/hadoop/dfs/data/current/subdir40/blk_5597250052025-292361
081111 033925 18906 INFO dfs.DataNode$PacketResponder: PacketResponder 2 for block blk_-1649239999940418046 terminating
081111 033925 18906 INFO dfs.DataNode$PacketResponder: PacketResponder 2 for block blk_099094-1246694493981 terminating
081111 033927 19172 INFO dfs.DataNode$PacketResponder: Received block blk_6880728743505526406 of size 67108864 from /10.251.197.226
081111 033927 19172 INFO dfs.DataNode$PacketResponder: Received block blk_4025865548372706068 of size 67108864 from /10.251.197.226
081111 033935 18945 INFO dfs.DataNode$DataXceiver: Receiving block blk_5256716488526744434 src: /10.251.73.220:42064 dest: /10.251.73.220:50010
081111 033935 18945 INFO dfs.DataNode$DataXceiver: Receiving block blk_4385464871265456247 src: /10.251.73.220:42064 dest: /10.251.73.220:50010
081111 033953 26 INFO dfs.FSNamesystem: BLOCK* NameSystem.addStoredBlock: blockMap updated: 10.251.26.177:50010 is added to blk_6928449948805597176 size 67108864
081111 033953 26 INFO dfs.FSNamesystem: BLOCK* NameSystem.addStoredBlock: blockMap updated: 10.251.26.177:50010 is added to blk_6450929881764497598 size 67108864
081111 034105 18847 INFO dfs.DataNode$PacketResponder: PacketResponder 2 for block blk_2529569087635823495 terminating
081111 034105 18847 INFO dfs.DataNode$PacketResponder: PacketResponder 2 for block blk_2945853059792635268 terminating
081111 034252 33 INFO dfs.FSNamesystem: BLOCK* NameSystem.allocateBlock: /user/root/randtxt4/_temporary/_task_200811101024_0010_m_000222_0/part-00222. blk_3764836840384130740
081111 034252 33 INFO dfs.FSNamesystem: BLOCK* NameSystem.allocateBlock: /user/root/randtxt4/_temporary/_task_200811101024_0010_m_000222_0/part-00222. blk_3846406134004737838
081111 034323 19025 INFO dfs.DataNode$DataXceiver: Receiving block blk_3020717811556957482 src: /10.251.90.81:48077 dest: /10.251.90.81:50010
081111 034323 19025 INFO dfs.DataNode$DataXceiver: Receiving block blk_7419506510818272735 src: /10.251.90.81:48077 dest: /10.251.90.81:50010
081111 034351 18690 INFO dfs.DataNode$PacketResponder: Received block blk_-577659324269246113 of size 67108864 from /10.251.203.179
081111 034351 18690 INFO dfs.DataNode$PacketResponder: Received block blk_257226415796194-363 of size 67108864 from /10.251.203.179
081111 034456 18909 INFO dfs.DataNode$PacketResponder: PacketResponder 0 for block blk_6137960563260046065 terminating
081111 034456 18909 INFO dfs.DataNode$PacketResponder: PacketResponder 0 for block blk_6030366015460569672 terminating
081111 034600 33 INFO dfs.FSNamesystem: BLOCK* NameSystem.addStoredBlock: blockMap updated: 10.251.203.246:50010 is added to blk_-6909400912794057067 size 67108864
081111 034600 33 INFO dfs.FSNamesystem: BLOCK* NameSystem.addStoredBlock: blockMap updated: 10.251.203.246:50010 is added to blk_9170059607-246409970 size 67108864
081111 034712 26 INFO dfs.FSNamesystem: BLOCK* NameSystem.addStoredBlock: blockMap updated: 10.251.43.192:50010 is added to blk_8249475180346179102 size 67108864
081111 034712 26 INFO dfs.FSNamesystem: BLOCK* NameSystem.addStoredBlock: blockMap updated: 10.251.43.192:50010 is added to blk_4013247499610158782 size 67108864
081111 034726 19054 INFO dfs.DataNode$PacketResponder: Received block blk_-5045144756510626150 of size 67108864 from /10.251.39.160
081111 034726 19054 INFO dfs.DataNode$PacketResponder: Received block blk_511205405-4666514057 of size 67108864 from /10.251.39.160
081111 034742 19142 INFO dfs.DataNode$PacketResponder: Received block blk_752365829198406123 of size 67108864 from /10.250.6.214
081111 034742 19142 INFO dfs.DataNode$PacketResponder: Received block blk_264173861938202595 of size 67108864 from /10.250.6.214
081111 034937 19166 INFO dfs.DataNode$PacketResponder: PacketResponder 2 for block blk_5663417083925711869 terminating
081111 034937 19166 INFO dfs.DataNode$PacketResponder: PacketResponder 2 for block blk_3793011946786815562 terminating
081111 034945 19257 INFO dfs.DataNode$PacketResponder: PacketResponder 2 for block blk_-2014243777892518956 terminating
081111 034945 19257 INFO dfs.DataNode$PacketResponder: PacketResponder 2 for block blk_7584528206411239797- terminating
081111 035010 19149 INFO dfs.DataNode$DataXceiver: Receiving block blk_-8123824094195108685 src: /10.251.194.213:54308 dest: /10.251.194.213:50010
081111 035010 19149 INFO dfs.DataNode$DataXceiver: Receiving block blk_053850-8648982214119 src: /10.251.194.213:54308 dest: /10.251.194.213:50010
081111 035113 19229 INFO dfs.DataNode$DataXceiver: Receiving block blk_2080318574920472813 src: /10.251.39.64:40530 dest: /10.251.39.64:50010
081111 035113 19229 INFO dfs.DataNode$DataXceiver: Receiving block blk_0014288704321328597 src: /10.251.39.64:40530 dest: /10.251.39.64:50010
081111 035115 18830 INFO dfs.DataNode$PacketResponder: Received block blk_-290874442865281380 of size 28497700 from /10.251.203.179
081111 035115 18830 INFO dfs.DataNode$PacketResponder: Received block blk_88224863-8040512794 of size 28497700 from /10.251.203.179
081111 035152 30 INFO dfs.FSNamesystem: BLOCK* NameSystem.addStoredBlock: blockMap updated: 10.251.73.220:50010 is added to blk_5953577136151423920 size 67108864
081111 035152 30 INFO dfs.FSNamesystem: BLOCK* NameSystem.addStoredBlock: blockMap updated: 10.251.73.220:50010 is added to blk_1621572349135350579 size 67108864
081111 035247 19144 INFO dfs.DataNode$PacketResponder: PacketResponder 1 for block blk_-2780312306380730204 terminating
081111 035247 19144 INFO dfs.DataNode$PacketResponder: PacketResponder 1 for block blk_01083308047-23272360 terminating
081111 035417 19387 INFO dfs.DataNode$PacketResponder: PacketResponder 2 for block blk_-633826175832239328 terminating
081111 035417 19387 INFO dfs.DataNode$PacketResponder: PacketResponder 2 for block blk_338382327235691-826 terminating
081111 035532 32 INFO dfs.FSNamesystem: BLOCK* NameSystem.addStoredBlock: blockMap updated: 10.250.15.101:50010 is added to blk_-6540455811923725840 size 67108864
081111 035532 32 INFO dfs.FSNamesystem: BLOCK* NameSystem.addStoredBlock: blockMap updated: 10.250.15.101:50010 is added to blk_59-02135584768442150 size 67108864
081111 035620 31 INFO dfs.FSNamesystem: BLOCK* NameSystem.addStoredBlock: blockMap updated: 10.251.123.1:50010 is added to blk_6308888821787547357 size 67108864
081111 035620 31 INFO dfs.FSNamesystem: BLOCK* NameSystem.addStoredBlock: blockMap updated: 10.251.123.1:50010 is added to blk_5873836788517828407 size 67108864
081111 035834 19205 INFO dfs.DataNode$PacketResponder: PacketResponder 1 for block blk_4638603954320058978 terminating
081111 035834 19205 INFO dfs.DataNode$PacketResponder: PacketResponder 1 for block blk_3990865845764233800 terminating
081111 035913 26 INFO dfs.FSNamesystem: BLOCK* NameSystem.addStoredBlock: blockMap updated: 10.251.91.229:50010 is added to blk_-4651707530079874243 size 67108864
081111 035913 26 INFO dfs.FSNamesystem: BLOCK* NameSystem.addStoredBlock: blockMap updated: 10.251.91.229:50010 is added to blk_1447439558702-036770 size 67108864
081111 035915 19117 INFO dfs.DataNode$PacketResponder: PacketResponder 2 for block blk_5115892145206906855 terminating
081111 035915 19117 INFO dfs.DataNode$PacketResponder: PacketResponder 2 for block blk_6855510411509228965 terminating
081111 035948 19511 INFO dfs.DataNode$PacketResponder: PacketResponder 1 for block blk_-2421414377433740760 terminating
081111 035948 19511 INFO dfs.DataNode$PacketResponder: PacketResponder 1 for block blk_1330417426742437407- terminating
081111 035957 19217 INFO dfs.DataNode$PacketResponder: Received block blk_-420564586555502239 of size 67108864 from /10.251.90.64
081111 035957 19217 INFO dfs.DataNode$PacketResponder: Received block blk_655055542528942-360 of size 67108864 from /10.251.90.64
081111 040107 30 INFO dfs.FSNamesystem: BLOCK* NameSystem.allocateBlock: /user/root/randtxt4/_temporary/_task_200811101024_0010_m_000881_0/part-00881. blk_-3091906986951252347
081111 040107 30 INFO dfs.FSNamesystem: BLOCK* NameSystem.allocateBlock: /user/root/randtxt4/_temporary/_task_200811101024_0010_m_000881_0/part-00881. blk_556261299-9930183704
081111 040246 19412 INFO dfs.DataNode$PacketResponder: PacketResponder 2 for block blk_-4068751061953213467 terminating
081111 040246 19412 INFO dfs.DataNode$PacketResponder: PacketResponder 2 for block blk_65071610856793-44213 terminating
081111 040251 19350 INFO dfs.DataNode$PacketResponder: PacketResponder 0 for block blk_-3025440686907267472 terminating
081111 040251 19350 INFO dfs.DataNode$PacketResponder: PacketResponder 0 for block blk_725290707486642046-3 terminating
081111 040402 31 INFO dfs.FSNamesystem: BLOCK* NameSystem.addStoredBlock: blockMap updated: 10.251.215.70:50010 is added to blk_-420818767915591010 size 67108864
081111 040402 31 INFO dfs.FSNamesystem: BLOCK* NameSystem.addStoredBlock: blockMap updated: 10.251.215.70:50010 is added to blk_79-0564711091502881 size 67108864
081111 040405 19541 INFO dfs.DataNode$PacketResponder: PacketResponder 2 for block blk_8422946850755720617 terminating
081111 040405 19541 INFO dfs.DataNode$PacketResponder: PacketResponder 2 for block blk_7464250082768529751 terminating
081111 040425 19408 INFO dfs.DataNode$DataXceiver: Receiving block blk_-5646228903161999640 src: /10.251.71.97:60870 dest: /10.251.71.97:50010
081111 040425 19408 INFO dfs.DataNode$DataXceiver: Receiving block blk_506962699026-8913144 src: /10.251.71.97:60870 dest: /10.251.71.97:50010
081111 040521 19253 INFO dfs.DataNode$PacketResponder: PacketResponder 0 for block blk_-7024895786822269814 terminating
081111 040521 19253 INFO dfs.DataNode$PacketResponder: PacketResponder 0 for block blk_1422-469888922877056 terminating
081111 040537 19518 INFO dfs.DataNode$PacketResponder: PacketResponder 0 for block blk_-4430291708660291878 terminating
081111 040537 19518 INFO dfs.DataNode$PacketResponder: PacketResponder 0 for block blk_897106420472838609-1 terminating
081111 040543 19431 INFO dfs.DataNode$DataXceiver: Receiving block blk_-6250368566161066085 src: /10.251.31.180:42992 dest: /10.251.31.180:50010
081111 040543 19431 INFO dfs.DataNode$DataXceiver: Receiving block blk_166615006-8638562065 src: /10.251.31.180:42992 dest: /10.251.31.180:50010
081111 040544 19362 INFO dfs.DataNode$DataXceiver: Receiving block blk_-6213380972217661202 src: /10.251.203.149:40478 dest: /10.251.203.149:50010
081111 040544 19362 INFO dfs.DataNode$DataXceiver: Receiving block blk_926237221-6720086131 src: /10.251.203.149:40478 dest: /10.251.203.149:50010
081111 040604 19555 INFO dfs.DataNode$PacketResponder: Received block blk_3813891701916249413 of size 67108864 from /10.251.121.224
081111 040604 19555 INFO dfs.DataNode$PacketResponder: Received block blk_9193093327416118841 of size 67108864 from /10.251.121.224
081111 040626 19526 INFO dfs.DataNode$PacketResponder: PacketResponder 2 for block blk_903961454948542202 terminating
081111 040626 19526 INFO dfs.DataNode$PacketResponder: PacketResponder 2 for block blk_430246498522995104 terminating
081111 040653 26 INFO dfs.FSNamesystem: BLOCK* NameSystem.addStoredBlock: blockMap updated: 10.251.42.16:50010 is added to blk_3954386352306480748 size 67108864
081111 040653 26 INFO dfs.FSNamesystem: BLOCK* NameSystem.addStoredBlock: blockMap updated: 10.251.42.16:50010 is added to blk_3763089488545320346 size 67108864
081111 040658 27 INFO dfs.FSNamesystem: BLOCK* NameSystem.addStoredBlock: blockMap updated: 10.251.105.189:50010 is added to blk_4812792845864526586 size 67108864
081111 040658 27 INFO dfs.FSNamesystem: BLOCK* NameSystem.addStoredBlock: blockMap updated: 10.251.105.189:50010 is added to blk_8984445672262818556 size 67108864
081111 040728 31 INFO dfs.FSNamesystem: BLOCK* NameSystem.addStoredBlock: blockMap updated: 10.251.70.211:50010 is added to blk_5570475465835003801 size 67108864
081111 040728 31 INFO dfs.FSNamesystem: BLOCK* NameSystem.addStoredBlock: blockMap updated: 10.251.70.211:50010 is added to blk_4108554530700768355 size 67108864
081111 040751 19585 INFO dfs.DataNode$PacketResponder: Received block blk_-9190864897806028230 of size 67108864 from /10.251.214.130
081111 040751 19585 INFO dfs.DataNode$PacketResponder: Received block blk_0418929868789-023060 of size 67108864 from /10.251.214.130
081111 040754 30 INFO dfs.FSNamesystem: BLOCK* NameSystem.addStoredBlock: blockMap updated: 10.251.31.242:50010 is added to blk_-4342304152206614489 size 67108864
081111 040754 30 INFO dfs.FSNamesystem: BLOCK* NameSystem.addStoredBlock: blockMap updated: 10.251.31.242:50010 is added to blk_34622519-60310442484 size 67108864
081111 040857 19185 INFO dfs.DataNode$PacketResponder: PacketResponder 0 for block blk_-190773840747023361 terminating
081111 040857 19185 INFO dfs.DataNode$PacketResponder: PacketResponder 0 for block blk_073374781701023-496 terminating
081111 041004 30 INFO dfs.FSNamesystem: BLOCK* NameSystem.addStoredBlock: blockMap updated: 10.251.71.240:50010 is added to blk_-5580048401594934039 size 67108864
081111 041004 30 INFO dfs.FSNamesystem: BLOCK* NameSystem.addStoredBlock: blockMap updated: 10.251.71.240:50010 is added to blk_09104054538439508-49 size 67108864
081111 041039 33 INFO dfs.FSNamesystem: BLOCK* NameSystem.addStoredBlock: blockMap updated: 10.251.39.242:50010 is added to blk_6640583412927022083 size 67108864
081111 041039 33 INFO dfs.FSNamesystem: BLOCK* NameSystem.addStoredBlock: blockMap updated: 10.251.39.242:50010 is added to blk_4263826009127854230 size 67108864
081111 041111 27 INFO dfs.FSNamesystem: BLOCK* NameSystem.addStoredBlock: blockMap updated: 10.251.65.203:50010 is added to blk_-1332315107905285608 size 67108864
081111 041111 27 INFO dfs.FSNamesystem: BLOCK* NameSystem.addStoredBlock: blockMap updated: 10.251.65.203:50010 is added to blk_-0781350253150629138 size 67108864
081111 041218 19235 INFO dfs.DataNode$PacketResponder: Received block blk_3550669278239526374 of size 67108864 from /10.251.123.1
081111 041218 19235 INFO dfs.DataNode$PacketResponder: Received block blk_7592963332576564820 of size 67108864 from /10.251.123.1
081111 041219 19820 INFO dfs.DataNode$PacketResponder: PacketResponder 0 for block blk_4873550540813847659 terminating
081111 041219 19820 INFO dfs.DataNode$PacketResponder: PacketResponder 0 for block blk_5355678401340858947 terminating
081111 041252 19248 INFO dfs.DataNode$DataXceiver: Receiving block blk_-1133573997287815203 src: /10.251.123.195:59430 dest: /10.251.123.195:50010
081111 041252 19248 INFO dfs.DataNode$DataXceiver: Receiving block blk_15283725-13778903193 src: /10.251.123.195:59430 dest: /10.251.123.195:50010
081111 041349 26 INFO dfs.FSNamesystem: BLOCK* NameSystem.addStoredBlock: blockMap updated: 10.251.74.134:50010 is added to blk_2740792916077430444 size 28482383
081111 041349 26 INFO dfs.FSNamesystem: BLOCK* NameSystem.addStoredBlock: blockMap updated: 10.251.74.134:50010 is added to blk_2077404294074379146 size 28482383
081111 041425 19630 INFO dfs.DataNode$PacketResponder: PacketResponder 0 for block blk_2851869865185325732 terminating
081111 041425 19630 INFO dfs.DataNode$PacketResponder: PacketResponder 0 for block blk_3352561881762858925 terminating
081111 041443 19498 INFO dfs.DataNode$PacketResponder: PacketResponder 0 for block blk_-1842096107468319932 terminating
081111 041443 19498 INFO dfs.DataNode$PacketResponder: PacketResponder 0 for block blk_630160918327-8149924 terminating
081111 041509 20066 INFO dfs.DataNode$PacketResponder: Received block blk_-8965508153794244104 of size 28494398 from /10.251.70.112
081111 041509 20066 INFO dfs.DataNode$PacketResponder: Received block blk_2409-579058615344841 of size 28494398 from /10.251.70.112
081111 041532 19592 INFO dfs.DataNode$DataXceiver: Receiving block blk_1074754942323612586 src: /10.251.202.181:45279 dest: /10.251.202.181:50010
081111 041532 19592 INFO dfs.DataNode$DataXceiver: Receiving block blk_2317824453401569762 src: /10.251.202.181:45279 dest: /10.251.202.181:50010
081111 041534 19842 INFO dfs.DataNode$DataXceiver: Receiving block blk_-7727864185516010230 src: /10.251.43.192:36039 dest: /10.251.43.192:50010
081111 041534 19842 INFO dfs.DataNode$DataXceiver: Receiving block blk_61834212185-06577070 src: /10.251.43.192:36039 dest: /10.251.43.192:50010
081111 041701 19403 INFO dfs.DataNode$PacketResponder: PacketResponder 2 for block blk_-4779205255695723216 terminating
081111 041701 19403 INFO dfs.DataNode$PacketResponder: PacketResponder 2 for block blk_13-57265267099245257 terminating
081111 041734 19799 INFO dfs.DataNode$PacketResponder: PacketResponder 0 for block blk_2261089810991980611 terminating
081111 041734 19799 INFO dfs.DataNode$PacketResponder: PacketResponder 0 for block blk_8169991092112886100 terminating
081111 041811 19543 INFO dfs.DataNode$DataXceiver: Receiving block blk_5335498635665743905 src: /10.251.73.220:50095 dest: /10.251.73.220:50010
081111 041811 19543 INFO dfs.DataNode$DataXceiver: Receiving block blk_6476048353559553936 src: /10.251.73.220:50095 dest: /10.251.73.220:50010
081111 041926 19700 INFO dfs.DataNode$DataXceiver: Receiving block blk_-5144503768267321004 src: /10.251.107.19:36862 dest: /10.251.107.19:50010
081111 041926 19700 INFO dfs.DataNode$DataXceiver: Receiving block blk_842560161727304034-5 src: /10.251.107.19:36862 dest: /10.251.107.19:50010
081111 042009 19800 INFO dfs.DataNode$PacketResponder: PacketResponder 1 for block blk_1927336911952959118 terminating
081111 042009 19800 INFO dfs.DataNode$PacketResponder: PacketResponder 1 for block blk_8193219131692951597 terminating
081111 042024 28 INFO dfs.FSNamesystem: BLOCK* NameSystem.addStoredBlock: blockMap updated: 10.251.203.166:50010 is added to blk_-2332150303475653460 size 67108864
081111 042024 28 INFO dfs.FSNamesystem: BLOCK* NameSystem.addStoredBlock: blockMap updated: 10.251.203.166:50010 is added to blk_2160343-507243553306 size 67108864
081111 042042 19757 INFO dfs.DataNode$PacketResponder: PacketResponder 2 for block blk_2111886617384066018 terminating
081111 042042 19757 INFO dfs.DataNode$PacketResponder: PacketResponder 2 for block blk_2410111166780868836 terminating
081111 042100 19804 INFO dfs.DataNode$DataXceiver: Receiving block blk_-2506231977021079951 src: /10.251.31.160:57634 dest: /10.251.31.160:50010
081111 042100 19804 INFO dfs.DataNode$DataXceiver: Receiving block blk_17-26903207905115279 src: /10.251.31.160:57634 dest: /10.251.31.160:50010
081111 042129 32 INFO dfs.FSNamesystem: BLOCK* NameSystem.addStoredBlock: blockMap updated: 10.251.199.86:50010 is added to blk_4330492872922862223 size 67108864
081111 042129 32 INFO dfs.FSNamesystem: BLOCK* NameSystem.addStoredBlock: blockMap updated: 10.251.199.86:50010 is added to blk_4839229823622237420 size 67108864
081111 042353 19811 INFO dfs.DataNode$PacketResponder: PacketResponder 2 for block blk_6918427074195439966 terminating
081111 042353 19811 INFO dfs.DataNode$PacketResponder: PacketResponder 2 for block blk_5246076369491879941 terminating
081111 042416 19265 INFO dfs.DataNode$DataXceiver: Receiving block blk_4284688617983009262 src: /10.251.91.32:57548 dest: /10.251.91.32:50010
081111 042416 19265 INFO dfs.DataNode$DataXceiver: Receiving block blk_6416488008327228996 src: /10.251.91.32:57548 dest: /10.251.91.32:50010
081111 042427 30 INFO dfs.FSNamesystem: BLOCK* NameSystem.addStoredBlock: blockMap updated: 10.251.31.5:50010 is added to blk_5813361416484537967 size 67108864
081111 042427 30 INFO dfs.FSNamesystem: BLOCK* NameSystem.addStoredBlock: blockMap updated: 10.251.31.5:50010 is added to blk_8513185493663464177 size 67108864
081111 042456 19952 INFO dfs.DataNode$DataXceiver: Receiving block blk_-2313277713021896570 src: /10.251.123.195:58823 dest: /10.251.123.195:50010
081111 042456 19952 INFO dfs.DataNode$DataXceiver: Receiving block blk_7610517037282-312397 src: /10.251.123.195:58823 dest: /10.251.123.195:50010
081111 042457 19726 INFO dfs.DataNode$PacketResponder: PacketResponder 0 for block blk_-7778922135767840250 terminating
081111 042457 19726 INFO dfs.DataNode$PacketResponder: PacketResponder 0 for block blk_51246723-70902875877 terminating
081111 042625 19958 INFO dfs.DataNode$DataXceiver: Receiving block blk_-7350482598011027441 src: /10.250.7.96:41476 dest: /10.250.7.96:50010
081111 042625 19958 INFO dfs.DataNode$DataXceiver: Receiving block blk_34120401-58190727458 src: /10.250.7.96:41476 dest: /10.250.7.96:50010
081111 042735 19901 INFO dfs.DataNode$PacketResponder: Received block blk_-3607860197409267245 of size 28503188 from /10.251.31.180
081111 042735 19901 INFO dfs.DataNode$PacketResponder: Received block blk_704762576-9109603248 of size 28503188 from /10.251.31.180
081111 042824 18264 INFO dfs.DataNode$PacketResponder: PacketResponder 1 for block blk_4178945095089206682 terminating
081111 042824 18264 INFO dfs.DataNode$PacketResponder: PacketResponder 1 for block blk_4862945109760890825 terminating
081111 043015 19875 INFO dfs.DataNode$PacketResponder: PacketResponder 2 for block blk_-3363550789841756902 terminating
081111 043015 19875 INFO dfs.DataNode$PacketResponder: PacketResponder 2 for block blk_098-3773256981056534 terminating
081111 043042 20058 INFO dfs.DataNode$DataXceiver: Receiving block blk_345577139488306634 src: /10.251.37.240:38873 dest: /10.251.37.240:50010
081111 043042 20058 INFO dfs.DataNode$DataXceiver: Receiving block blk_743169850536443738 src: /10.251.37.240:38873 dest: /10.251.37.240:50010
081111 043106 31 INFO dfs.FSNamesystem: BLOCK* NameSystem.addStoredBlock: blockMap updated: 10.251.71.193:50010 is added to blk_4577632468651859430 size 67108864
081111 043106 31 INFO dfs.FSNamesystem: BLOCK* NameSystem.addStoredBlock: blockMap updated: 10.251.71.193:50010 is added to blk_7798203645166354845 size 67108864
081111 043132 32 INFO dfs.FSNamesystem: BLOCK* NameSystem.allocateBlock: /user/root/randtxt4/_temporary/_task_200811101024_0010_m_001716_0/part-01716. blk_-2051219911597308805
081111 043132 32 INFO dfs.FSNamesystem: BLOCK* NameSystem.allocateBlock: /user/root/randtxt4/_temporary/_task_200811101024_0010_m_001716_0/part-01716. blk_59-72025911809350181
081111 043140 19599 INFO dfs.DataNode$PacketResponder: PacketResponder 1 for block blk_-2680500627064966252 terminating
081111 043140 19599 INFO dfs.DataNode$PacketResponder: PacketResponder 1 for block blk_62-00276950642682065 terminating
081111 043222 20077 INFO dfs.DataNode$DataXceiver: Receiving block blk_-9092685890953655332 src: /10.250.15.240:43274 dest: /10.250.15.240:50010
081111 043222 20077 INFO dfs.DataNode$DataXceiver: Receiving block blk_60539398595-22059638 src: /10.250.15.240:43274 dest: /10.250.15.240:50010
081111 043341 19898 INFO dfs.DataNode$DataXceiver: Receiving block blk_-4473020641607592551 src: /10.251.42.191:48114 dest: /10.251.42.191:50010
081111 043341 19898 INFO dfs.DataNode$DataXceiver: Receiving block blk_2-716541635259074004 src: /10.251.42.191:48114 dest: /10.251.42.191:50010
081111 043358 27 INFO dfs.FSNamesystem: BLOCK* NameSystem.addStoredBlock: blockMap updated: 10.251.111.37:50010 is added to blk_-524128780228307052 size 67108864
081111 043358 27 INFO dfs.FSNamesystem: BLOCK* NameSystem.addStoredBlock: blockMap updated: 10.251.111.37:50010 is added to blk_7258-50804137028222 size 67108864
081111 043515 20251 INFO dfs.DataNode$PacketResponder: Received block blk_4443043493758564822 of size 67108864 from /10.251.106.37
081111 043515 20251 INFO dfs.DataNode$PacketResponder: Received block blk_6485330457844292434 of size 67108864 from /10.251.106.37
081111 043630 20253 INFO dfs.DataNode$PacketResponder: Received block blk_5118390778403008591 of size 67108864 from /10.251.30.101
081111 043630 20253 INFO dfs.DataNode$PacketResponder: Received block blk_0173880007599143185 of size 67108864 from /10.251.30.101
081111 043746 20226 INFO dfs.DataNode$DataXceiver: Receiving block blk_2737505352081488746 src: /10.251.194.245:52516 dest: /10.251.194.245:50010
081111 043746 20226 INFO dfs.DataNode$DataXceiver: Receiving block blk_5178758432523074608 src: /10.251.194.245:52516 dest: /10.251.194.245:50010
081111 043825 20130 INFO dfs.DataNode$PacketResponder: Received block blk_-9013487557842539661 of size 28485342 from /10.251.215.192
081111 043825 20130 INFO dfs.DataNode$PacketResponder: Received block blk_4967-568573118294350 of size 28485342 from /10.251.215.192
081111 043903 20003 INFO dfs.DataNode$PacketResponder: PacketResponder 1 for block blk_-8638442557570632582 terminating
081111 043903 20003 INFO dfs.DataNode$PacketResponder: PacketResponder 1 for block blk_54570-27826248685353 terminating
081111 044041 35 INFO dfs.FSNamesystem: BLOCK* NameSystem.addStoredBlock: blockMap updated: 10.251.202.209:50010 is added to blk_111759050707136656 size 67108864
081111 044041 35 INFO dfs.FSNamesystem: BLOCK* NameSystem.addStoredBlock: blockMap updated: 10.251.202.209:50010 is added to blk_651117573009667015 size 67108864
081111 044304 35 INFO dfs.FSNamesystem: BLOCK* NameSystem.delete: blk_2259206517962925438 is added to invalidSet of 10.251.215.16:50010
081111 044304 35 INFO dfs.FSNamesystem: BLOCK* NameSystem.delete: blk_9575296202821643295 is added to invalidSet of 10.251.215.16:50010
081111 044304 35 INFO dfs.FSNamesystem: BLOCK* NameSystem.delete: blk_-3854777877236596649 is added to invalidSet of 10.251.39.160:50010
081111 044304 35 INFO dfs.FSNamesystem: BLOCK* NameSystem.delete: blk_7629678597-683347475 is added to invalidSet of 10.251.39.160:50010
081111 044305 35 INFO dfs.FSNamesystem: BLOCK* NameSystem.delete: blk_-4265150363959543078 is added to invalidSet of 10.251.39.160:50010
081111 044305 35 INFO dfs.FSNamesystem: BLOCK* NameSystem.delete: blk_0459-331530468759256 is added to invalidSet of 10.251.39.160:50010
081111 044309 35 INFO dfs.FSNamesystem: BLOCK* NameSystem.delete: blk_3729730843466061623 is added to invalidSet of 10.251.27.63:50010
081111 044309 35 INFO dfs.FSNamesystem: BLOCK* NameSystem.delete: blk_2307146836394663207 is added to invalidSet of 10.251.27.63:50010
081111 044310 35 INFO dfs.FSNamesystem: BLOCK* NameSystem.delete: blk_3876184938151091897 is added to invalidSet of 10.251.30.85:50010
081111 044310 35 INFO dfs.FSNamesystem: BLOCK* NameSystem.delete: blk_1399589711417038886 is added to invalidSet of 10.251.30.85:50010
081111 044311 35 INFO dfs.FSNamesystem: BLOCK* NameSystem.delete: blk_-1227720343537039835 is added to invalidSet of 10.251.202.134:50010
081111 044311 35 INFO dfs.FSNamesystem: BLOCK* NameSystem.delete: blk_-2083753352790127334 is added to invalidSet of 10.251.202.134:50010
081111 044314 35 INFO dfs.FSNamesystem: BLOCK* NameSystem.delete: blk_-6921441628286995043 is added to invalidSet of 10.251.126.83:50010
081111 044314 35 INFO dfs.FSNamesystem: BLOCK* NameSystem.delete: blk_92-91644459823628160 is added to invalidSet of 10.251.126.83:50010
081111 044315 35 INFO dfs.FSNamesystem: BLOCK* NameSystem.delete: blk_3539852484771802299 is added to invalidSet of 10.250.19.227:50010
081111 044315 35 INFO dfs.FSNamesystem: BLOCK* NameSystem.delete: blk_1407785934852382929 is added to invalidSet of 10.250.19.227:50010
081111 044316 35 INFO dfs.FSNamesystem: BLOCK* NameSystem.delete: blk_2341651676737321162 is added to invalidSet of 10.251.203.129:50010
081111 044316 35 INFO dfs.FSNamesystem: BLOCK* NameSystem.delete: blk_1226611677134363257 is added to invalidSet of 10.251.203.129:50010
081111 044318 35 INFO dfs.FSNamesystem: BLOCK* NameSystem.delete: blk_-765820154946060546 is added to invalidSet of 10.251.65.203:50010
081111 044318 35 INFO dfs.FSNamesystem: BLOCK* NameSystem.delete: blk_46714086-6059405265 is added to invalidSet of 10.251.65.203:50010
081111 044319 35 INFO dfs.FSNamesystem: BLOCK* NameSystem.delete: blk_-2492400942012223395 is added to invalidSet of 10.251.202.209:50010
081111 044319 35 INFO dfs.FSNamesystem: BLOCK* NameSystem.delete: blk_922345220924320-0914 is added to invalidSet of 10.251.202.209:50010
081111 044320 35 INFO dfs.FSNamesystem: BLOCK* NameSystem.delete: blk_-8351015090014570293 is added to invalidSet of 10.251.199.86:50010
081111 044320 35 INFO dfs.FSNamesystem: BLOCK* NameSystem.delete: blk_3209-089511550704310 is added to invalidSet of 10.251.199.86:50010
081111 044328 29 INFO dfs.FSNamesystem: BLOCK* NameSystem.delete: blk_-328970571549408286 is added to invalidSet of 10.251.214.32:50010
081111 044328 29 INFO dfs.FSNamesystem: BLOCK* NameSystem.delete: blk_8080-93275728951644 is added to invalidSet of 10.251.214.32:50010
081111 044328 29 INFO dfs.FSNamesystem: BLOCK* NameSystem.delete: blk_-8130925109202184099 is added to invalidSet of 10.251.125.193:50010
081111 044328 29 INFO dfs.FSNamesystem: BLOCK* NameSystem.delete: blk_209238495219100-0189 is added to invalidSet of 10.251.125.193:50010
081111 044331 29 INFO dfs.FSNamesystem: BLOCK* NameSystem.delete: blk_-3242342105286997235 is added to invalidSet of 10.251.71.97:50010
081111 044331 29 INFO dfs.FSNamesystem: BLOCK* NameSystem.delete: blk_3827514349222296-530 is added to invalidSet of 10.251.71.97:50010
081111 044332 29 INFO dfs.FSNamesystem: BLOCK* NameSystem.delete: blk_2468407162668753567 is added to invalidSet of 10.251.106.37:50010
081111 044332 29 INFO dfs.FSNamesystem: BLOCK* NameSystem.delete: blk_6265584777601662348 is added to invalidSet of 10.251.106.37:50010
081111 044335 29 INFO dfs.FSNamesystem: BLOCK* NameSystem.delete: blk_7841365850685201915 is added to invalidSet of 10.251.110.68:50010
081111 044335 29 INFO dfs.FSNamesystem: BLOCK* NameSystem.delete: blk_0350812916465758815 is added to invalidSet of 10.251.110.68:50010
081111 044337 13 INFO dfs.DataBlockScanner: Verification succeeded for blk_-6160667975382232149
081111 044337 13 INFO dfs.DataBlockScanner: Verification succeeded for blk_02683-39917264627615
081111 044338 29 INFO dfs.FSNamesystem: BLOCK* NameSystem.delete: blk_2426255659473300323 is added to invalidSet of 10.251.106.37:50010
081111 044338 29 INFO dfs.FSNamesystem: BLOCK* NameSystem.delete: blk_0027232346394623555 is added to invalidSet of 10.251.106.37:50010
081111 044338 29 INFO dfs.FSNamesystem: BLOCK* NameSystem.delete: blk_5203504995927133832 is added to invalidSet of 10.250.13.240:50010
081111 044338 29 INFO dfs.FSNamesystem: BLOCK* NameSystem.delete: blk_2158297323090453593 is added to invalidSet of 10.250.13.240:50010
081111 044340 29 INFO dfs.FSNamesystem: BLOCK* NameSystem.delete: blk_815809455641029563 is added to invalidSet of 10.251.111.37:50010
081111 044340 29 INFO dfs.FSNamesystem: BLOCK* NameSystem.delete: blk_184560908192554653 is added to invalidSet of 10.251.111.37:50010
081111 044343 29 INFO dfs.FSNamesystem: BLOCK* NameSystem.delete: blk_6413710007211667486 is added to invalidSet of 10.251.30.179:50010
081111 044343 29 INFO dfs.FSNamesystem: BLOCK* NameSystem.delete: blk_6101031178666207474 is added to invalidSet of 10.251.30.179:50010
081111 044345 29 INFO dfs.FSNamesystem: BLOCK* NameSystem.delete: blk_-2907776069874917892 is added to invalidSet of 10.251.215.16:50010
081111 044345 29 INFO dfs.FSNamesystem: BLOCK* NameSystem.delete: blk_497072-2677899109687 is added to invalidSet of 10.251.215.16:50010
081111 044347 29 INFO dfs.FSNamesystem: BLOCK* NameSystem.delete: blk_-5802915611610989626 is added to invalidSet of 10.251.110.196:50010
081111 044347 29 INFO dfs.FSNamesystem: BLOCK* NameSystem.delete: blk_619819118-0609552266 is added to invalidSet of 10.251.110.196:50010
081111 044349 29 INFO dfs.FSNamesystem: BLOCK* NameSystem.delete: blk_-7668075074035173978 is added to invalidSet of 10.251.31.5:50010
081111 044349 29 INFO dfs.FSNamesystem: BLOCK* NameSystem.delete: blk_570709503-7736761884 is added to invalidSet of 10.251.31.5:50010
081111 044351 29 INFO dfs.FSNamesystem: BLOCK* NameSystem.delete: blk_-1573544581830458089 is added to invalidSet of 10.251.122.65:50010
081111 044351 29 INFO dfs.FSNamesystem: BLOCK* NameSystem.delete: blk_5343441078885908-155 is added to invalidSet of 10.251.122.65:50010
081111 044353 19 INFO dfs.FSDataset: Deleting block blk_-1180596628202464893 file /mnt/hadoop/dfs/data/current/subdir52/blk_-1180596628202464893
081111 044353 19 INFO dfs.FSDataset: Deleting block blk_35-66416908904221882 file /mnt/hadoop/dfs/data/current/subdir52/blk_626318-9016029588442
081111 044427 20289 INFO dfs.DataNode$DataXceiver: Receiving block blk_1407935810673971357 src: /10.251.123.99:54184 dest: /10.251.123.99:50010
081111 044427 20289 INFO dfs.DataNode$DataXceiver: Receiving block blk_4637157873539101970 src: /10.251.123.99:54184 dest: /10.251.123.99:50010
081111 044522 18 INFO dfs.FSDataset: Deleting block blk_-8167717961644709843 file /mnt/hadoop/dfs/data/current/blk_-8167717961644709843
081111 044522 18 INFO dfs.FSDataset: Deleting block blk_417748767691913-0648 file /mnt/hadoop/dfs/data/current/blk_99436611-07481477867
081111 044543 19 INFO dfs.FSDataset: Deleting block blk_-7464161062429228045 file /mnt/hadoop/dfs/data/current/subdir19/blk_-7464161062429228045
081111 044543 19 INFO dfs.FSDataset: Deleting block blk_4-165127690442428602 file /mnt/hadoop/dfs/data/current/subdir19/blk_7820266116-524429044
081111 044546 19 INFO dfs.FSDataset: Deleting block blk_-5934436507161953485 file /mnt/hadoop/dfs/data/current/subdir33/blk_-5934436507161953485
081111 044546 19 INFO dfs.FSDataset: Deleting block blk_3354554-091669345718 file /mnt/hadoop/dfs/data/current/subdir33/blk_496-5743435580653191
081111 044546 20347 INFO dfs.DataNode$PacketResponder: Received block blk_-3922743468150895472 of size 67108864 from /10.251.39.179
081111 044546 20347 INFO dfs.DataNode$PacketResponder: Received block blk_213209-7238875456449 of size 67108864 from /10.251.39.179
081111 044550 19 INFO dfs.FSDataset: Deleting block blk_-7832937837605180330 file /mnt/hadoop/dfs/data/current/subdir49/blk_-7832937837605180330
081111 044550 19 INFO dfs.FSDataset: Deleting block blk_8009-333501376288773 file /mnt/hadoop/dfs/data/current/subdir49/blk_-8058213897073336037
081111 044554 19 INFO dfs.FSDataset: Deleting block blk_-8547071368131084410 file /mnt/hadoop/dfs/data/current/subdir38/blk_-8547071368131084410
081111 044554 19 INFO dfs.FSDataset: Deleting block blk_34488764001871115-03 file /mnt/hadoop/dfs/data/current/subdir38/blk_7431046154811370880-
081111 044556 19 INFO dfs.FSDataset: Deleting block blk_-5429042599096020592 file /mnt/hadoop/dfs/data/current/subdir34/blk_-5429042599096020592
081111 044556 19 INFO dfs.FSDataset: Deleting block blk_020964250055994929-2 file /mnt/hadoop/dfs/data/current/subdir34/blk_022952904260-4999550
081111 044612 19 INFO dfs.FSDataset: Deleting block blk_-6350492516478706425 file /mnt/hadoop/dfs/data/current/subdir36/blk_-6350492516478706425
081111 044612 19 INFO dfs.FSDataset: Deleting block blk_95-72105285746634046 file /mnt/hadoop/dfs/data/current/subdir36/blk_9245545240606368177-
081111 044624 19 INFO dfs.FSDataset: Deleting block blk_-6053005391233809507 file /mnt/hadoop/dfs/data/current/subdir27/blk_-6053005391233809507
081111 044624 19 INFO dfs.FSDataset: Deleting block blk_253308305-1370960059 file /mnt/hadoop/dfs/data/current/subdir27/blk_03637009235-91358500
081111 044624 20167 INFO dfs.DataNode$PacketResponder: Received block blk_-1522998827901549925 of size 67108864 from /10.251.127.47
081111 044624 20167 INFO dfs.DataNode$PacketResponder: Received block blk_5991-922014858229759 of size 67108864 from /10.251.127.47
081111 044630 19 INFO dfs.FSDataset: Deleting block blk_-4311652947826112510 file /mnt/hadoop/dfs/data/current/subdir57/blk_-4311652947826112510
081111 044630 19 INFO dfs.FSDataset: Deleting block blk_613458117220114-5926 file /mnt/hadoop/dfs/data/current/subdir57/blk_124522145967861310-1
081111 044635 19 INFO dfs.FSDataset: Deleting block blk_-1754204887541031211 file /mnt/hadoop/dfs/data/current/subdir58/blk_-1754204887541031211
081111 044635 19 INFO dfs.FSDataset: Deleting block blk_41814874-35215201170 file /mnt/hadoop/dfs/data/current/subdir58/blk_10137117201584548-24
081111 044639 19 INFO dfs.FSDataset: Deleting block blk_-4165176068096983220 file /mnt/hadoop/dfs/data/current/subdir34/blk_-4165176068096983220
081111 044639 19 INFO dfs.FSDataset: Deleting block blk_91389664-82606250071 file /mnt/hadoop/dfs/data/current/subdir34/blk_07643806681-22016959
081111 044648 19 INFO dfs.FSDataset: Deleting block blk_4863571548336254624 file /mnt/hadoop/dfs/data/current/subdir5/blk_4863571548336254624
081111 044648 19 INFO dfs.FSDataset: Deleting block blk_5543384581466234726 file /mnt/hadoop/dfs/data/current/subdir5/blk_8541623486535672344
081111 044650 19 INFO dfs.FSDataset: Deleting block blk_-4844505495441326897 file /mnt/hadoop/dfs/data/current/subdir36/blk_-4844505495441326897
081111 044650 19 INFO dfs.FSDataset: Deleting block blk_85596434-42714944805 file /mnt/hadoop/dfs/data/current/subdir36/blk_964845405794834-2514
081111 044652 19 INFO dfs.FSDataset: Deleting block blk_-7513928662244669476 file /mnt/hadoop/dfs/data/current/subdir11/blk_-7513928662244669476
081111 044652 19 INFO dfs.FSDataset: Deleting block blk_472294263641675689-6 file /mnt/hadoop/dfs/data/current/subdir11/blk_44257996628-13662647
081111 044654 19 INFO dfs.FSDataset: Deleting block blk_-5014786445735476734 file /mnt/hadoop/dfs/data/current/subdir9/blk_-5014786445735476734
081111 044654 19 INFO dfs.FSDataset: Deleting block blk_157563737644478-5044 file /mnt/hadoop/dfs/data/current/subdir9/blk_7670841443-575463754
081111 044700 19 INFO dfs.FSDataset: Deleting block blk_-1046472716157313227 file /mnt/hadoop/dfs/data/current/subdir62/blk_-1046472716157313227
081111 044700 19 INFO dfs.FSDataset: Deleting block blk_7263771056112724-134 file /mnt/hadoop/dfs/data/current/subdir62/blk_6116472-352207731714
081111 044700 19 INFO dfs.FSDataset: Deleting block blk_-1281276222788579863 file /mnt/hadoop/dfs/data/current/subdir30/blk_-1281276222788579863
081111 044700 19 INFO dfs.FSDataset: Deleting block blk_7816236529788-182272 file /mnt/hadoop/dfs/data/current/subdir30/blk_7837581291287-628226
081111 044704 19 INFO dfs.FSDataset: Deleting block blk_449049393237281194 file /mnt/hadoop/dfs/data/current/subdir18/blk_449049393237281194
081111 044704 19 INFO dfs.FSDataset: Deleting block blk_044431298317432999 file /mnt/hadoop/dfs/data/current/subdir18/blk_399441819239024743
081111 044716 19 INFO dfs.FSDataset: Deleting block blk_352185875883785141 file /mnt/hadoop/dfs/data/current/subdir44/blk_352185875883785141
081111 044716 19 INFO dfs.FSDataset: Deleting block blk_813253784557188518 file /mnt/hadoop/dfs/data/current/subdir44/blk_712788158551384538
081111 044720 19 INFO dfs.FSDataset: Deleting block blk_-2890295200276774269 file /mnt/hadoop/dfs/data/current/subdir29/blk_-2890295200276774269
081111 044720 19 INFO dfs.FSDataset: Deleting block blk_5279292080-670247962 file /mnt/hadoop/dfs/data/current/subdir29/blk_7205287026979264902-
081111 044728 18 INFO dfs.FSDataset: Deleting block blk_1379455396847512711 file /mnt/hadoop/dfs/data/current/blk_1379455396847512711
081111 044728 18 INFO dfs.FSDataset: Deleting block blk_7627357154498913115 file /mnt/hadoop/dfs/data/current/blk_8642753759193741151
081111 044740 19 INFO dfs.FSDataset: Deleting block blk_2180875151184358991 file /mnt/hadoop/dfs/data/current/subdir31/blk_2180875151184358991
081111 044740 19 INFO dfs.FSDataset: Deleting block blk_2758855381418911910 file /mnt/hadoop/dfs/data/current/subdir31/blk_7290388158511581419
081111 044749 19766 INFO dfs.DataNode$DataXceiver: Receiving block blk_-8879979113392880065 src: /10.251.202.181:33345 dest: /10.251.202.181:50010
081111 044749 19766 INFO dfs.DataNode$DataXceiver: Receiving block blk_-8673871219995838090 src: /10.251.202.181:33345 dest: /10.251.202.181:50010
081111 044752 19 INFO dfs.FSDataset: Deleting block blk_1553688227908800900 file /mnt/hadoop/dfs/data/current/subdir15/blk_1553688227908800900
081111 044752 19 INFO dfs.FSDataset: Deleting block blk_9138009085862705208 file /mnt/hadoop/dfs/data/current/subdir15/blk_0583899750020128860
081111 044757 19 INFO dfs.FSDataset: Deleting block blk_6138894560185644209 file /mnt/hadoop/dfs/data/current/subdir42/blk_6138894560185644209
081111 044757 19 INFO dfs.FSDataset: Deleting block blk_4028166449968150538 file /mnt/hadoop/dfs/data/current/subdir42/blk_4294069561088641853
081111 044759 19 INFO dfs.FSDataset: Deleting block blk_-1368324087589035770 file /mnt/hadoop/dfs/data/current/blk_-1368324087589035770
081111 044759 19 INFO dfs.FSDataset: Deleting block blk_23386-84570187039075 file /mnt/hadoop/dfs/data/current/blk_063958-7487723538010
081111 044759 19 INFO dfs.FSDataset: Deleting block blk_3274968259628929519 file /mnt/hadoop/dfs/data/current/subdir19/blk_3274968259628929519
081111 044759 19 INFO dfs.FSDataset: Deleting block blk_5122943862692785999 file /mnt/hadoop/dfs/data/current/subdir19/blk_7268631252999998254
081111 044806 19 INFO dfs.FSDataset: Deleting block blk_5736622945587812309 file /mnt/hadoop/dfs/data/current/subdir19/blk_5736622945587812309
081111 044806 19 INFO dfs.FSDataset: Deleting block blk_8357922165907364852 file /mnt/hadoop/dfs/data/current/subdir19/blk_5687238946525790312
081111 044812 19 INFO dfs.FSDataset: Deleting block blk_9142114171015520823 file /mnt/hadoop/dfs/data/current/subdir48/blk_9142114171015520823
081111 044812 19 INFO dfs.FSDataset: Deleting block blk_9014152348151112207 file /mnt/hadoop/dfs/data/current/subdir48/blk_2152211591441071803
081111 044822 19 INFO dfs.FSDataset: Deleting block blk_8556592730481313831 file /mnt/hadoop/dfs/data/current/blk_8556592730481313831
081111 044822 19 INFO dfs.FSDataset: Deleting block blk_1885415139267335830 file /mnt/hadoop/dfs/data/current/blk_3956173034153885182
081111 044834 19 INFO dfs.FSDataset: Deleting block blk_6147898566868510104 file /mnt/hadoop/dfs/data/current/subdir36/blk_6147898566868510104
081111 044834 19 INFO dfs.FSDataset: Deleting block blk_4854681157966810068 file /mnt/hadoop/dfs/data/current/subdir36/blk_1685448566079110886
081111 044847 20391 INFO dfs.DataNode$DataXceiver: Receiving block blk_-4334868513923498900 src: /10.251.91.15:35440 dest: /10.251.91.15:50010
081111 044847 20391 INFO dfs.DataNode$DataXceiver: Receiving block blk_394339608-0398484125 src: /10.251.91.15:35440 dest: /10.251.91.15:50010
081111 044855 19 INFO dfs.FSDataset: Deleting block blk_9081834782322008396 file /mnt/hadoop/dfs/data/current/subdir40/blk_9081834782322008396
081111 044855 19 INFO dfs.FSDataset: Deleting block blk_3080182836990724238 file /mnt/hadoop/dfs/data/current/subdir40/blk_8323799216088042803
081111 044913 18 INFO dfs.FSDataset: Deleting block blk_8962411947457130719 file /mnt/hadoop/dfs/data/current/subdir16/blk_8962411947457130719
081111 044913 18 INFO dfs.FSDataset: Deleting block blk_1273785714164949109 file /mnt/hadoop/dfs/data/current/subdir16/blk_1170395684912774149
081111 045125 30 INFO dfs.FSNamesystem: BLOCK* NameSystem.addStoredBlock: blockMap updated: 10.251.75.143:50010 is added to blk_2312679955495839894 size 67108864
081111 045125 30 INFO dfs.FSNamesystem: BLOCK* NameSystem.addStoredBlock: blockMap updated: 10.251.75.143:50010 is added to blk_4729895329136985954 size 67108864
081111 045125 30 INFO dfs.FSNamesystem: BLOCK* NameSystem.addStoredBlock: blockMap updated: 10.251.75.143:50010 is added to blk_7434237665308221519 size 67108864
081111 045125 30 INFO dfs.FSNamesystem: BLOCK* NameSystem.addStoredBlock: blockMap updated: 10.251.75.143:50010 is added to blk_3626795131038424572 size 67108864
081111 045222 20321 INFO dfs.DataNode$DataXceiver: Receiving block blk_2380775154966815858 src: /10.251.107.50:33333 dest: /10.251.107.50:50010
081111 045222 20321 INFO dfs.DataNode$DataXceiver: Receiving block blk_5881325758986157604 src: /10.251.107.50:33333 dest: /10.251.107.50:50010
081111 045224 20229 INFO dfs.DataNode$PacketResponder: Received block blk_3777389444004341563 of size 67108864 from /10.251.214.175
081111 045224 20229 INFO dfs.DataNode$PacketResponder: Received block blk_6444403571970743383 of size 67108864 from /10.251.214.175
081111 045252 20089 INFO dfs.DataNode$PacketResponder: PacketResponder 2 for block blk_-4578850505370039622 terminating
081111 045252 20089 INFO dfs.DataNode$PacketResponder: PacketResponder 2 for block blk_0-825055095347283067 terminating
081111 045430 28 INFO dfs.FSNamesystem: BLOCK* NameSystem.addStoredBlock: blockMap updated: 10.250.6.214:50010 is added to blk_4893049344332234616 size 67108864
081111 045430 28 INFO dfs.FSNamesystem: BLOCK* NameSystem.addStoredBlock: blockMap updated: 10.250.6.214:50010 is added to blk_2864332404339446319 size 67108864
081111 045614 20587 INFO dfs.DataNode$DataXceiver: Receiving block blk_9131004320470011870 src: /10.251.123.132:52815 dest: /10.251.123.132:50010
081111 045614 20587 INFO dfs.DataNode$DataXceiver: Receiving block blk_0003190402471301817 src: /10.251.123.132:52815 dest: /10.251.123.132:50010
081111 045623 31 INFO dfs.FSNamesystem: BLOCK* NameSystem.allocateBlock: /user/root/rand5/_temporary/_task_200811101024_0011_m_000040_0/part-00040. blk_1253515519191706153
081111 045623 31 INFO dfs.FSNamesystem: BLOCK* NameSystem.allocateBlock: /user/root/rand5/_temporary/_task_200811101024_0011_m_000040_0/part-00040. blk_3591125116503571951
081111 045628 26 INFO dfs.FSNamesystem: BLOCK* NameSystem.addStoredBlock: blockMap updated: 10.251.214.130:50010 is added to blk_-9056748866943837167 size 67108864
081111 045628 26 INFO dfs.FSNamesystem: BLOCK* NameSystem.addStoredBlock: blockMap updated: 10.251.214.130:50010 is added to blk_-7494866878566039173 size 67108864
081111 045751 26 INFO dfs.FSNamesystem: BLOCK* NameSystem.addStoredBlock: blockMap updated: 10.251.126.22:50010 is added to blk_-8298519990603402919 size 67108864
081111 045751 26 INFO dfs.FSNamesystem: BLOCK* NameSystem.addStoredBlock: blockMap updated: 10.251.126.22:50010 is added to blk_08019299921946-03598 size 67108864
081111 045804 20338 INFO dfs.DataNode$PacketResponder: Received block blk_-337972286882621518 of size 67108864 from /10.250.10.144
081111 045804 20338 INFO dfs.DataNode$PacketResponder: Received block blk_72821321932568-8768 of size 67108864 from /10.250.10.144
081111 045834 19263 INFO dfs.DataNode$PacketResponder: PacketResponder 0 for block blk_-4411589101766563890 terminating
081111 045834 19263 INFO dfs.DataNode$PacketResponder: PacketResponder 0 for block blk_340-1616508658411997 terminating
081111 045903 20579 INFO dfs.DataNode$DataXceiver: Receiving block blk_-8838632285969241889 src: /10.251.43.21:35844 dest: /10.251.43.21:50010
081111 045903 20579 INFO dfs.DataNode$DataXceiver: Receiving block blk_9835298866843298-218 src: /10.251.43.21:35844 dest: /10.251.43.21:50010
081111 045904 20552 INFO dfs.DataNode$PacketResponder: PacketResponder 2 for block blk_-8225435781013159573 terminating
081111 045904 20552 INFO dfs.DataNode$PacketResponder: PacketResponder 2 for block blk_705318835123-5547921 terminating
081111 045911 26 INFO dfs.FSNamesystem: BLOCK* NameSystem.addStoredBlock: blockMap updated: 10.251.27.63:50010 is added to blk_-7985144765168396303 size 67108864
081111 045911 26 INFO dfs.FSNamesystem: BLOCK* NameSystem.addStoredBlock: blockMap updated: 10.251.27.63:50010 is added to blk_36948176360953758-14 size 67108864
081111 050045 31 INFO dfs.FSNamesystem: BLOCK* NameSystem.allocateBlock: /user/root/rand5/_temporary/_task_200811101024_0011_m_000541_0/part-00541. blk_-6841570414687342011
081111 050045 31 INFO dfs.FSNamesystem: BLOCK* NameSystem.allocateBlock: /user/root/rand5/_temporary/_task_200811101024_0011_m_000541_0/part-00541. blk_1-218048614617403745
081111 050105 20507 INFO dfs.DataNode$PacketResponder: Received block blk_3924177422736829493 of size 67108864 from /10.251.66.102
081111 050105 20507 INFO dfs.DataNode$PacketResponder: Received block blk_2974274381423923796 of size 67108864 from /10.251.66.102
081111 050307 20305 INFO dfs.DataNode$DataXceiver: Receiving block blk_9074726164158535746 src: /10.251.214.32:34409 dest: /10.251.214.32:50010
081111 050307 20305 INFO dfs.DataNode$DataXceiver: Receiving block blk_0654415513787467926 src: /10.251.214.32:34409 dest: /10.251.214.32:50010
081111 050313 27 INFO dfs.FSNamesystem: BLOCK* NameSystem.addStoredBlock: blockMap updated: 10.251.107.242:50010 is added to blk_-5773244829531118765 size 67108864
081111 050313 27 INFO dfs.FSNamesystem: BLOCK* NameSystem.addStoredBlock: blockMap updated: 10.251.107.242:50010 is added to blk_3678284775191512-435 size 67108864
081111 050334 20441 INFO dfs.DataNode$DataXceiver: Received block blk_-4411589101766563890 src: /10.250.14.38:37362 dest: /10.250.14.38:50010 of size 67108864
081111 050334 20441 INFO dfs.DataNode$DataXceiver: Received block blk_066118990-4755141683 src: /10.250.14.38:37362 dest: /10.250.14.38:50010 of size 67108864
081111 050346 27 INFO dfs.FSNamesystem: BLOCK* NameSystem.addStoredBlock: blockMap updated: 10.251.90.64:50010 is added to blk_-8923923031063738809 size 67108864
081111 050346 27 INFO dfs.FSNamesystem: BLOCK* NameSystem.addStoredBlock: blockMap updated: 10.251.90.64:50010 is added to blk_263907820333398801-9 size 67108864
081111 050414 20630 INFO dfs.DataNode$DataXceiver: Receiving block blk_-8703611999267892995 src: /10.250.15.101:32889 dest: /10.250.15.101:50010
081111 050414 20630 INFO dfs.DataNode$DataXceiver: Receiving block blk_680658999-7191232979 src: /10.250.15.101:32889 dest: /10.250.15.101:50010
081111 050426 26 INFO dfs.FSNamesystem: BLOCK* NameSystem.addStoredBlock: blockMap updated: 10.250.15.101:50010 is added to blk_-5352085087037370841 size 67108864
081111 050426 26 INFO dfs.FSNamesystem: BLOCK* NameSystem.addStoredBlock: blockMap updated: 10.250.15.101:50010 is added to blk_4385707835-075012038 size 67108864
081111 050534 20462 INFO dfs.DataNode$PacketResponder: Received block blk_1411218759880637753 of size 67108864 from /10.251.123.20
081111 050534 20462 INFO dfs.DataNode$PacketResponder: Received block blk_1198767380125783415 of size 67108864 from /10.251.123.20
081111 050710 20499 INFO dfs.DataNode$PacketResponder: PacketResponder 2 for block blk_-2268450354164990110 terminating
081111 050710 20499 INFO dfs.DataNode$PacketResponder: PacketResponder 2 for block blk_02041659239144510-86 terminating
081111 051005 26 INFO dfs.FSNamesystem: BLOCK* NameSystem.addStoredBlock: blockMap updated: 10.251.122.79:50010 is added to blk_-3622135859810774312 size 67108864
081111 051005 26 INFO dfs.FSNamesystem: BLOCK* NameSystem.addStoredBlock: blockMap updated: 10.251.122.79:50010 is added to blk_796-3071835241125238 size 67108864
081111 051007 21019 INFO dfs.DataNode$DataXceiver: Receiving block blk_-2667669005094349452 src: /10.251.203.149:41751 dest: /10.251.203.149:50010
081111 051007 21019 INFO dfs.DataNode$DataXceiver: Receiving block blk_065642964947-6053920 src: /10.251.203.149:41751 dest: /10.251.203.149:50010
081111 051128 20647 INFO dfs.DataNode$PacketResponder: Received block blk_-2935178173527646581 of size 67108864 from /10.251.65.237
081111 051128 20647 INFO dfs.DataNode$PacketResponder: Received block blk_6961783152537-245817 of size 67108864 from /10.251.65.237
081111 051129 35 INFO dfs.FSNamesystem: BLOCK* NameSystem.addStoredBlock: blockMap updated: 10.251.107.227:50010 is added to blk_5781791720343455145 size 67108864
081111 051129 35 INFO dfs.FSNamesystem: BLOCK* NameSystem.addStoredBlock: blockMap updated: 10.251.107.227:50010 is added to blk_8792711345544351075 size 67108864
081111 051130 20759 INFO dfs.DataNode$PacketResponder: Received block blk_49420377461855719 of size 67108864 from /10.251.70.112
081111 051130 20759 INFO dfs.DataNode$PacketResponder: Received block blk_37104896545779241 of size 67108864 from /10.251.70.112
081111 051331 20788 INFO dfs.DataNode$PacketResponder: PacketResponder 0 for block blk_-805262942087665153 terminating
081111 051331 20788 INFO dfs.DataNode$PacketResponder: PacketResponder 0 for block blk_6125-60278980645352 terminating
081111 051411 30 INFO dfs.FSNamesystem: BLOCK* NameSystem.addStoredBlock: blockMap updated: 10.251.214.225:50010 is added to blk_8323519561483823145 size 67108864
081111 051411 30 INFO dfs.FSNamesystem: BLOCK* NameSystem.addStoredBlock: blockMap updated: 10.251.214.225:50010 is added to blk_1142285683541833935 size 67108864
081111 051513 20482 INFO dfs.DataNode$DataXceiver: Receiving block blk_2208589726473895860 src: /10.251.199.245:33914 dest: /10.251.199.245:50010
081111 051513 20482 INFO dfs.DataNode$DataXceiver: Receiving block blk_2802698598737805426 src: /10.251.199.245:33914 dest: /10.251.199.245:50010
081111 051517 20834 INFO dfs.DataNode$DataXceiver: Receiving block blk_-6618090096819679591 src: /10.251.214.67:58610 dest: /10.251.214.67:50010
081111 051517 20834 INFO dfs.DataNode$DataXceiver: Receiving block blk_99-96015890869016671 src: /10.251.214.67:58610 dest: /10.251.214.67:50010
081111 051555 27 INFO dfs.FSNamesystem: BLOCK* NameSystem.addStoredBlock: blockMap updated: 10.251.42.16:50010 is added to blk_-3253005280055520211 size 67108864
081111 051555 27 INFO dfs.FSNamesystem: BLOCK* NameSystem.addStoredBlock: blockMap updated: 10.251.42.16:50010 is added to blk_3251200532-005258015 size 67108864
081111 051726 20622 INFO dfs.DataNode$PacketResponder: Received block blk_-6832799704680039005 of size 67108864 from /10.250.17.225
081111 051726 20622 INFO dfs.DataNode$PacketResponder: Received block blk_6973-708940609028035 of size 67108864 from /10.250.17.225
081111 051744 33 INFO dfs.FSNamesystem: BLOCK* NameSystem.addStoredBlock: blockMap updated: 10.251.65.203:50010 is added to blk_4777657900314457675 size 3546628
081111 051744 33 INFO dfs.FSNamesystem: BLOCK* NameSystem.addStoredBlock: blockMap updated: 10.251.65.203:50010 is added to blk_1477097046375747565 size 3546628
081111 051819 20803 INFO dfs.DataNode$PacketResponder: Received block blk_-6464892000340112134 of size 67108864 from /10.250.5.161
081111 051819 20803 INFO dfs.DataNode$PacketResponder: Received block blk_410-2360846240914031 of size 67108864 from /10.250.5.161
081111 051953 20767 INFO dfs.DataNode$PacketResponder: PacketResponder 2 for block blk_-8435779070374485499 terminating
081111 051953 20767 INFO dfs.DataNode$PacketResponder: PacketResponder 2 for block blk_797853400945774439-8 terminating
081111 052017 20779 INFO dfs.DataNode$PacketResponder: Received block blk_8993862241777591326 of size 67108864 from /10.250.15.240
081111 052017 20779 INFO dfs.DataNode$PacketResponder: Received block blk_7699288133975176224 of size 67108864 from /10.250.15.240
081111 052103 20872 INFO dfs.DataNode$DataXceiver: Receiving block blk_8452214765874767801 src: /10.251.38.197:60409 dest: /10.251.38.197:50010
081111 052103 20872 INFO dfs.DataNode$DataXceiver: Receiving block blk_4612772561740578884 src: /10.251.38.197:60409 dest: /10.251.38.197:50010
081111 052348 31 INFO dfs.FSNamesystem: BLOCK* NameSystem.addStoredBlock: blockMap updated: 10.251.90.239:50010 is added to blk_-2281067667503210140 size 67108864
081111 052348 31 INFO dfs.FSNamesystem: BLOCK* NameSystem.addStoredBlock: blockMap updated: 10.251.90.239:50010 is added to blk_1-308157002202766461 size 67108864
081111 052507 21174 INFO dfs.DataNode$PacketResponder: PacketResponder 2 for block blk_-4424971182856566289 terminating
081111 052507 21174 INFO dfs.DataNode$PacketResponder: PacketResponder 2 for block blk_7452884-924196168625 terminating
081111 052633 21162 INFO dfs.DataNode$PacketResponder: PacketResponder 0 for block blk_2040222317555585426 terminating
081111 052633 21162 INFO dfs.DataNode$PacketResponder: PacketResponder 0 for block blk_7056225328525124450 terminating
081111 052716 20795 INFO dfs.DataNode$DataXceiver: Receiving block blk_-663653551898848389 src: /10.251.203.149:42756 dest: /10.251.203.149:50010
081111 052716 20795 INFO dfs.DataNode$DataXceiver: Receiving block blk_84516368538996883-5 src: /10.251.203.149:42756 dest: /10.251.203.149:50010
081111 052803 21053 INFO dfs.DataNode$DataXceiver: Receiving block blk_-5836693155656083066 src: /10.251.214.67:41233 dest: /10.251.214.67:50010
081111 052803 21053 INFO dfs.DataNode$DataXceiver: Receiving block blk_0506538-656139563668 src: /10.251.214.67:41233 dest: /10.251.214.67:50010
081111 052812 21102 INFO dfs.DataNode$DataXceiver: Receiving block blk_-7228803354694123939 src: /10.251.195.70:50389 dest: /10.251.195.70:50010
081111 052812 21102 INFO dfs.DataNode$DataXceiver: Receiving block blk_329-9541347698230328 src: /10.251.195.70:50389 dest: /10.251.195.70:50010
081111 052842 21012 INFO dfs.DataNode$PacketResponder: PacketResponder 2 for block blk_2953550760670423417 terminating
081111 052842 21012 INFO dfs.DataNode$PacketResponder: PacketResponder 2 for block blk_4276549273100553607 terminating
081111 052846 21358 INFO dfs.DataNode$PacketResponder: Received block blk_5348548743130215090 of size 67108864 from /10.251.39.179
081111 052846 21358 INFO dfs.DataNode$PacketResponder: Received block blk_4950341457580383210 of size 67108864 from /10.251.39.179
081111 052853 20914 INFO dfs.DataNode$PacketResponder: Received block blk_7413830214932763926 of size 67108864 from /10.251.125.174
081111 052853 20914 INFO dfs.DataNode$PacketResponder: Received block blk_4371292633603948217 of size 67108864 from /10.251.125.174
081111 053001 20539 INFO dfs.DataNode$PacketResponder: Received block blk_6329639726609402522 of size 67108864 from /10.251.107.19
081111 053001 20539 INFO dfs.DataNode$PacketResponder: Received block blk_3929069262622675304 of size 67108864 from /10.251.107.19
081111 053010 30 INFO dfs.FSNamesystem: BLOCK* NameSystem.allocateBlock: /user/root/rand5/_temporary/_task_200811101024_0011_m_001408_0/part-01408. blk_6601059760261449131
081111 053010 30 INFO dfs.FSNamesystem: BLOCK* NameSystem.allocateBlock: /user/root/rand5/_temporary/_task_200811101024_0011_m_001408_0/part-01408. blk_1104362061961065974
081111 053158 21003 INFO dfs.DataNode$DataXceiver: Receiving block blk_-5439682406172672049 src: /10.251.42.207:36091 dest: /10.251.42.207:50010
081111 053158 21003 INFO dfs.DataNode$DataXceiver: Receiving block blk_976482064749-2213065 src: /10.251.42.207:36091 dest: /10.251.42.207:50010
081111 053245 21296 INFO dfs.DataNode$DataXceiver: Receiving block blk_-7492294065771709299 src: /10.251.203.149:41058 dest: /10.251.203.149:50010
081111 053245 21296 INFO dfs.DataNode$DataXceiver: Receiving block blk_4979270220979976-415 src: /10.251.203.149:41058 dest: /10.251.203.149:50010
081111 053325 30 INFO dfs.FSNamesystem: BLOCK* NameSystem.addStoredBlock: blockMap updated: 10.251.39.144:50010 is added to blk_1526403491950199810 size 3534443
081111 053325 30 INFO dfs.FSNamesystem: BLOCK* NameSystem.addStoredBlock: blockMap updated: 10.251.39.144:50010 is added to blk_3615982099141049051 size 3534443
081111 053347 21024 INFO dfs.DataNode$PacketResponder: Received block blk_8902425017314766082 of size 67108864 from /10.251.26.131
081111 053347 21024 INFO dfs.DataNode$PacketResponder: Received block blk_0189224476380160572 of size 67108864 from /10.251.26.131
081111 053359 28 INFO dfs.FSNamesystem: BLOCK* NameSystem.allocateBlock: /user/root/rand5/_temporary/_task_200811101024_0011_m_001730_0/part-01730. blk_6400082566804273401
081111 053359 28 INFO dfs.FSNamesystem: BLOCK* NameSystem.allocateBlock: /user/root/rand5/_temporary/_task_200811101024_0011_m_001730_0/part-01730. blk_0584860442036017026
081111 053400 21069 INFO dfs.DataNode$DataXceiver: Receiving block blk_6400082566804273401 src: /10.251.38.214:42160 dest: /10.251.38.214:50010
081111 053400 21069 INFO dfs.DataNode$DataXceiver: Receiving block blk_0204510846083647026 src: /10.251.38.214:42160 dest: /10.251.38.214:50010
081111 053431 20804 INFO dfs.DataNode$PacketResponder: Received block blk_4989329877491629543 of size 67108864 from /10.250.15.67
081111 053431 20804 INFO dfs.DataNode$PacketResponder: Received block blk_9279847452339996148 of size 67108864 from /10.250.15.67
081111 053619 21091 INFO dfs.DataNode$DataXceiver: Receiving block blk_-6608350831463251448 src: /10.251.107.196:43317 dest: /10.251.107.196:50010
081111 053619 21091 INFO dfs.DataNode$DataXceiver: Receiving block blk_84580045336163-61842 src: /10.251.107.196:43317 dest: /10.251.107.196:50010
081111 053916 21341 INFO dfs.DataNode$PacketResponder: PacketResponder 1 for block blk_-5580322334454533924 terminating
081111 053916 21341 INFO dfs.DataNode$PacketResponder: PacketResponder 1 for block blk_325935045483425-2343 terminating
081111 053932 21163 INFO dfs.DataNode$PacketResponder: PacketResponder 1 for block blk_7500282100357271699 terminating
081111 053932 21163 INFO dfs.DataNode$PacketResponder: PacketResponder 1 for block blk_9075902718617030225 terminating
081111 053958 21262 INFO dfs.DataNode$DataXceiver: Receiving block blk_8087142318511408355 src: /10.250.15.67:55334 dest: /10.250.15.67:50010
081111 053958 21262 INFO dfs.DataNode$DataXceiver: Receiving block blk_8803488015135542171 src: /10.250.15.67:55334 dest: /10.250.15.67:50010
081111 054004 21237 INFO dfs.DataNode$PacketResponder: Received block blk_-997605125898553536 of size 67108864 from /10.251.30.179
081111 054004 21237 INFO dfs.DataNode$PacketResponder: Received block blk_555678935936-159802 of size 67108864 from /10.251.30.179
081111 054018 33 INFO dfs.FSNamesystem: BLOCK* NameSystem.addStoredBlock: blockMap updated: 10.251.106.37:50010 is added to blk_-4510259260131940043 size 3552141
081111 054018 33 INFO dfs.FSNamesystem: BLOCK* NameSystem.addStoredBlock: blockMap updated: 10.251.106.37:50010 is added to blk_-1214009043069352415 size 3552141
081111 054135 21577 INFO dfs.DataNode$PacketResponder: Received block blk_2270593866672608129 of size 67108864 from /10.250.11.53
081111 054135 21577 INFO dfs.DataNode$PacketResponder: Received block blk_8516270699867620322 of size 67108864 from /10.250.11.53
081111 054310 21173 INFO dfs.DataNode$PacketResponder: Received block blk_6685663454079607598 of size 10157271 from /10.251.66.3
081111 054310 21173 INFO dfs.DataNode$PacketResponder: Received block blk_3465569804968767056 of size 10157271 from /10.251.66.3
081111 054323 35 INFO dfs.FSNamesystem: BLOCK* NameSystem.addStoredBlock: blockMap updated: 10.251.30.179:50010 is added to blk_-4347054230277727863 size 67108864
081111 054323 35 INFO dfs.FSNamesystem: BLOCK* NameSystem.addStoredBlock: blockMap updated: 10.251.30.179:50010 is added to blk_7358274420720734-637 size 67108864
081111 054342 20995 INFO dfs.DataNode$PacketResponder: PacketResponder 0 for block blk_-1067234447809438340 terminating
081111 054342 20995 INFO dfs.DataNode$PacketResponder: PacketResponder 0 for block blk_1-402434863440390778 terminating
081111 054443 21162 INFO dfs.DataNode$PacketResponder: PacketResponder 0 for block blk_-1096621677333075077 terminating
081111 054443 21162 INFO dfs.DataNode$PacketResponder: PacketResponder 0 for block blk_717067609-6277331503 terminating
081111 054449 26 INFO dfs.FSNamesystem: BLOCK* NameSystem.addStoredBlock: blockMap updated: 10.251.125.193:50010 is added to blk_-8657800226489501791 size 3550839
081111 054449 26 INFO dfs.FSNamesystem: BLOCK* NameSystem.addStoredBlock: blockMap updated: 10.251.125.193:50010 is added to blk_10-89258904082175676 size 3550839
081111 054504 21552 INFO dfs.DataNode$PacketResponder: PacketResponder 1 for block blk_2151150262081352617 terminating
081111 054504 21552 INFO dfs.DataNode$PacketResponder: PacketResponder 1 for block blk_1226150612517513208 terminating
081111 054731 29 INFO dfs.FSNamesystem: BLOCK* NameSystem.delete: blk_3280859030919654043 is added to invalidSet of 10.251.214.130:50010
081111 054731 29 INFO dfs.FSNamesystem: BLOCK* NameSystem.delete: blk_0350069543389421098 is added to invalidSet of 10.251.214.130:50010
081111 054811 21215 INFO dfs.DataNode$PacketResponder: PacketResponder 2 for block blk_-6811828069408410657 terminating
081111 054811 21215 INFO dfs.DataNode$PacketResponder: PacketResponder 2 for block blk_601618-0482805947861 terminating
081111 054914 21234 INFO dfs.DataNode$PacketResponder: Received block blk_4967370797322420259 of size 67108864 from /10.251.39.192
081111 054914 21234 INFO dfs.DataNode$PacketResponder: Received block blk_9377235442290277069 of size 67108864 from /10.251.39.192
081111 055147 28 INFO dfs.FSNamesystem: BLOCK* NameSystem.addStoredBlock: blockMap updated: 10.251.127.243:50010 is added to blk_-719178972315562824 size 67108864
081111 055147 28 INFO dfs.FSNamesystem: BLOCK* NameSystem.addStoredBlock: blockMap updated: 10.251.127.243:50010 is added to blk_4157692157-29887231 size 67108864
081111 055219 33 INFO dfs.FSNamesystem: BLOCK* NameSystem.addStoredBlock: blockMap updated: 10.251.67.4:50010 is added to blk_9093176996492793041 size 67108864
081111 055219 33 INFO dfs.FSNamesystem: BLOCK* NameSystem.addStoredBlock: blockMap updated: 10.251.67.4:50010 is added to blk_6903720441996997913 size 67108864
081111 055444 21503 INFO dfs.DataNode$PacketResponder: PacketResponder 1 for block blk_-7200400342436668240 terminating
081111 055444 21503 INFO dfs.DataNode$PacketResponder: PacketResponder 1 for block blk_304202-0407660464823 terminating
081111 055501 21608 INFO dfs.DataNode$PacketResponder: Received block blk_7213990003235926706 of size 67108864 from /10.250.11.100
081111 055501 21608 INFO dfs.DataNode$PacketResponder: Received block blk_9662309170320920573 of size 67108864 from /10.250.11.100
081111 055640 28 INFO dfs.FSNamesystem: BLOCK* NameSystem.addStoredBlock: blockMap updated: 10.250.7.32:50010 is added to blk_-2125743956855238111 size 67108864
081111 055640 28 INFO dfs.FSNamesystem: BLOCK* NameSystem.addStoredBlock: blockMap updated: 10.250.7.32:50010 is added to blk_7582134519385-251621 size 67108864
081111 055936 28 INFO dfs.FSNamesystem: BLOCK* NameSystem.addStoredBlock: blockMap updated: 10.250.7.244:50010 is added to blk_-4875138366845786590 size 67108864
081111 055936 28 INFO dfs.FSNamesystem: BLOCK* NameSystem.addStoredBlock: blockMap updated: 10.250.7.244:50010 is added to blk_376490586-7545381688 size 67108864
081111 060015 21733 INFO dfs.DataNode$PacketResponder: PacketResponder 0 for block blk_2508619583759354778 terminating
081111 060015 21733 INFO dfs.DataNode$PacketResponder: PacketResponder 0 for block blk_9058387485655731729 terminating
081111 060043 32 INFO dfs.FSNamesystem: BLOCK* NameSystem.addStoredBlock: blockMap updated: 10.250.7.244:50010 is added to blk_6095704128062577668 size 28484260
081111 060043 32 INFO dfs.FSNamesystem: BLOCK* NameSystem.addStoredBlock: blockMap updated: 10.250.7.244:50010 is added to blk_6526677046021880957 size 28484260
081111 060104 21535 INFO dfs.DataNode$PacketResponder: PacketResponder 2 for block blk_6123232805286187512 terminating
081111 060104 21535 INFO dfs.DataNode$PacketResponder: PacketResponder 2 for block blk_1818576586233122022 terminating
081111 060154 21461 INFO dfs.DataNode$DataXceiver: Receiving block blk_6413965758113058023 src: /10.251.199.150:45184 dest: /10.251.199.150:50010
081111 060154 21461 INFO dfs.DataNode$DataXceiver: Receiving block blk_9356151318620540873 src: /10.251.199.150:45184 dest: /10.251.199.150:50010
081111 060244 28 INFO dfs.FSNamesystem: BLOCK* NameSystem.addStoredBlock: blockMap updated: 10.251.197.226:50010 is added to blk_7275457888263057111 size 67108864
081111 060244 28 INFO dfs.FSNamesystem: BLOCK* NameSystem.addStoredBlock: blockMap updated: 10.251.197.226:50010 is added to blk_8538184076755271712 size 67108864
081111 060510 21849 INFO dfs.DataNode$PacketResponder: PacketResponder 1 for block blk_6818232325322327288 terminating
081111 060510 21849 INFO dfs.DataNode$PacketResponder: PacketResponder 1 for block blk_8232836213282278253 terminating
081111 061043 21809 INFO dfs.DataNode$PacketResponder: Received block blk_-5954527587435406374 of size 67108864 from /10.251.106.10
081111 061043 21809 INFO dfs.DataNode$PacketResponder: Received block blk_330557476894425557-4 of size 67108864 from /10.251.106.10
081111 061200 21837 INFO dfs.DataNode$PacketResponder: Received block blk_-4358842839092719327 of size 67108864 from /10.250.15.67
081111 061200 21837 INFO dfs.DataNode$PacketResponder: Received block blk_2739435913808827-924 of size 67108864 from /10.250.15.67
081111 061202 22063 INFO dfs.DataNode$PacketResponder: Received block blk_1489031087420498797 of size 67108864 from /10.251.71.193
081111 061202 22063 INFO dfs.DataNode$PacketResponder: Received block blk_4179148098837790042 of size 67108864 from /10.251.71.193
081111 061534 21779 INFO dfs.DataNode$PacketResponder: PacketResponder 2 for block blk_-615578808743808725 terminating
081111 061534 21779 INFO dfs.DataNode$PacketResponder: PacketResponder 2 for block blk_3-18885064575082877 terminating
081111 061549 21862 INFO dfs.DataNode$PacketResponder: Received block blk_4588471931728384541 of size 67108864 from /10.251.90.81
081111 061549 21862 INFO dfs.DataNode$PacketResponder: Received block blk_4587814593382147841 of size 67108864 from /10.251.90.81
081111 061602 31 INFO dfs.FSNamesystem: BLOCK* NameSystem.allocateBlock: /user/root/randtxt5/_temporary/_task_200811101024_0012_m_001192_0/part-01192. blk_7720864196601815614
081111 061602 31 INFO dfs.FSNamesystem: BLOCK* NameSystem.allocateBlock: /user/root/randtxt5/_temporary/_task_200811101024_0012_m_001192_0/part-01192. blk_9412086660757681114
081111 061707 21528 INFO dfs.DataNode$PacketResponder: PacketResponder 1 for block blk_-9098645110390099509 terminating
081111 061707 21528 INFO dfs.DataNode$PacketResponder: PacketResponder 1 for block blk_5-001095610999034899 terminating
081111 061713 26 INFO dfs.FSNamesystem: BLOCK* NameSystem.addStoredBlock: blockMap updated: 10.251.109.209:50010 is added to blk_1129715194117079802 size 67108864
081111 061713 26 INFO dfs.FSNamesystem: BLOCK* NameSystem.addStoredBlock: blockMap updated: 10.251.109.209:50010 is added to blk_5919710272119108417 size 67108864
081111 061730 32 INFO dfs.FSNamesystem: BLOCK* NameSystem.allocateBlock: /user/root/randtxt5/_temporary/_task_200811101024_0012_m_000900_0/part-00900. blk_6690143611140381289
081111 061730 32 INFO dfs.FSNamesystem: BLOCK* NameSystem.allocateBlock: /user/root/randtxt5/_temporary/_task_200811101024_0012_m_000900_0/part-00900. blk_2914611340306988611
081111 061739 21895 INFO dfs.DataNode$PacketResponder: Received block blk_7463248820468902190 of size 67108864 from /10.251.91.15
081111 061739 21895 INFO dfs.DataNode$PacketResponder: Received block blk_2498280643812060479 of size 67108864 from /10.251.91.15
081111 061857 17075 INFO dfs.DataNode$PacketResponder: Received block blk_3961831045048378097 of size 67108864 from /10.251.39.160
081111 061857 17075 INFO dfs.DataNode$PacketResponder: Received block blk_4874037033689185019 of size 67108864 from /10.251.39.160
081111 061900 21890 INFO dfs.DataNode$PacketResponder: PacketResponder 2 for block blk_-6220821375880228145 terminating
081111 061900 21890 INFO dfs.DataNode$PacketResponder: PacketResponder 2 for block blk_55210-72342808221886 terminating
081111 061909 26 INFO dfs.FSNamesystem: BLOCK* NameSystem.addStoredBlock: blockMap updated: 10.251.66.192:50010 is added to blk_-4405302133414008227 size 67108864
081111 061909 26 INFO dfs.FSNamesystem: BLOCK* NameSystem.addStoredBlock: blockMap updated: 10.251.66.192:50010 is added to blk_-1040140802334522734 size 67108864
081111 061921 21913 INFO dfs.DataNode$PacketResponder: PacketResponder 1 for block blk_8854625173826438305 terminating
081111 061921 21913 INFO dfs.DataNode$PacketResponder: PacketResponder 1 for block blk_4838765152830635824 terminating
081111 061926 22010 INFO dfs.DataNode$PacketResponder: Received block blk_8699194381234371727 of size 67108864 from /10.251.214.67
081111 061926 22010 INFO dfs.DataNode$PacketResponder: Received block blk_6234471998933277181 of size 67108864 from /10.251.214.67
081111 062002 21694 INFO dfs.DataNode$PacketResponder: PacketResponder 2 for block blk_-8389657728641837382 terminating
081111 062002 21694 INFO dfs.DataNode$PacketResponder: PacketResponder 2 for block blk_358-8362349887271867 terminating
081111 062029 21573 INFO dfs.DataNode$DataXceiver: Receiving block blk_-5145508449157510071 src: /10.251.203.246:48508 dest: /10.251.203.246:50010
081111 062029 21573 INFO dfs.DataNode$DataXceiver: Receiving block blk_5504011801-595471574 src: /10.251.203.246:48508 dest: /10.251.203.246:50010
081111 062038 34 INFO dfs.FSNamesystem: BLOCK* NameSystem.addStoredBlock: blockMap updated: 10.251.215.50:50010 is added to blk_6675543598756975559 size 67108864
081111 062038 34 INFO dfs.FSNamesystem: BLOCK* NameSystem.addStoredBlock: blockMap updated: 10.251.215.50:50010 is added to blk_3565867595745655997 size 67108864
081111 062102 22250 INFO dfs.DataNode$PacketResponder: PacketResponder 1 for block blk_-8364400144313355814 terminating
081111 062102 22250 INFO dfs.DataNode$PacketResponder: PacketResponder 1 for block blk_6108048-345433114534 terminating
081111 062238 21812 INFO dfs.DataNode$DataXceiver: Receiving block blk_6108023147232847992 src: /10.251.42.9:43819 dest: /10.251.42.9:50010
081111 062238 21812 INFO dfs.DataNode$DataXceiver: Receiving block blk_1376294942780802123 src: /10.251.42.9:43819 dest: /10.251.42.9:50010
081111 062311 35 INFO dfs.FSNamesystem: BLOCK* NameSystem.addStoredBlock: blockMap updated: 10.251.66.102:50010 is added to blk_-1932467763723526131 size 67108864
081111 062311 35 INFO dfs.FSNamesystem: BLOCK* NameSystem.addStoredBlock: blockMap updated: 10.251.66.102:50010 is added to blk_4167-373752631261392 size 67108864
081111 062353 22087 INFO dfs.DataNode$DataXceiver: Receiving block blk_-8834022217832819265 src: /10.251.105.189:53216 dest: /10.251.105.189:50010
081111 062353 22087 INFO dfs.DataNode$DataXceiver: Receiving block blk_1374-512282888063229 src: /10.251.105.189:53216 dest: /10.251.105.189:50010
081111 062628 35 INFO dfs.FSNamesystem: BLOCK* NameSystem.allocateBlock: /user/root/randtxt5/_temporary/_task_200811101024_0012_m_001314_0/part-01314. blk_5872617224009342667
081111 062628 35 INFO dfs.FSNamesystem: BLOCK* NameSystem.allocateBlock: /user/root/randtxt5/_temporary/_task_200811101024_0012_m_001314_0/part-01314. blk_5777148632429626200
081111 062735 22030 INFO dfs.DataNode$PacketResponder: PacketResponder 0 for block blk_4877808040461609832 terminating
081111 062735 22030 INFO dfs.DataNode$PacketResponder: PacketResponder 0 for block blk_6807484918006720834 terminating
081111 062905 21843 INFO dfs.DataNode$PacketResponder: Received block blk_3049351456771045311 of size 67108864 from /10.251.199.159
081111 062905 21843 INFO dfs.DataNode$PacketResponder: Received block blk_4157119014730364553 of size 67108864 from /10.251.199.159
081111 062911 22258 INFO dfs.DataNode$PacketResponder: Received block blk_1247599917761164561 of size 67108864 from /10.251.37.240
081111 062911 22258 INFO dfs.DataNode$PacketResponder: Received block blk_6117595111762697944 of size 67108864 from /10.251.37.240
081111 063053 21803 INFO dfs.DataNode$PacketResponder: Received block blk_2616961363639592748 of size 67108864 from /10.251.202.134
081111 063053 21803 INFO dfs.DataNode$PacketResponder: Received block blk_9676352319291364686 of size 67108864 from /10.251.202.134
081111 063138 27 INFO dfs.FSNamesystem: BLOCK* NameSystem.allocateBlock: /user/root/randtxt5/_temporary/_task_200811101024_0012_m_001529_0/part-01529. blk_-826920518336899809
081111 063138 27 INFO dfs.FSNamesystem: BLOCK* NameSystem.allocateBlock: /user/root/randtxt5/_temporary/_task_200811101024_0012_m_001529_0/part-01529. blk_8895-62963289910380
081111 063241 22074 INFO dfs.DataNode$PacketResponder: Received block blk_-3436382429367583573 of size 67108864 from /10.251.107.19
081111 063241 22074 INFO dfs.DataNode$PacketResponder: Received block blk_7486533-633534892723 of size 67108864 from /10.251.107.19
081111 063244 22352 INFO dfs.DataNode$DataXceiver: Receiving block blk_2824047463816148563 src: /10.251.42.84:35776 dest: /10.251.42.84:50010
081111 063244 22352 INFO dfs.DataNode$DataXceiver: Receiving block blk_1844382037656816244 src: /10.251.42.84:35776 dest: /10.251.42.84:50010
081111 063302 21914 INFO dfs.DataNode$PacketResponder: Received block blk_-9211699406261033878 of size 67108864 from /10.251.30.85
081111 063302 21914 INFO dfs.DataNode$PacketResponder: Received block blk_10989601839-12766234 of size 67108864 from /10.251.30.85
081111 063305 30 INFO dfs.FSNamesystem: BLOCK* NameSystem.addStoredBlock: blockMap updated: 10.251.214.67:50010 is added to blk_-5961895238114806886 size 28508403
081111 063305 30 INFO dfs.FSNamesystem: BLOCK* NameSystem.addStoredBlock: blockMap updated: 10.251.214.67:50010 is added to blk_55264-89603891811868 size 28508403
081111 063316 32 INFO dfs.FSNamesystem: BLOCK* NameSystem.addStoredBlock: blockMap updated: 10.251.107.19:50010 is added to blk_-2654726224018724510 size 67108864
081111 063316 32 INFO dfs.FSNamesystem: BLOCK* NameSystem.addStoredBlock: blockMap updated: 10.251.107.19:50010 is added to blk_7-420482610272155642 size 67108864
081111 063323 27 INFO dfs.FSNamesystem: BLOCK* NameSystem.addStoredBlock: blockMap updated: 10.251.67.225:50010 is added to blk_-3955287039966096707 size 67108864
081111 063323 27 INFO dfs.FSNamesystem: BLOCK* NameSystem.addStoredBlock: blockMap updated: 10.251.67.225:50010 is added to blk_063905607-9899537762 size 67108864
081111 063402 33 INFO dfs.FSNamesystem: BLOCK* NameSystem.addStoredBlock: blockMap updated: 10.251.75.143:50010 is added to blk_-1379379987510648393 size 67108864
081111 063402 33 INFO dfs.FSNamesystem: BLOCK* NameSystem.addStoredBlock: blockMap updated: 10.251.75.143:50010 is added to blk_831977633194907853-9 size 67108864
081111 063413 26 INFO dfs.FSNamesystem: BLOCK* NameSystem.allocateBlock: /user/root/randtxt5/_temporary/_task_200811101024_0012_m_001726_0/part-01726. blk_1858805942071850133
081111 063413 26 INFO dfs.FSNamesystem: BLOCK* NameSystem.allocateBlock: /user/root/randtxt5/_temporary/_task_200811101024_0012_m_001726_0/part-01726. blk_2195100845058383781
081111 063451 31 INFO dfs.FSNamesystem: BLOCK* NameSystem.allocateBlock: /user/root/randtxt5/_temporary/_task_200811101024_0012_m_001554_0/part-01554. blk_5183831565578080242
081111 063451 31 INFO dfs.FSNamesystem: BLOCK* NameSystem.allocateBlock: /user/root/randtxt5/_temporary/_task_200811101024_0012_m_001554_0/part-01554. blk_1562208781583535804
081111 063459 21912 INFO dfs.DataNode$DataXceiver: Receiving block blk_3248835454898465560 src: /10.251.42.84:40950 dest: /10.251.42.84:50010
081111 063459 21912 INFO dfs.DataNode$DataXceiver: Receiving block blk_4408335862594848565 src: /10.251.42.84:40950 dest: /10.251.42.84:50010
081111 063514 35 INFO dfs.FSNamesystem: BLOCK* NameSystem.allocateBlock: /user/root/randtxt5/_temporary/_task_200811101024_0012_m_001709_0/part-01709. blk_3776895047834644694
081111 063514 35 INFO dfs.FSNamesystem: BLOCK* NameSystem.allocateBlock: /user/root/randtxt5/_temporary/_task_200811101024_0012_m_001709_0/part-01709. blk_4474956880397673464
081111 063636 28 INFO dfs.FSNamesystem: BLOCK* NameSystem.addStoredBlock: blockMap updated: 10.251.43.192:50010 is added to blk_8521306385156958668 size 67108864
081111 063636 28 INFO dfs.FSNamesystem: BLOCK* NameSystem.addStoredBlock: blockMap updated: 10.251.43.192:50010 is added to blk_6581851665389386502 size 67108864
081111 063859 22169 INFO dfs.DataNode$DataXceiver: Receiving block blk_1606295458729964667 src: /10.251.214.32:47910 dest: /10.251.214.32:50010
081111 063859 22169 INFO dfs.DataNode$DataXceiver: Receiving block blk_4906662798657654129 src: /10.251.214.32:47910 dest: /10.251.214.32:50010
081111 063923 35 INFO dfs.FSNamesystem: BLOCK* NameSystem.addStoredBlock: blockMap updated: 10.251.203.149:50010 is added to blk_-7282356322111075290 size 67108864
081111 063923 35 INFO dfs.FSNamesystem: BLOCK* NameSystem.addStoredBlock: blockMap updated: 10.251.203.149:50010 is added to blk_5-107172282096532231 size 67108864
081111 063944 31 INFO dfs.FSNamesystem: BLOCK* NameSystem.addStoredBlock: blockMap updated: 10.251.122.65:50010 is added to blk_-5330522460969948971 size 67108864
081111 063944 31 INFO dfs.FSNamesystem: BLOCK* NameSystem.addStoredBlock: blockMap updated: 10.251.122.65:50010 is added to blk_20-99354709138652694 size 67108864
081111 064011 22583 INFO dfs.DataNode$PacketResponder: PacketResponder 2 for block blk_1077394056781488 terminating
081111 064011 22583 INFO dfs.DataNode$PacketResponder: PacketResponder 2 for block blk_7037689841085741 terminating
081111 064106 33 INFO dfs.FSNamesystem: BLOCK* NameSystem.allocateBlock: /user/root/randtxt5/_temporary/_task_200811101024_0012_m_001709_0/part-01709. blk_6054235487623373096
081111 064106 33 INFO dfs.FSNamesystem: BLOCK* NameSystem.allocateBlock: /user/root/randtxt5/_temporary/_task_200811101024_0012_m_001709_0/part-01709. blk_0475656633933204278
081111 064209 22299 INFO dfs.DataNode$PacketResponder: PacketResponder 2 for block blk_-7256345477493725857 terminating
081111 064209 22299 INFO dfs.DataNode$PacketResponder: PacketResponder 2 for block blk_757745745433-8672925 terminating
081111 064322 6765 INFO dfs.DataNode$PacketResponder: Received block blk_3480684347183600958 of size 67108864 from /10.251.111.209
081111 064322 6765 INFO dfs.DataNode$PacketResponder: Received block blk_8583030718434098664 of size 67108864 from /10.251.111.209
081111 064501 34 INFO dfs.FSNamesystem: BLOCK* NameSystem.allocateBlock: /user/root/randtxt5/_temporary/_task_200811101024_0012_m_001635_0/part-01635. blk_9034993982993401678
081111 064501 34 INFO dfs.FSNamesystem: BLOCK* NameSystem.allocateBlock: /user/root/randtxt5/_temporary/_task_200811101024_0012_m_001635_0/part-01635. blk_7010948999439629383
081111 064603 32 INFO dfs.FSNamesystem: BLOCK* NameSystem.addStoredBlock: blockMap updated: 10.251.31.5:50010 is added to blk_-1821104627978106102 size 67108864
081111 064603 32 INFO dfs.FSNamesystem: BLOCK* NameSystem.addStoredBlock: blockMap updated: 10.251.31.5:50010 is added to blk_726022490-1117808116 size 67108864
081111 064615 22671 INFO dfs.DataNode$DataXceiver: Receiving block blk_8116683912654412228 src: /10.251.39.179:42019 dest: /10.251.39.179:50010
081111 064615 22671 INFO dfs.DataNode$DataXceiver: Receiving block blk_8215466213281841962 src: /10.251.39.179:42019 dest: /10.251.39.179:50010
081111 064710 22306 INFO dfs.DataNode$PacketResponder: PacketResponder 0 for block blk_-8329840785892216949 terminating
081111 064710 22306 INFO dfs.DataNode$PacketResponder: PacketResponder 0 for block blk_245898297-2046889193 terminating
081111 064806 22602 INFO dfs.DataNode$PacketResponder: PacketResponder 0 for block blk_8254500345987409515 terminating
081111 064806 22602 INFO dfs.DataNode$PacketResponder: PacketResponder 0 for block blk_0818005499455573452 terminating
081111 064823 22556 INFO dfs.DataNode$DataXceiver: Receiving block blk_-4657886075935807358 src: /10.251.31.160:53084 dest: /10.251.31.160:50010
081111 064823 22556 INFO dfs.DataNode$DataXceiver: Receiving block blk_030437887855766958-5 src: /10.251.31.160:53084 dest: /10.251.31.160:50010
081111 064835 22032 INFO dfs.DataNode$DataXceiver: Receiving block blk_8201813022998766557 src: /10.251.203.4:51404 dest: /10.251.203.4:50010
081111 064835 22032 INFO dfs.DataNode$DataXceiver: Receiving block blk_2707625098851392816 src: /10.251.203.4:51404 dest: /10.251.203.4:50010
081111 065205 26 INFO dfs.FSNamesystem: BLOCK* NameSystem.delete: blk_-4438918035940270891 is added to invalidSet of 10.251.71.193:50010
081111 065205 26 INFO dfs.FSNamesystem: BLOCK* NameSystem.delete: blk_4989098-342805413017 is added to invalidSet of 10.251.71.193:50010
081111 065205 26 INFO dfs.FSNamesystem: BLOCK* NameSystem.delete: blk_5616920288053661280 is added to invalidSet of 10.251.42.9:50010
081111 065205 26 INFO dfs.FSNamesystem: BLOCK* NameSystem.delete: blk_5302286091615828660 is added to invalidSet of 10.251.42.9:50010
081111 065206 26 INFO dfs.FSNamesystem: BLOCK* NameSystem.delete: blk_1815340037591016775 is added to invalidSet of 10.250.9.207:50010
081111 065206 26 INFO dfs.FSNamesystem: BLOCK* NameSystem.delete: blk_7771151091530306548 is added to invalidSet of 10.250.9.207:50010
081111 065208 26 INFO dfs.FSNamesystem: BLOCK* NameSystem.delete: blk_2154193600525549460 is added to invalidSet of 10.251.43.147:50010
081111 065208 26 INFO dfs.FSNamesystem: BLOCK* NameSystem.delete: blk_0144430512655569209 is added to invalidSet of 10.251.43.147:50010
081111 065211 26 INFO dfs.FSNamesystem: BLOCK* NameSystem.delete: blk_5580254744888391593 is added to invalidSet of 10.251.201.204:50010
081111 065211 26 INFO dfs.FSNamesystem: BLOCK* NameSystem.delete: blk_0835454578882934159 is added to invalidSet of 10.251.201.204:50010
081111 065217 26 INFO dfs.FSNamesystem: BLOCK* NameSystem.delete: blk_-1641081065757890722 is added to invalidSet of 10.251.107.242:50010
081111 065217 26 INFO dfs.FSNamesystem: BLOCK* NameSystem.delete: blk_0-791672210580581647 is added to invalidSet of 10.251.107.242:50010
081111 065217 26 INFO dfs.FSNamesystem: BLOCK* NameSystem.delete: blk_5505696082121135363 is added to invalidSet of 10.251.214.130:50010
081111 065217 26 INFO dfs.FSNamesystem: BLOCK* NameSystem.delete: blk_0125693602563851351 is added to invalidSet of 10.251.214.130:50010
081111 065218 26 INFO dfs.FSNamesystem: BLOCK* NameSystem.delete: blk_5689009809369418749 is added to invalidSet of 10.251.91.84:50010
081111 065218 26 INFO dfs.FSNamesystem: BLOCK* NameSystem.delete: blk_9600899043849578196 is added to invalidSet of 10.251.91.84:50010
081111 065220 26 INFO dfs.FSNamesystem: BLOCK* NameSystem.delete: blk_8155177385081669900 is added to invalidSet of 10.251.197.161:50010
081111 065220 26 INFO dfs.FSNamesystem: BLOCK* NameSystem.delete: blk_8910560318087597165 is added to invalidSet of 10.251.197.161:50010
081111 065224 26 INFO dfs.FSNamesystem: BLOCK* NameSystem.delete: blk_247452006316846355 is added to invalidSet of 10.250.6.191:50010
081111 065224 26 INFO dfs.FSNamesystem: BLOCK* NameSystem.delete: blk_637042441668525305 is added to invalidSet of 10.250.6.191:50010
081111 065224 26 INFO dfs.FSNamesystem: BLOCK* NameSystem.delete: blk_2657997043417110888 is added to invalidSet of 10.250.13.240:50010
081111 065224 26 INFO dfs.FSNamesystem: BLOCK* NameSystem.delete: blk_7504041783982681791 is added to invalidSet of 10.250.13.240:50010
081111 065225 26 INFO dfs.FSNamesystem: BLOCK* NameSystem.delete: blk_-323838382557775734 is added to invalidSet of 10.251.202.209:50010
081111 065225 26 INFO dfs.FSNamesystem: BLOCK* NameSystem.delete: blk_83-3753328572537784 is added to invalidSet of 10.251.202.209:50010
081111 065225 26 INFO dfs.FSNamesystem: BLOCK* NameSystem.delete: blk_-719470845056640928 is added to invalidSet of 10.251.90.64:50010
081111 065225 26 INFO dfs.FSNamesystem: BLOCK* NameSystem.delete: blk_7680507249-64850941 is added to invalidSet of 10.251.90.64:50010
081111 065225 26 INFO dfs.FSNamesystem: BLOCK* NameSystem.delete: blk_-7999375661905777727 is added to invalidSet of 10.251.106.37:50010
081111 065225 26 INFO dfs.FSNamesystem: BLOCK* NameSystem.delete: blk_776063775927957-7991 is added to invalidSet of 10.251.106.37:50010
081111 065226 26 INFO dfs.FSNamesystem: BLOCK* NameSystem.delete: blk_-2451769929123196359 is added to invalidSet of 10.251.199.159:50010
081111 065226 26 INFO dfs.FSNamesystem: BLOCK* NameSystem.delete: blk_19995125627619-42933 is added to invalidSet of 10.251.199.159:50010
081111 065227 26 INFO dfs.FSNamesystem: BLOCK* NameSystem.delete: blk_3231389654886008065 is added to invalidSet of 10.251.195.52:50010
081111 065227 26 INFO dfs.FSNamesystem: BLOCK* NameSystem.delete: blk_8383624510608569308 is added to invalidSet of 10.251.195.52:50010
081111 065227 26 INFO dfs.FSNamesystem: BLOCK* NameSystem.delete: blk_3637945019239882309 is added to invalidSet of 10.251.198.196:50010
081111 065227 26 INFO dfs.FSNamesystem: BLOCK* NameSystem.delete: blk_2939032387314680995 is added to invalidSet of 10.251.198.196:50010
081111 065229 19 INFO dfs.FSDataset: Deleting block blk_-7423574498760490375 file /mnt/hadoop/dfs/data/current/subdir58/blk_-7423574498760490375
081111 065229 19 INFO dfs.FSDataset: Deleting block blk_9-440367248750479753 file /mnt/hadoop/dfs/data/current/subdir58/blk_7440730957543687-942
081111 065254 19 INFO dfs.FSNamesystem: BLOCK* ask 10.250.17.177:50010 to delete  blk_-8570780307468499817 blk_-9122557405432088649 blk_-4393063808227796056 blk_8767569714374844347 blk_7079754042611867581 blk_7608961006114219538 blk_-5017273584996436939 blk_-6537833125980536955 blk_7610838808763810123 blk_3300803097775546532 blk_-5120750586032922592 blk_1577274266662884430 blk_765879159867598347 blk_-9076085976403711202 blk_-3198963348573340497 blk_-4645750029177277209 blk_-5136142986912961316 blk_5677959846373741243 blk_2107477892986152528 blk_-4235116161537008844 blk_6082535783543982566 blk_-4809870147222033236 blk_8818706925296961012 blk_-5203577173046267127 blk_189089569009261656 blk_446299976487589160 blk_-3916247521166632303 blk_-3324962406687427922 blk_-1807424528783081572 blk_-6858401049333055963 blk_6036564204960295926 blk_-8140723044408248078 blk_-3800132731140204959 blk_1716344083117307767 blk_-5194808114606613364 blk_-5473871016976323232 blk_2920934363167004552 blk_8736689095894369097 blk_-7642734632751940776 blk_3408482260833769309 blk_118013751374560901 blk_7963891081239759520 blk_3813114133944383323 blk_3042818489384932576 blk_-4570173726231458270 blk_-1564644006975920581 blk_338095650783321996 blk_3150135312641203550 blk_4285859645577726288 blk_3438772130782939627 blk_2634772258588877972 blk_-6795664812575964130 blk_3923069610304693233 blk_-1782996202120067721 blk_2004418049430157212 blk_1932147224007687756 blk_-582901062969027153 blk_5072240701440032119 blk_-7919006477393039068 blk_-7318022361288598312 blk_-6974693594143537436 blk_-5435767047126325206 blk_-5805500288959332434 blk_-7109885589081848850 blk_2161580591957523893 blk_7240227881194993860 blk_-8298405680648445349 blk_-4253026248821272215 blk_8377661448601579317 blk_8029153852899017155 blk_-8754388319080705916 blk_-7844092300527332901 blk_710178463364063355 blk_-5136849989188547884 blk_8393887138377503163 blk_-6950176077776664217 blk_-6488701068659548195 blk_2537458728254532453 blk_364441107933628577 blk_6207861897580168557 blk_8814943807366894581 blk_-4150682644311695471 blk_9174833667156726933 blk_649427218152856001 blk_-7403541028238011236 blk_-334982586592048773 blk_61908781908925992 blk_6385574357371832424 blk_-66376131060945541 blk_1372596948297458670 blk_-3389135155401857220 blk_-6035411221441929663 blk_-5127580069634421247 blk_-5685246533892022418 blk_4977937528993040451 blk_5680538862600094527 blk_-8378747462487962732 blk_425101290285860876 blk_6306622708327890839 blk_-1067866602168873257
081111 065254 19 INFO dfs.FSNamesystem: BLOCK* ask 10.250.17.177:50010 to delete  blk_30778107487980684-95 blk_9208322505644549-781 blk_67735300498266903-28 blk_6713773948778454464 blk_8072760186145477915 blk_1963686000529148711 blk_489-9353019569276734 blk_05135-39852389653756 blk_0716186883038103782 blk_0950064780253753373 blk_08129232565-59275002 blk_8446720636175427268 blk_378549965718765879 blk_543-7927216090817600 blk_3441335-870463939879 blk_2474592570762-710907 blk_51611614-39932862691 blk_6937144273376574859 blk_7862525802749719821 blk_8703115316086-512444 blk_2053365362786458859 blk_260047388901-3472223 blk_2996059167220118688 blk_1362553477-717026702 blk_986169560591690028 blk_279868949174566409 blk_72612359626343360-11 blk_9-386063422742246297 blk_78425734128-01285807 blk_03356486450381935-09 blk_0429962006236565946 blk_37-20842708844081404 blk_1210-033144290980573 blk_0776411747873331610 blk_06-46145133611804689 blk_8264377139337026125- blk_2546347922065330190 blk_3866976354998900978 blk_6074374732-694217567 blk_8823906298470430363 blk_710691137384055011 blk_2959570396802931871 blk_4313383132343413918 blk_8928194638370448523 blk_737-2084210627417535 blk_44706018555-16924960 blk_985718065039332369 blk_1523154030651325013 blk_7866828552945757428 blk_3762788037922179433 blk_9775582482673282787 blk_2469636154086759-571 blk_4303336329916609032 blk_-1229602271621779080 blk_3504714021980414022 blk_6122404710826773975 blk_206752510-926399801 blk_2042300940072151174 blk_06-89943033960709177 blk_72132105139-68828823 blk_9-343491634957475366 blk_603-2403166774725552 blk_452835032084985395-0 blk_59889870-10188880455 blk_0992783115135256985 blk_2648809991720748312 blk_8605-484944362458098 blk_821625824201527-3242 blk_7897537341714661680 blk_1558925103278919058 blk_410878510838356-0997 blk_2902904342307-015783 blk_300638771664355134 blk_3158968-898587484914 blk_3158038937838716733 blk_57020661-96664777771 blk_95466890410568785-81 blk_7435582482552233475 blk_352740176784361439 blk_1717860860582595786 blk_7869848398514380416 blk_4-575426841163410691 blk_6137318666235479973 blk_052905626841782114 blk_24783503-11316208402 blk_3955734042-68273889 blk_99128192900758968 blk_3734726541825733845 blk_16061659-647341053 blk_7856190296344297758 blk_52175054158912303-38 blk_26-91193112646403425 blk_017065316522-4247498 blk_683-4922568041325528 blk_0449792947755903831 blk_8058646600852792503 blk_692437736772824874-8 blk_981722540010866582 blk_8703796603322820986 blk_628526706-8106637178
081111 065258 19 INFO dfs.FSDataset: Deleting block blk_-9169228974826183399 file /mnt/hadoop/dfs/data/current/subdir5/blk_-9169228974826183399
081111 065258 19 INFO dfs.FSDataset: Deleting block blk_24316-99898826729913 file /mnt/hadoop/dfs/data/current/subdir5/blk_918892971-9823696432
081111 065303 19 INFO dfs.FSNamesystem: BLOCK* ask 10.250.10.213:50010 to delete  blk_4029139044660806713 blk_-5471189807977280544 blk_6708643067868168687 blk_-500678958150296008 blk_-8597840983621849778 blk_-3610057702150392748 blk_-1709606535283888232 blk_-4154362211643572668 blk_-8892080524136798472 blk_5356427838869009345 blk_-6987238639050161133 blk_-5215128860160823363 blk_7186692462976470823 blk_-6538449588297475521 blk_-2165930080589343952 blk_-5524899010031625427 blk_6384439316405471171 blk_-2965258329365213675 blk_118950937507976810 blk_-1717088081766373300 blk_-3911466865418055820 blk_1237334407720045724 blk_-760015977981369567 blk_-6802007379650646616 blk_-7667535133893574689 blk_6865645438678864855 blk_4633996820313194570 blk_7225301266481603731 blk_-4930257130609958866 blk_-4124845864570823487 blk_4927011145115127531 blk_7234346856930822716 blk_7159969052744592746 blk_1296823600557793869 blk_2209319141644287774 blk_-622218131799806364 blk_-8154516246083521409 blk_4466433199471909449 blk_8406894133999850666 blk_991075908349619367 blk_-2081474832657208733 blk_-5573393775847919985 blk_2004177185950968695 blk_4041319486058127641 blk_6449230045010995668 blk_5978265573904271474 blk_-4813738732036414715 blk_4389340532803855247 blk_-857151863616763327 blk_-7200136644339435027 blk_-1454962873426270839 blk_-5012294311590635938 blk_7112727670634942639 blk_3335012758760643328 blk_3382627815322561484 blk_825124020036421636 blk_-8040559034239258688 blk_-5415591001139074826 blk_-1052513063506891954 blk_-1155882018729560343 blk_-5679835604685169040 blk_-4498808851217768984 blk_8345415947062862337 blk_8521655806854586696 blk_7602939593939794410 blk_-4833650023923869528 blk_7237730029042141635 blk_2860897425785746911 blk_-1937193099911148343 blk_5740615689780260922 blk_963252337613423037 blk_5537011318013544619 blk_2626057344048606017 blk_8296499240199635880 blk_7211071078501521087 blk_8823112510768971040 blk_-3366974935992288326 blk_-2947778702643296262 blk_7693891282153136044 blk_4644812717442758529 blk_-5724970555730638200 blk_-3039294462945223064 blk_-1729755380346651221 blk_-6448673813272428418 blk_-7724282460846954976 blk_2698691234887375588 blk_-4043525878322523713 blk_-5195120009388265 blk_8879208244602324204 blk_-5784376901556131897 blk_-5201149273969117873 blk_5253889604362640423 blk_7067050654303940677 blk_8992626816092659826 blk_-488462739843441981 blk_8543991617360374935 blk_1943146154560599630 blk_-9194660123773136535 blk_3351984198891394382 blk_-6759123807563555545
081111 065303 19 INFO dfs.FSNamesystem: BLOCK* ask 10.250.10.213:50010 to delete  blk_1389014646429600370 blk_5459-977108817482074 blk_0616886646878378607 blk_0-71059868890005652 blk_4938615887978978420- blk_702300157082471-6539 blk_263176059825-8303828 blk_265431367125-6644182 blk_05692887218497843-20 blk_5906888963553342074 blk_-1533962613318960870 blk_631512303066-2888215 blk_6934674227968186720 blk_88464555-77589422139 blk_96835210902943055-83 blk_62147153405289520-90 blk_3113546146491873407 blk_6-165295335225638792 blk_117796813059080975 blk_00037136770-11868378 blk_856584411016603582-9 blk_2074321074450237437 blk_-659667397017951870 blk_9075636047108-666620 blk_6-384775659371639835 blk_3768645845458866568 blk_4354997813693036201 blk_7045612108637322316 blk_95649396005-68738102 blk_6-548844807843242751 blk_5112217474109551311 blk_4731568206492823637 blk_9977042949615655247 blk_5362715073289696980 blk_1201749741483469227 blk_616638-827231091492 blk_632551684-9415018240 blk_6114743999469044349 blk_6804691890369685394 blk_593170908196679349 blk_27302481832504-68377 blk_97585749-37339715985 blk_7881965294005907516 blk_5638200481411446197 blk_5199623968644045000 blk_5249154042396577877 blk_318-7204317416534837 blk_0955043225833847348 blk_823771715638661635- blk_33340275704-46310629 blk_864083756924392741-2 blk_358-1265914359102390 blk_3707763169422462971 blk_7523306487133832065 blk_2263614438835572821 blk_042520683206143126 blk_5302-095085888634294 blk_929061800475541115-3 blk_5502085361056194-931 blk_21585932758-18041063 blk_0648376045-615805969 blk_9-848788954214617880 blk_7315356674089322448 blk_8686960858164555265 blk_9592019974397433906 blk_24835200835-93862936 blk_2520170796134703432 blk_0976659148285127748 blk_134899193914971-3013 blk_9806294617070652825 blk_133366752332439072 blk_0648355147111019353 blk_3485667640010426702 blk_3969480291809592684 blk_1018712127187507050 blk_2191260104508378718 blk_63436296893-97598223 blk_7643226-604927272978 blk_2098754328169364113 blk_5248246218745471974 blk_577003035220565-7498 blk_5242062343964094-239 blk_314295776-2805156312 blk_81338876486442-17224 blk_4594472286047726896- blk_1868878859923426573 blk_584302134352-3578272 blk_135-5296590020818 blk_8889260220340472244 blk_53071834965-87159617 blk_0791311-252917893764 blk_0234856685363429042 blk_0370904637074570665 blk_9668629226188965092 blk_68874488343-9441291 blk_3516833569973407941 blk_4501669693954103415 blk_36137603593-52149176 blk_1388318334821549999 blk_7952063355854556-175
081111 065339 22547 INFO dfs.DataNode$PacketResponder: Received block blk_5406084276349645828 of size 67108864 from /10.250.10.223
081111 065339 22547 INFO dfs.DataNode$PacketResponder: Received block blk_6205508364494726884 of size 67108864 from /10.250.10.223
081111 065404 22999 INFO dfs.DataNode$PacketResponder: PacketResponder 1 for block blk_2016964533702776852 terminating
081111 065404 22999 INFO dfs.DataNode$PacketResponder: PacketResponder 1 for block blk_6623045029727761583 terminating
081111 065418 18 INFO dfs.FSDataset: Deleting block blk_-1306900105984505600 file /mnt/hadoop/dfs/data/current/subdir31/blk_-1306900105984505600
081111 065418 18 INFO dfs.FSDataset: Deleting block blk_9530049-005101605860 file /mnt/hadoop/dfs/data/current/subdir31/blk_35080590069051060-14
081111 065420 19 INFO dfs.FSDataset: Deleting block blk_-1312981516354612257 file /mnt/hadoop/dfs/data/current/subdir29/blk_-1312981516354612257
081111 065420 19 INFO dfs.FSDataset: Deleting block blk_93182164275-52516311 file /mnt/hadoop/dfs/data/current/subdir29/blk_-5213511662927115438
081111 065420 19 INFO dfs.FSDataset: Deleting block blk_-2658615574293326723 file /mnt/hadoop/dfs/data/current/subdir37/blk_-2658615574293326723
081111 065420 19 INFO dfs.FSDataset: Deleting block blk_2366224855717623539- file /mnt/hadoop/dfs/data/current/subdir37/blk_9758232665-231467352
081111 065423 19 INFO dfs.FSDataset: Deleting block blk_2107487634698646045 file /mnt/hadoop/dfs/data/current/subdir3/blk_2107487634698646045
081111 065423 19 INFO dfs.FSDataset: Deleting block blk_4668417686705023944 file /mnt/hadoop/dfs/data/current/subdir3/blk_8106207667344448956
081111 065426 19 INFO dfs.FSDataset: Deleting block blk_-253282915050290778 file /mnt/hadoop/dfs/data/current/subdir23/blk_-253282915050290778
081111 065426 19 INFO dfs.FSDataset: Deleting block blk_5-89827122039275050 file /mnt/hadoop/dfs/data/current/subdir23/blk_82521935978520-7020
081111 065435 19 INFO dfs.FSDataset: Deleting block blk_1587615395786683981 file /mnt/hadoop/dfs/data/current/subdir14/blk_1587615395786683981
081111 065435 19 INFO dfs.FSDataset: Deleting block blk_8895579185361876361 file /mnt/hadoop/dfs/data/current/subdir14/blk_6591385879135868617
081111 065437 19 INFO dfs.FSDataset: Deleting block blk_3706543205492061794 file /mnt/hadoop/dfs/data/current/subdir1/blk_3706543205492061794
081111 065437 19 INFO dfs.FSDataset: Deleting block blk_4266014754930350297 file /mnt/hadoop/dfs/data/current/subdir1/blk_4529609542741037360
081111 065440 19 INFO dfs.FSDataset: Deleting block blk_3862032846413436284 file /mnt/hadoop/dfs/data/current/subdir28/blk_3862032846413436284
081111 065440 19 INFO dfs.FSDataset: Deleting block blk_8284246031236448336 file /mnt/hadoop/dfs/data/current/subdir28/blk_3066188433844222364
081111 065444 18 INFO dfs.FSDataset: Deleting block blk_4632283243694149854 file /mnt/hadoop/dfs/data/current/subdir40/blk_4632283243694149854
081111 065444 18 INFO dfs.FSDataset: Deleting block blk_8436421394592436482 file /mnt/hadoop/dfs/data/current/subdir40/blk_2846982439344546213
081111 065444 19 INFO dfs.FSDataset: Deleting block blk_1018961650823645078 file /mnt/hadoop/dfs/data/current/subdir60/blk_1018961650823645078
081111 065444 19 INFO dfs.FSDataset: Deleting block blk_0718468563562911800 file /mnt/hadoop/dfs/data/current/subdir60/blk_6711660845880029153
081111 065444 19 INFO dfs.FSDataset: Deleting block blk_1213582438865696738 file /mnt/hadoop/dfs/data/current/subdir56/blk_1213582438865696738
081111 065444 19 INFO dfs.FSDataset: Deleting block blk_8661834612853923875 file /mnt/hadoop/dfs/data/current/subdir56/blk_4187658686839352312
081111 065445 19 INFO dfs.FSDataset: Deleting block blk_2473550781612396886 file /mnt/hadoop/dfs/data/current/subdir54/blk_2473550781612396886
081111 065445 19 INFO dfs.FSDataset: Deleting block blk_2187847696852536130 file /mnt/hadoop/dfs/data/current/subdir54/blk_3783485675226806911
081111 065500 19 INFO dfs.FSDataset: Deleting block blk_8102707766842966459 file /mnt/hadoop/dfs/data/current/subdir29/blk_8102707766842966459
081111 065500 19 INFO dfs.FSDataset: Deleting block blk_5796607786142468920 file /mnt/hadoop/dfs/data/current/subdir29/blk_6262997047810684657
081111 065500 22388 INFO dfs.DataNode$PacketResponder: PacketResponder 1 for block blk_-352190670750948803 terminating
081111 065500 22388 INFO dfs.DataNode$PacketResponder: PacketResponder 1 for block blk_0953008-69773084521 terminating
081111 065503 19 INFO dfs.FSDataset: Deleting block blk_6491888411266994867 file /mnt/hadoop/dfs/data/current/subdir39/blk_6491888411266994867
081111 065503 19 INFO dfs.FSDataset: Deleting block blk_9841794611866828649 file /mnt/hadoop/dfs/data/current/subdir39/blk_8968461114694928867
081111 065504 18 INFO dfs.FSDataset: Deleting block blk_3336810835691486095 file /mnt/hadoop/dfs/data/current/subdir11/blk_3336810835691486095
081111 065504 18 INFO dfs.FSDataset: Deleting block blk_6861360954903838135 file /mnt/hadoop/dfs/data/current/subdir11/blk_9488381006665313359
081111 065510 19 INFO dfs.FSDataset: Deleting block blk_4367982328407767477 file /mnt/hadoop/dfs/data/current/subdir28/blk_4367982328407767477
081111 065510 19 INFO dfs.FSDataset: Deleting block blk_4738494877367206277 file /mnt/hadoop/dfs/data/current/subdir28/blk_7064777727293438468
081111 065511 19 INFO dfs.FSDataset: Deleting block blk_6943254721518837570 file /mnt/hadoop/dfs/data/current/subdir41/blk_6943254721518837570
081111 065511 19 INFO dfs.FSDataset: Deleting block blk_7527176531244930858 file /mnt/hadoop/dfs/data/current/subdir41/blk_9475480225617531873
081111 065515 19 INFO dfs.FSDataset: Deleting block blk_6077744985764117617 file /mnt/hadoop/dfs/data/current/subdir17/blk_6077744985764117617
081111 065515 19 INFO dfs.FSDataset: Deleting block blk_6177174780956714674 file /mnt/hadoop/dfs/data/current/subdir17/blk_9176777148446770165
081111 065526 22651 INFO dfs.DataNode$PacketResponder: PacketResponder 1 for block blk_6975937964598933356 terminating
081111 065526 22651 INFO dfs.DataNode$PacketResponder: PacketResponder 1 for block blk_5733579869356963949 terminating
081111 065538 19 INFO dfs.FSDataset: Deleting block blk_5771906433100975293 file /mnt/hadoop/dfs/data/current/subdir37/blk_5771906433100975293
081111 065538 19 INFO dfs.FSDataset: Deleting block blk_3001727509961475393 file /mnt/hadoop/dfs/data/current/subdir37/blk_2319779307954310560
081111 065605 22827 INFO dfs.DataNode$DataXceiver: Receiving block blk_-3884471885525630813 src: /10.251.106.50:60327 dest: /10.251.106.50:50010
081111 065605 22827 INFO dfs.DataNode$DataXceiver: Receiving block blk_13805484-23835758618 src: /10.251.106.50:60327 dest: /10.251.106.50:50010
081111 065705 22525 INFO dfs.DataNode$DataXceiver: Receiving block blk_8596624696139957935 src: /10.251.214.175:41468 dest: /10.251.214.175:50010
081111 065705 22525 INFO dfs.DataNode$DataXceiver: Receiving block blk_9949765639815932656 src: /10.251.214.175:41468 dest: /10.251.214.175:50010
081111 065705 28 INFO dfs.FSNamesystem: BLOCK* NameSystem.allocateBlock: /user/root/rand6/_temporary/_task_200811101024_0013_m_000153_0/part-00153. blk_8596624696139957935
081111 065705 28 INFO dfs.FSNamesystem: BLOCK* NameSystem.allocateBlock: /user/root/rand6/_temporary/_task_200811101024_0013_m_000153_0/part-00153. blk_9516962975463395689
081111 065803 33 INFO dfs.FSNamesystem: BLOCK* NameSystem.addStoredBlock: blockMap updated: 10.251.214.67:50010 is added to blk_-8483420270408348004 size 67108864
081111 065803 33 INFO dfs.FSNamesystem: BLOCK* NameSystem.addStoredBlock: blockMap updated: 10.251.214.67:50010 is added to blk_434804804203-0874802 size 67108864
081111 065804 19 INFO dfs.FSDataset: Deleting block blk_4506604798892399878 file /mnt/hadoop/dfs/data/current/subdir0/blk_4506604798892399878
081111 065804 19 INFO dfs.FSDataset: Deleting block blk_7268807396099594848 file /mnt/hadoop/dfs/data/current/subdir0/blk_9599883494280760786
081111 065920 34 INFO dfs.FSNamesystem: BLOCK* NameSystem.allocateBlock: /user/root/rand6/_temporary/_task_200811101024_0013_m_000197_0/part-00197. blk_1832308388558480
081111 065920 34 INFO dfs.FSNamesystem: BLOCK* NameSystem.allocateBlock: /user/root/rand6/_temporary/_task_200811101024_0013_m_000197_0/part-00197. blk_8838338201558048
081111 065936 22801 INFO dfs.DataNode$PacketResponder: Received block blk_2247786307216183697 of size 67108864 from /10.251.67.4
081111 065936 22801 INFO dfs.DataNode$PacketResponder: Received block blk_8709236762714637128 of size 67108864 from /10.251.67.4
081111 070022 22093 INFO dfs.DataNode$PacketResponder: PacketResponder 0 for block blk_-4289592006812254261 terminating
081111 070022 22093 INFO dfs.DataNode$PacketResponder: PacketResponder 0 for block blk_-8659924201428252610 terminating
081111 070040 22706 INFO dfs.DataNode$DataXceiver: Receiving block blk_5989505185938770383 src: /10.251.67.4:53429 dest: /10.251.67.4:50010
081111 070040 22706 INFO dfs.DataNode$DataXceiver: Receiving block blk_8955788130579309583 src: /10.251.67.4:53429 dest: /10.251.67.4:50010
081111 070055 29 INFO dfs.FSNamesystem: BLOCK* NameSystem.addStoredBlock: blockMap updated: 10.251.121.224:50010 is added to blk_3134656542322449478 size 67108864
081111 070055 29 INFO dfs.FSNamesystem: BLOCK* NameSystem.addStoredBlock: blockMap updated: 10.251.121.224:50010 is added to blk_1376226243444855493 size 67108864
081111 070232 13 INFO dfs.DataBlockScanner: Verification succeeded for blk_-8050165297538775793
081111 070232 13 INFO dfs.DataBlockScanner: Verification succeeded for blk_8355797301067-985527
081111 070246 27 INFO dfs.FSNamesystem: BLOCK* NameSystem.addStoredBlock: blockMap updated: 10.251.90.134:50010 is added to blk_-3184700311670257792 size 67108864
081111 070246 27 INFO dfs.FSNamesystem: BLOCK* NameSystem.addStoredBlock: blockMap updated: 10.251.90.134:50010 is added to blk_36187913175-70027024 size 67108864
081111 070258 22788 INFO dfs.DataNode$PacketResponder: PacketResponder 1 for block blk_5114572025256210948 terminating
081111 070258 22788 INFO dfs.DataNode$PacketResponder: PacketResponder 1 for block blk_9027581564515201224 terminating
081111 070301 28 INFO dfs.FSNamesystem: BLOCK* NameSystem.allocateBlock: /user/root/rand6/_temporary/_task_200811101024_0013_m_000451_0/part-00451. blk_-8744988583359134013
081111 070301 28 INFO dfs.FSNamesystem: BLOCK* NameSystem.allocateBlock: /user/root/rand6/_temporary/_task_200811101024_0013_m_000451_0/part-00451. blk_848138509-5734314983
081111 070326 34 INFO dfs.FSNamesystem: BLOCK* NameSystem.allocateBlock: /user/root/rand6/_temporary/_task_200811101024_0013_m_000079_0/part-00079. blk_4225726256421431188
081111 070326 34 INFO dfs.FSNamesystem: BLOCK* NameSystem.allocateBlock: /user/root/rand6/_temporary/_task_200811101024_0013_m_000079_0/part-00079. blk_2132815262547241468
081111 070458 22933 INFO dfs.DataNode$PacketResponder: Received block blk_1060814796407897179 of size 67108864 from /10.251.109.209
081111 070458 22933 INFO dfs.DataNode$PacketResponder: Received block blk_0698194101706798747 of size 67108864 from /10.251.109.209
081111 070505 26 INFO dfs.FSNamesystem: BLOCK* NameSystem.addStoredBlock: blockMap updated: 10.251.25.237:50010 is added to blk_-1496429201748767714 size 67108864
081111 070505 26 INFO dfs.FSNamesystem: BLOCK* NameSystem.addStoredBlock: blockMap updated: 10.251.25.237:50010 is added to blk_7677-129441862104497 size 67108864
081111 070519 22971 INFO dfs.DataNode$PacketResponder: PacketResponder 0 for block blk_-4684475480143348818 terminating
081111 070519 22971 INFO dfs.DataNode$PacketResponder: PacketResponder 0 for block blk_8084174415448-683843 terminating
081111 070519 35 INFO dfs.FSNamesystem: BLOCK* NameSystem.allocateBlock: /user/root/rand6/_temporary/_task_200811101024_0013_m_000077_0/part-00077. blk_608957629753483727
081111 070519 35 INFO dfs.FSNamesystem: BLOCK* NameSystem.allocateBlock: /user/root/rand6/_temporary/_task_200811101024_0013_m_000077_0/part-00077. blk_462368797579038752
081111 070635 22203 INFO dfs.DataNode$PacketResponder: PacketResponder 0 for block blk_-7937864120968665564 terminating
081111 070635 22203 INFO dfs.DataNode$PacketResponder: PacketResponder 0 for block blk_689-6246567830416597 terminating
081111 070735 31 INFO dfs.FSNamesystem: BLOCK* NameSystem.addStoredBlock: blockMap updated: 10.251.214.130:50010 is added to blk_-4427507243535536615 size 67108864
081111 070735 31 INFO dfs.FSNamesystem: BLOCK* NameSystem.addStoredBlock: blockMap updated: 10.251.214.130:50010 is added to blk_2127-035555674356434 size 67108864
081111 070823 22537 INFO dfs.DataNode$PacketResponder: Received block blk_7830067201550857864 of size 67108864 from /10.251.105.189
081111 070823 22537 INFO dfs.DataNode$PacketResponder: Received block blk_5735504786878001620 of size 67108864 from /10.251.105.189
081111 070836 22330 INFO dfs.DataNode$PacketResponder: Received block blk_-2194976790278647102 of size 67108864 from /10.251.110.8
081111 070836 22330 INFO dfs.DataNode$PacketResponder: Received block blk_91-47007274279626198 of size 67108864 from /10.251.110.8
081111 070836 23168 INFO dfs.DataNode$PacketResponder: PacketResponder 1 for block blk_8459274965060101250 terminating
081111 070836 23168 INFO dfs.DataNode$PacketResponder: PacketResponder 1 for block blk_0266871400199245505 terminating
081111 070912 22946 INFO dfs.DataNode$PacketResponder: Received block blk_1561008813520212225 of size 67108864 from /10.250.7.230
081111 070912 22946 INFO dfs.DataNode$PacketResponder: Received block blk_2550682120183502112 of size 67108864 from /10.250.7.230
081111 070918 33 INFO dfs.FSNamesystem: BLOCK* NameSystem.addStoredBlock: blockMap updated: 10.250.6.214:50010 is added to blk_5963655886023015963 size 67108864
081111 070918 33 INFO dfs.FSNamesystem: BLOCK* NameSystem.addStoredBlock: blockMap updated: 10.250.6.214:50010 is added to blk_9080366866512355593 size 67108864
081111 070928 23133 INFO dfs.DataNode$DataXceiver: Receiving block blk_2377944115560974127 src: /10.251.75.163:55681 dest: /10.251.75.163:50010
081111 070928 23133 INFO dfs.DataNode$DataXceiver: Receiving block blk_9421752744317910657 src: /10.251.75.163:55681 dest: /10.251.75.163:50010
081111 071020 22762 INFO dfs.DataNode$PacketResponder: PacketResponder 1 for block blk_6030936529326346827 terminating
081111 071020 22762 INFO dfs.DataNode$PacketResponder: PacketResponder 1 for block blk_9363503626238409672 terminating
081111 071027 22865 INFO dfs.DataNode$DataXceiver: Receiving block blk_3322875843051058970 src: /10.250.7.244:40195 dest: /10.250.7.244:50010
081111 071027 22865 INFO dfs.DataNode$DataXceiver: Receiving block blk_1853770002848955323 src: /10.250.7.244:40195 dest: /10.250.7.244:50010
081111 071037 21663 INFO dfs.DataNode$PacketResponder: PacketResponder 1 for block blk_-7269672042149855641 terminating
081111 071037 21663 INFO dfs.DataNode$PacketResponder: PacketResponder 1 for block blk_09-61576492421574628 terminating
081111 071042 31 INFO dfs.FSNamesystem: BLOCK* NameSystem.addStoredBlock: blockMap updated: 10.251.30.134:50010 is added to blk_-5214060566378896158 size 67108864
081111 071042 31 INFO dfs.FSNamesystem: BLOCK* NameSystem.addStoredBlock: blockMap updated: 10.251.30.134:50010 is added to blk_8025936-806815567164 size 67108864
081111 071112 34 INFO dfs.FSNamesystem: BLOCK* NameSystem.allocateBlock: /user/root/rand6/_temporary/_task_200811101024_0013_m_000523_0/part-00523. blk_-4801855948459616884
081111 071112 34 INFO dfs.FSNamesystem: BLOCK* NameSystem.allocateBlock: /user/root/rand6/_temporary/_task_200811101024_0013_m_000523_0/part-00523. blk_895580486-1846481495
081111 071205 23083 INFO dfs.DataNode$PacketResponder: Received block blk_-4846710336436578833 of size 67108864 from /10.251.203.129
081111 071205 23083 INFO dfs.DataNode$PacketResponder: Received block blk_30658148733678436-34 of size 67108864 from /10.251.203.129
081111 071331 22956 INFO dfs.DataNode$PacketResponder: Received block blk_-1522107359378428427 of size 67108864 from /10.251.125.174
081111 071331 22956 INFO dfs.DataNode$PacketResponder: Received block blk_8112375094-238257472 of size 67108864 from /10.251.125.174
081111 071510 22974 INFO dfs.DataNode$PacketResponder: Received block blk_-1846853350696018836 of size 67108864 from /10.250.15.67
081111 071510 22974 INFO dfs.DataNode$PacketResponder: Received block blk_49636-88183658603510 of size 67108864 from /10.250.15.67
081111 071611 32 INFO dfs.FSNamesystem: BLOCK* NameSystem.allocateBlock: /user/root/rand6/_temporary/_task_200811101024_0013_m_000997_0/part-00997. blk_-500534246236005335
081111 071611 32 INFO dfs.FSNamesystem: BLOCK* NameSystem.allocateBlock: /user/root/rand6/_temporary/_task_200811101024_0013_m_000997_0/part-00997. blk_3054303366240-55502
081111 071713 23240 INFO dfs.DataNode$PacketResponder: Received block blk_-1236077201457689973 of size 67108864 from /10.251.35.1
081111 071713 23240 INFO dfs.DataNode$PacketResponder: Received block blk_0772270596-713493861 of size 67108864 from /10.251.35.1
081111 071731 23039 INFO dfs.DataNode$PacketResponder: Received block blk_8474920544984206742 of size 67108864 from /10.251.91.229
081111 071731 23039 INFO dfs.DataNode$PacketResponder: Received block blk_2648250494024947784 of size 67108864 from /10.251.91.229
081111 071746 30 INFO dfs.FSNamesystem: BLOCK* NameSystem.addStoredBlock: blockMap updated: 10.251.71.16:50010 is added to blk_-6464763289185102366 size 67108864
081111 071746 30 INFO dfs.FSNamesystem: BLOCK* NameSystem.addStoredBlock: blockMap updated: 10.251.71.16:50010 is added to blk_14666-59176832348260 size 67108864
081111 071904 22560 INFO dfs.DataNode$DataXceiver: Receiving block blk_-7646004878694144580 src: /10.251.202.181:47130 dest: /10.251.202.181:50010
081111 071904 22560 INFO dfs.DataNode$DataXceiver: Receiving block blk_404816769-8444050768 src: /10.251.202.181:47130 dest: /10.251.202.181:50010
081111 071912 23232 INFO dfs.DataNode$PacketResponder: PacketResponder 0 for block blk_-41928108292416895 terminating
081111 071912 23232 INFO dfs.DataNode$PacketResponder: PacketResponder 0 for block blk_219-29619044828518 terminating
081111 071939 22914 INFO dfs.DataNode$DataXceiver: Receiving block blk_-7389979618829759505 src: /10.251.127.47:58395 dest: /10.251.127.47:50010
081111 071939 22914 INFO dfs.DataNode$DataXceiver: Receiving block blk_5679-215877990538998 src: /10.251.127.47:58395 dest: /10.251.127.47:50010
081111 072053 23570 INFO dfs.DataNode$PacketResponder: PacketResponder 1 for block blk_2096030750186708493 terminating
081111 072053 23570 INFO dfs.DataNode$PacketResponder: PacketResponder 1 for block blk_0743078035961009862 terminating
081111 072059 30 INFO dfs.FSNamesystem: BLOCK* NameSystem.addStoredBlock: blockMap updated: 10.251.30.6:50010 is added to blk_-2345355483730155757 size 67108864
081111 072059 30 INFO dfs.FSNamesystem: BLOCK* NameSystem.addStoredBlock: blockMap updated: 10.251.30.6:50010 is added to blk_5733538743542751-055 size 67108864
081111 072214 23052 INFO dfs.DataNode$PacketResponder: Received block blk_5834218936335592624 of size 67108864 from /10.251.111.228
081111 072214 23052 INFO dfs.DataNode$PacketResponder: Received block blk_1823985426535649332 of size 67108864 from /10.251.111.228
081111 072224 23062 INFO dfs.DataNode$PacketResponder: PacketResponder 2 for block blk_-5504500392858491441 terminating
081111 072224 23062 INFO dfs.DataNode$PacketResponder: PacketResponder 2 for block blk_5403218844509515-490 terminating
081111 072300 32 INFO dfs.FSNamesystem: BLOCK* NameSystem.addStoredBlock: blockMap updated: 10.250.17.177:50010 is added to blk_4385764838827095986 size 3541872
081111 072300 32 INFO dfs.FSNamesystem: BLOCK* NameSystem.addStoredBlock: blockMap updated: 10.250.17.177:50010 is added to blk_8876543328659809874 size 3541872
081111 072355 22702 INFO dfs.DataNode$PacketResponder: PacketResponder 2 for block blk_-3710747952520609225 terminating
081111 072355 22702 INFO dfs.DataNode$PacketResponder: PacketResponder 2 for block blk_0-029529357607245712 terminating
081111 072356 23300 INFO dfs.DataNode$PacketResponder: PacketResponder 0 for block blk_707166530951154301 terminating
081111 072356 23300 INFO dfs.DataNode$PacketResponder: PacketResponder 0 for block blk_470753169511003165 terminating
081111 072356 30 INFO dfs.FSNamesystem: BLOCK* NameSystem.addStoredBlock: blockMap updated: 10.251.126.22:50010 is added to blk_707166530951154301 size 67108864
081111 072356 30 INFO dfs.FSNamesystem: BLOCK* NameSystem.addStoredBlock: blockMap updated: 10.251.126.22:50010 is added to blk_367435157961010150 size 67108864
081111 072403 23051 INFO dfs.DataNode$PacketResponder: PacketResponder 0 for block blk_2241654010576170013 terminating
081111 072403 23051 INFO dfs.DataNode$PacketResponder: PacketResponder 0 for block blk_7143121657041602005 terminating
081111 072447 23098 INFO dfs.DataNode$DataXceiver: Receiving block blk_-8475679647841427708 src: /10.251.75.49:58661 dest: /10.251.75.49:50010
081111 072447 23098 INFO dfs.DataNode$DataXceiver: Receiving block blk_6501674498-772878447 src: /10.251.75.49:58661 dest: /10.251.75.49:50010
081111 072523 30 INFO dfs.FSNamesystem: BLOCK* NameSystem.addStoredBlock: blockMap updated: 10.251.27.63:50010 is added to blk_-7794786562417612249 size 67108864
081111 072523 30 INFO dfs.FSNamesystem: BLOCK* NameSystem.addStoredBlock: blockMap updated: 10.251.27.63:50010 is added to blk_5972746729-182144766 size 67108864
081111 072710 22924 INFO dfs.DataNode$PacketResponder: PacketResponder 1 for block blk_-2068111211565768713 terminating
081111 072710 22924 INFO dfs.DataNode$PacketResponder: PacketResponder 1 for block blk_1655701786112861-123 terminating
081111 072733 23446 INFO dfs.DataNode$DataXceiver: Receiving block blk_-7238035741206373733 src: /10.251.202.209:59561 dest: /10.251.202.209:50010
081111 072733 23446 INFO dfs.DataNode$DataXceiver: Receiving block blk_775-3631337284023073 src: /10.251.202.209:59561 dest: /10.251.202.209:50010
081111 072818 28 INFO dfs.FSNamesystem: BLOCK* NameSystem.allocateBlock: /user/root/rand6/_temporary/_task_200811101024_0013_m_001195_0/part-01195. blk_5708405953850477535
081111 072818 28 INFO dfs.FSNamesystem: BLOCK* NameSystem.allocateBlock: /user/root/rand6/_temporary/_task_200811101024_0013_m_001195_0/part-01195. blk_8593348755570500574
081111 072857 23371 INFO dfs.DataNode$PacketResponder: Received block blk_2253084440592362960 of size 67108864 from /10.251.199.19
081111 072857 23371 INFO dfs.DataNode$PacketResponder: Received block blk_6532908965040232442 of size 67108864 from /10.251.199.19
081111 072901 34 INFO dfs.FSNamesystem: BLOCK* NameSystem.addStoredBlock: blockMap updated: 10.251.91.32:50010 is added to blk_-8127580564011467092 size 67108864
081111 072901 34 INFO dfs.FSNamesystem: BLOCK* NameSystem.addStoredBlock: blockMap updated: 10.251.91.32:50010 is added to blk_580-1674904218702165 size 67108864
081111 072903 23158 INFO dfs.DataNode$PacketResponder: PacketResponder 1 for block blk_-8568673600040025636 terminating
081111 072903 23158 INFO dfs.DataNode$PacketResponder: PacketResponder 1 for block blk_648660650783062035-0 terminating
081111 072921 29 INFO dfs.FSNamesystem: BLOCK* NameSystem.addStoredBlock: blockMap updated: 10.251.107.242:50010 is added to blk_621685330749869453 size 67108864
081111 072921 29 INFO dfs.FSNamesystem: BLOCK* NameSystem.addStoredBlock: blockMap updated: 10.251.107.242:50010 is added to blk_425839066478356319 size 67108864
081111 072948 35 INFO dfs.FSNamesystem: BLOCK* NameSystem.addStoredBlock: blockMap updated: 10.250.7.230:50010 is added to blk_8663640697928077697 size 67108864
081111 072948 35 INFO dfs.FSNamesystem: BLOCK* NameSystem.addStoredBlock: blockMap updated: 10.250.7.230:50010 is added to blk_7069790694668772386 size 67108864
081111 072949 23644 INFO dfs.DataNode$PacketResponder: PacketResponder 2 for block blk_1508705816376906895 terminating
081111 072949 23644 INFO dfs.DataNode$PacketResponder: PacketResponder 2 for block blk_0580966816975807531 terminating
081111 072956 23082 INFO dfs.DataNode$PacketResponder: Received block blk_-6441360440068187612 of size 67108864 from /10.250.10.100
081111 072956 23082 INFO dfs.DataNode$PacketResponder: Received block blk_1260684381640-701446 of size 67108864 from /10.250.10.100
081111 073005 23505 INFO dfs.DataNode$PacketResponder: PacketResponder 1 for block blk_2128110944185709079 terminating
081111 073005 23505 INFO dfs.DataNode$PacketResponder: PacketResponder 1 for block blk_0729874151801990214 terminating
081111 073013 23372 INFO dfs.DataNode$PacketResponder: PacketResponder 1 for block blk_871974742726663441 terminating
081111 073013 23372 INFO dfs.DataNode$PacketResponder: PacketResponder 1 for block blk_174446622178776943 terminating
081111 073059 23319 INFO dfs.DataNode$PacketResponder: PacketResponder 2 for block blk_8049943837789435742 terminating
081111 073059 23319 INFO dfs.DataNode$PacketResponder: PacketResponder 2 for block blk_3897442983078457349 terminating
081111 073109 23004 INFO dfs.DataNode$PacketResponder: PacketResponder 2 for block blk_-8246207776580662770 terminating
081111 073109 23004 INFO dfs.DataNode$PacketResponder: PacketResponder 2 for block blk_07767607-27284560268 terminating
081111 073148 27 INFO dfs.FSNamesystem: BLOCK* NameSystem.addStoredBlock: blockMap updated: 10.250.11.100:50010 is added to blk_3406384548372443486 size 67108864
081111 073148 27 INFO dfs.FSNamesystem: BLOCK* NameSystem.addStoredBlock: blockMap updated: 10.250.11.100:50010 is added to blk_7334864435604423848 size 67108864
081111 073230 34 INFO dfs.FSNamesystem: BLOCK* NameSystem.addStoredBlock: blockMap updated: 10.251.193.175:50010 is added to blk_2460145905812664251 size 67108864
081111 073230 34 INFO dfs.FSNamesystem: BLOCK* NameSystem.addStoredBlock: blockMap updated: 10.251.193.175:50010 is added to blk_6425265542694810101 size 67108864
081111 073302 23438 INFO dfs.DataNode$PacketResponder: Received block blk_-7207514537719465756 of size 67108864 from /10.251.75.143
081111 073302 23438 INFO dfs.DataNode$PacketResponder: Received block blk_61757065775493-54172 of size 67108864 from /10.251.75.143
081111 073314 23367 INFO dfs.DataNode$DataXceiver: Receiving block blk_5216491057643255876 src: /10.251.105.189:55126 dest: /10.251.105.189:50010
081111 073314 23367 INFO dfs.DataNode$DataXceiver: Receiving block blk_5208931654756461527 src: /10.251.105.189:55126 dest: /10.251.105.189:50010
081111 073350 31 INFO dfs.FSNamesystem: BLOCK* NameSystem.addStoredBlock: blockMap updated: 10.250.7.96:50010 is added to blk_4641147544753118391 size 67108864
081111 073350 31 INFO dfs.FSNamesystem: BLOCK* NameSystem.addStoredBlock: blockMap updated: 10.250.7.96:50010 is added to blk_8641414549117417353 size 67108864
081111 073403 23490 INFO dfs.DataNode$PacketResponder: PacketResponder 0 for block blk_-85872290979354091 terminating
081111 073403 23490 INFO dfs.DataNode$PacketResponder: PacketResponder 0 for block blk_45-199770832059829 terminating
081111 073406 23140 INFO dfs.DataNode$PacketResponder: Received block blk_-8310554294841246175 of size 67108864 from /10.251.123.132
081111 073406 23140 INFO dfs.DataNode$PacketResponder: Received block blk_5474422-191856530841 of size 67108864 from /10.251.123.132
081111 073441 17869 INFO dfs.DataNode$DataXceiver: Receiving block blk_-7293871043749246063 src: /10.251.193.175:59757 dest: /10.251.193.175:50010
081111 073441 17869 INFO dfs.DataNode$DataXceiver: Receiving block blk_079143-3626423907748 src: /10.251.193.175:59757 dest: /10.251.193.175:50010
081111 073507 23329 INFO dfs.DataNode$PacketResponder: Received block blk_3107521534415119817 of size 67108864 from /10.251.193.224
081111 073507 23329 INFO dfs.DataNode$PacketResponder: Received block blk_9513175851431042117 of size 67108864 from /10.251.193.224
081111 073525 23203 INFO dfs.DataNode$PacketResponder: Received block blk_7194943883245628915 of size 67108864 from /10.251.71.193
081111 073525 23203 INFO dfs.DataNode$PacketResponder: Received block blk_1442398849836257159 of size 67108864 from /10.251.71.193
081111 073610 23484 INFO dfs.DataNode$PacketResponder: Received block blk_-3816036740130815667 of size 3547785 from /10.250.19.227
081111 073610 23484 INFO dfs.DataNode$PacketResponder: Received block blk_0017136134875066-386 of size 3547785 from /10.250.19.227
081111 073704 23532 INFO dfs.DataNode$PacketResponder: Received block blk_-5450224419450631495 of size 67108864 from /10.251.42.84
081111 073704 23532 INFO dfs.DataNode$PacketResponder: Received block blk_9-154463214545040952 of size 67108864 from /10.251.42.84
081111 073746 23412 INFO dfs.DataNode$DataXceiver: Receiving block blk_5881782374981838094 src: /10.251.214.18:43091 dest: /10.251.214.18:50010
081111 073746 23412 INFO dfs.DataNode$DataXceiver: Receiving block blk_8311838284970954878 src: /10.251.214.18:43091 dest: /10.251.214.18:50010
081111 073802 23624 INFO dfs.DataNode$PacketResponder: PacketResponder 1 for block blk_7078766226078740026 terminating
081111 073802 23624 INFO dfs.DataNode$PacketResponder: PacketResponder 1 for block blk_2267870767080204766 terminating
081111 073914 23367 INFO dfs.DataNode$PacketResponder: Received block blk_-7380871572601322244 of size 67108864 from /10.251.121.224
081111 073914 23367 INFO dfs.DataNode$PacketResponder: Received block blk_220217471878026-5433 of size 67108864 from /10.251.121.224
081111 073943 23467 INFO dfs.DataNode$DataXceiver: Receiving block blk_3846795603907041885 src: /10.250.10.176:47296 dest: /10.250.10.176:50010
081111 073943 23467 INFO dfs.DataNode$DataXceiver: Receiving block blk_1858936034865770049 src: /10.250.10.176:47296 dest: /10.250.10.176:50010
081111 073949 23599 INFO dfs.DataNode$PacketResponder: Received block blk_7922331746517419368 of size 67108864 from /10.251.199.19
081111 073949 23599 INFO dfs.DataNode$PacketResponder: Received block blk_5313929761721386744 of size 67108864 from /10.251.199.19
081111 074108 23144 INFO dfs.DataNode$PacketResponder: Received block blk_155320394753274773 of size 67108864 from /10.251.201.204
081111 074108 23144 INFO dfs.DataNode$PacketResponder: Received block blk_359242313435057777 of size 67108864 from /10.251.201.204
081111 074200 23325 INFO dfs.DataNode$PacketResponder: PacketResponder 2 for block blk_-5722491454804415982 terminating
081111 074200 23325 INFO dfs.DataNode$PacketResponder: PacketResponder 2 for block blk_5245482178-440459291 terminating
081111 074309 23736 INFO dfs.DataNode$PacketResponder: Received block blk_-3482997549732691785 of size 67108864 from /10.251.122.79
081111 074309 23736 INFO dfs.DataNode$PacketResponder: Received block blk_592834679579893724-1 of size 67108864 from /10.251.122.79
081111 074409 23194 INFO dfs.DataNode$DataXceiver: Receiving block blk_6417614801998326532 src: /10.251.214.67:48694 dest: /10.251.214.67:50010
081111 074409 23194 INFO dfs.DataNode$DataXceiver: Receiving block blk_4113307862961589642 src: /10.251.214.67:48694 dest: /10.251.214.67:50010
081111 074431 23560 INFO dfs.DataNode$PacketResponder: Received block blk_-1090213273274684471 of size 67108864 from /10.251.214.130
081111 074431 23560 INFO dfs.DataNode$PacketResponder: Received block blk_416482720719310-4273 of size 67108864 from /10.251.214.130
081111 074449 23551 INFO dfs.DataNode$DataXceiver: Receiving block blk_-3738901473077208093 src: /10.251.199.150:49679 dest: /10.251.199.150:50010
081111 074449 23551 INFO dfs.DataNode$DataXceiver: Receiving block blk_70734093300-77838219 src: /10.251.199.150:49679 dest: /10.251.199.150:50010
081111 074540 29 INFO dfs.FSNamesystem: BLOCK* NameSystem.allocateBlock: /user/root/rand6/_temporary/_task_200811101024_0013_m_001850_0/part-01850. blk_-4312777901444596370
081111 074540 29 INFO dfs.FSNamesystem: BLOCK* NameSystem.allocateBlock: /user/root/rand6/_temporary/_task_200811101024_0013_m_001850_0/part-01850. blk_759114477324379-6400
081111 074548 27 INFO dfs.FSNamesystem: BLOCK* NameSystem.allocateBlock: /user/root/rand6/_temporary/_task_200811101024_0013_m_001835_0/part-01835. blk_6178964531181542074
081111 074548 27 INFO dfs.FSNamesystem: BLOCK* NameSystem.allocateBlock: /user/root/rand6/_temporary/_task_200811101024_0013_m_001835_0/part-01835. blk_5014882457463116197
081111 074653 23823 INFO dfs.DataNode$PacketResponder: PacketResponder 0 for block blk_8550326614414622861 terminating
081111 074653 23823 INFO dfs.DataNode$PacketResponder: PacketResponder 0 for block blk_6101164582844622563 terminating
081111 074955 23635 INFO dfs.DataNode$PacketResponder: PacketResponder 0 for block blk_-6525012344542022819 terminating
081111 074955 23635 INFO dfs.DataNode$PacketResponder: PacketResponder 0 for block blk_525240953-4812412206 terminating
081111 074958 29 INFO dfs.FSNamesystem: BLOCK* NameSystem.allocateBlock: /user/root/rand6/_temporary/_task_200811101024_0013_m_001983_0/part-01983. blk_8861349372992394289
081111 074958 29 INFO dfs.FSNamesystem: BLOCK* NameSystem.allocateBlock: /user/root/rand6/_temporary/_task_200811101024_0013_m_001983_0/part-01983. blk_7291332362894989489
081111 075054 23885 INFO dfs.DataNode$PacketResponder: PacketResponder 2 for block blk_-1049340855430710153 terminating
081111 075054 23885 INFO dfs.DataNode$PacketResponder: PacketResponder 2 for block blk_480353100354-1401597 terminating
081111 075114 23523 INFO dfs.DataNode$PacketResponder: PacketResponder 1 for block blk_703049809255765647 terminating
081111 075114 23523 INFO dfs.DataNode$PacketResponder: PacketResponder 1 for block blk_540976843750792650 terminating
081111 075129 23397 INFO dfs.DataNode$DataXceiver: Receiving block blk_-7460532841070848624 src: /10.250.15.67:55076 dest: /10.250.15.67:50010
081111 075129 23397 INFO dfs.DataNode$DataXceiver: Receiving block blk_60-28441604584027837 src: /10.250.15.67:55076 dest: /10.250.15.67:50010
081111 075151 23925 INFO dfs.DataNode$DataXceiver: Receiving block blk_-7623732795385061487 src: /10.251.122.65:40641 dest: /10.251.122.65:50010
081111 075151 23925 INFO dfs.DataNode$DataXceiver: Receiving block blk_77874055923163623-78 src: /10.251.122.65:40641 dest: /10.251.122.65:50010
081111 075158 33 INFO dfs.FSNamesystem: BLOCK* NameSystem.allocateBlock: /user/root/rand6/_temporary/_task_200811101024_0013_m_002009_1/part-02009. blk_-7367386750462511488
081111 075158 33 INFO dfs.FSNamesystem: BLOCK* NameSystem.allocateBlock: /user/root/rand6/_temporary/_task_200811101024_0013_m_002009_1/part-02009. blk_6-765623408113478578
081111 075212 30 INFO dfs.FSNamesystem: BLOCK* NameSystem.addStoredBlock: blockMap updated: 10.251.111.228:50010 is added to blk_-1237539644269634790 size 67108864
081111 075212 30 INFO dfs.FSNamesystem: BLOCK* NameSystem.addStoredBlock: blockMap updated: 10.251.111.228:50010 is added to blk_432466-9960393547712 size 67108864
081111 075317 23851 INFO dfs.DataNode$DataXceiver: Receiving block blk_7713504868233504097 src: /10.251.127.191:36437 dest: /10.251.127.191:50010
081111 075317 23851 INFO dfs.DataNode$DataXceiver: Receiving block blk_7330145877426590803 src: /10.251.127.191:36437 dest: /10.251.127.191:50010
081111 075345 29 INFO dfs.FSNamesystem: BLOCK* NameSystem.addStoredBlock: blockMap updated: 10.251.65.203:50010 is added to blk_8005746184358076390 size 67108864
081111 075345 29 INFO dfs.FSNamesystem: BLOCK* NameSystem.addStoredBlock: blockMap updated: 10.251.65.203:50010 is added to blk_0986307751400384658 size 67108864
081111 075408 23362 INFO dfs.DataNode$PacketResponder: Received block blk_955083461510572332 of size 41287838 from /10.251.107.242
081111 075408 23362 INFO dfs.DataNode$PacketResponder: Received block blk_613074505915352283 of size 41287838 from /10.251.107.242
081111 075537 23945 INFO dfs.DataNode$PacketResponder: PacketResponder 0 for block blk_283922378823540530 terminating
081111 075537 23945 INFO dfs.DataNode$PacketResponder: PacketResponder 0 for block blk_338539420287320852 terminating
081111 075616 28 INFO dfs.FSNamesystem: BLOCK* NameSystem.delete: blk_4471044334742081825 is added to invalidSet of 10.250.15.198:50010
081111 075616 28 INFO dfs.FSNamesystem: BLOCK* NameSystem.delete: blk_4321238444850047741 is added to invalidSet of 10.250.15.198:50010
081111 075619 28 INFO dfs.FSNamesystem: BLOCK* NameSystem.delete: blk_-3671953658029337449 is added to invalidSet of 10.250.14.143:50010
081111 075619 28 INFO dfs.FSNamesystem: BLOCK* NameSystem.delete: blk_3193793042746-856359 is added to invalidSet of 10.250.14.143:50010
081111 075623 28 INFO dfs.FSNamesystem: BLOCK* NameSystem.delete: blk_-75893538967225087 is added to invalidSet of 10.250.15.198:50010
081111 075623 28 INFO dfs.FSNamesystem: BLOCK* NameSystem.delete: blk_32687957783085-952 is added to invalidSet of 10.250.15.198:50010
081111 075626 28 INFO dfs.FSNamesystem: BLOCK* NameSystem.delete: blk_805187982300776163 is added to invalidSet of 10.251.73.188:50010
081111 075626 28 INFO dfs.FSNamesystem: BLOCK* NameSystem.delete: blk_281356097730867081 is added to invalidSet of 10.251.73.188:50010
081111 075628 28 INFO dfs.FSNamesystem: BLOCK* NameSystem.delete: blk_4631777956354958682 is added to invalidSet of 10.251.30.134:50010
081111 075628 28 INFO dfs.FSNamesystem: BLOCK* NameSystem.delete: blk_1483676925984637557 is added to invalidSet of 10.251.30.134:50010
081111 075629 28 INFO dfs.FSNamesystem: BLOCK* NameSystem.delete: blk_-7595375726951801956 is added to invalidSet of 10.251.122.79:50010
081111 075629 28 INFO dfs.FSNamesystem: BLOCK* NameSystem.delete: blk_25563097997751-58156 is added to invalidSet of 10.251.122.79:50010
081111 075631 28 INFO dfs.FSNamesystem: BLOCK* NameSystem.delete: blk_-4681205519208992498 is added to invalidSet of 10.250.6.191:50010
081111 075631 28 INFO dfs.FSNamesystem: BLOCK* NameSystem.delete: blk_92195829584462-80019 is added to invalidSet of 10.250.6.191:50010
081111 075632 28 INFO dfs.FSNamesystem: BLOCK* NameSystem.delete: blk_5702487846232575705 is added to invalidSet of 10.250.14.38:50010
081111 075632 28 INFO dfs.FSNamesystem: BLOCK* NameSystem.delete: blk_0447372205258755687 is added to invalidSet of 10.250.14.38:50010
081111 075634 28 INFO dfs.FSNamesystem: BLOCK* NameSystem.delete: blk_4834069779372284635 is added to invalidSet of 10.251.71.97:50010
081111 075634 28 INFO dfs.FSNamesystem: BLOCK* NameSystem.delete: blk_7920434385869634772 is added to invalidSet of 10.251.71.97:50010
081111 075636 28 INFO dfs.FSNamesystem: BLOCK* NameSystem.delete: blk_3735517274901501821 is added to invalidSet of 10.250.6.4:50010
081111 075636 28 INFO dfs.FSNamesystem: BLOCK* NameSystem.delete: blk_1701221473985173505 is added to invalidSet of 10.250.6.4:50010
081111 075637 28 INFO dfs.FSNamesystem: BLOCK* NameSystem.delete: blk_5018797996887008111 is added to invalidSet of 10.251.89.155:50010
081111 075637 28 INFO dfs.FSNamesystem: BLOCK* NameSystem.delete: blk_8519191917787886000 is added to invalidSet of 10.251.89.155:50010
081111 075638 28 INFO dfs.FSNamesystem: BLOCK* NameSystem.delete: blk_-566178736644429906 is added to invalidSet of 10.251.70.37:50010
081111 075638 28 INFO dfs.FSNamesystem: BLOCK* NameSystem.delete: blk_4-69752676401963486 is added to invalidSet of 10.251.70.37:50010
081111 075640 28 INFO dfs.FSNamesystem: BLOCK* NameSystem.delete: blk_-8121498678081035000 is added to invalidSet of 10.250.11.100:50010
081111 075640 28 INFO dfs.FSNamesystem: BLOCK* NameSystem.delete: blk_05890-40032718801861 is added to invalidSet of 10.250.11.100:50010
081111 075657 23748 INFO dfs.DataNode$DataXceiver: Receiving block blk_7996616083434301906 src: /10.251.123.195:53947 dest: /10.251.123.195:50010
081111 075657 23748 INFO dfs.DataNode$DataXceiver: Receiving block blk_6169396143076398004 src: /10.251.123.195:53947 dest: /10.251.123.195:50010
081111 075727 19 INFO dfs.FSDataset: Deleting block blk_6888300867578983331 file /mnt/hadoop/dfs/data/current/subdir46/blk_6888300867578983331
081111 075727 19 INFO dfs.FSDataset: Deleting block blk_3631388980687708385 file /mnt/hadoop/dfs/data/current/subdir46/blk_8807083168389536378
081111 075743 23596 INFO dfs.DataNode$PacketResponder: PacketResponder 0 for block blk_7625391056418655045 terminating
081111 075743 23596 INFO dfs.DataNode$PacketResponder: PacketResponder 0 for block blk_0256815515690347456 terminating
081111 075746 19 INFO dfs.FSDataset: Deleting block blk_-8443921001690182522 file /mnt/hadoop/dfs/data/current/subdir33/blk_-8443921001690182522
081111 075746 19 INFO dfs.FSDataset: Deleting block blk_119632280584009-1224 file /mnt/hadoop/dfs/data/current/subdir33/blk_26811458239-20021904
081111 075747 23844 INFO dfs.DataNode$DataXceiver: Receiving block blk_706826531153199550 src: /10.250.5.161:58254 dest: /10.250.5.161:50010
081111 075747 23844 INFO dfs.DataNode$DataXceiver: Receiving block blk_168550551739210396 src: /10.250.5.161:58254 dest: /10.250.5.161:50010
081111 075753 19 INFO dfs.FSDataset: Deleting block blk_-7446091384471755694 file /mnt/hadoop/dfs/data/current/subdir30/blk_-7446091384471755694
081111 075753 19 INFO dfs.FSDataset: Deleting block blk_86941434467705-17945 file /mnt/hadoop/dfs/data/current/subdir30/blk_7-478796164451440539
081111 075759 19 INFO dfs.FSDataset: Deleting block blk_-4352313989800650828 file /mnt/hadoop/dfs/data/current/subdir56/blk_-4352313989800650828
081111 075759 19 INFO dfs.FSDataset: Deleting block blk_2189492053-358060388 file /mnt/hadoop/dfs/data/current/subdir56/blk_825480316358009382-9
081111 075809 19 INFO dfs.FSDataset: Deleting block blk_-6292499669518281202 file /mnt/hadoop/dfs/data/current/subdir26/blk_-6292499669518281202
081111 075809 19 INFO dfs.FSDataset: Deleting block blk_92169582-96642282901 file /mnt/hadoop/dfs/data/current/subdir26/blk_928-2926428506196219
081111 075809 23659 INFO dfs.DataNode$PacketResponder: PacketResponder 0 for block blk_-4582442491366282435 terminating
081111 075809 23659 INFO dfs.DataNode$PacketResponder: PacketResponder 0 for block blk_94832458242652614-34 terminating
081111 075810 19 INFO dfs.FSDataset: Deleting block blk_-6750694665033046901 file /mnt/hadoop/dfs/data/current/subdir63/blk_-6750694665033046901
081111 075810 19 INFO dfs.FSDataset: Deleting block blk_54303-04690066656917 file /mnt/hadoop/dfs/data/current/subdir63/blk_04639701-46005656369
081111 075814 19 INFO dfs.FSDataset: Deleting block blk_-6131345369657245178 file /mnt/hadoop/dfs/data/current/blk_-6131345369657245178
081111 075814 19 INFO dfs.FSDataset: Deleting block blk_1365-136583579641247 file /mnt/hadoop/dfs/data/current/blk_56561824433-69377115
081111 075824 19 INFO dfs.FSDataset: Deleting block blk_-3575718350717794894 file /mnt/hadoop/dfs/data/current/blk_-3575718350717794894
081111 075824 19 INFO dfs.FSDataset: Deleting block blk_478917535718-7954703 file /mnt/hadoop/dfs/data/current/blk_059817-7983154757347
081111 075833 19 INFO dfs.FSDataset: Deleting block blk_-4380385204018751771 file /mnt/hadoop/dfs/data/current/subdir38/blk_-4380385204018751771
081111 075833 19 INFO dfs.FSDataset: Deleting block blk_25007703888115143-74 file /mnt/hadoop/dfs/data/current/subdir38/blk_0473731-080581427581
081111 075838 19 INFO dfs.FSDataset: Deleting block blk_-3594701313167635091 file /mnt/hadoop/dfs/data/current/subdir54/blk_-3594701313167635091
081111 075838 19 INFO dfs.FSDataset: Deleting block blk_-6309510457391713316 file /mnt/hadoop/dfs/data/current/subdir54/blk_60413391-57113905637
081111 075844 18 INFO dfs.FSDataset: Deleting block blk_-1693418636466747515 file /mnt/hadoop/dfs/data/current/subdir16/blk_-1693418636466747515
081111 075844 18 INFO dfs.FSDataset: Deleting block blk_57516661734146-93468 file /mnt/hadoop/dfs/data/current/subdir16/blk_5674113648674369651-
081111 075854 19 INFO dfs.FSDataset: Deleting block blk_5806397523737304814 file /mnt/hadoop/dfs/data/current/subdir34/blk_5806397523737304814
081111 075854 19 INFO dfs.FSDataset: Deleting block blk_0745196577330334288 file /mnt/hadoop/dfs/data/current/subdir34/blk_5084605274133397378
081111 075901 18 INFO dfs.FSDataset: Deleting block blk_-1345585044778938153 file /mnt/hadoop/dfs/data/current/subdir45/blk_-1345585044778938153
081111 075901 18 INFO dfs.FSDataset: Deleting block blk_-5457540743598118338 file /mnt/hadoop/dfs/data/current/subdir45/blk_140177549353388558-4
081111 075901 19 INFO dfs.FSDataset: Deleting block blk_2489882700357182381 file /mnt/hadoop/dfs/data/current/blk_2489882700357182381
081111 075901 19 INFO dfs.FSDataset: Deleting block blk_2180350782231884798 file /mnt/hadoop/dfs/data/current/blk_8782703532112804988
081111 075902 19 INFO dfs.FSDataset: Deleting block blk_-1800458850981311953 file /mnt/hadoop/dfs/data/current/subdir57/blk_-1800458850981311953
081111 075902 19 INFO dfs.FSDataset: Deleting block blk_19385589048018131-50 file /mnt/hadoop/dfs/data/current/subdir57/blk_080851911335-8518940
081111 075905 19 INFO dfs.FSDataset: Deleting block blk_6373260430960091026 file /mnt/hadoop/dfs/data/current/subdir43/blk_6373260430960091026
081111 075905 19 INFO dfs.FSDataset: Deleting block blk_9610267369630300240 file /mnt/hadoop/dfs/data/current/subdir43/blk_1400326069033607269
081111 075907 19 INFO dfs.FSDataset: Deleting block blk_-1278725622357466169 file /mnt/hadoop/dfs/data/current/subdir0/blk_-1278725622357466169
081111 075907 19 INFO dfs.FSDataset: Deleting block blk_31197627752542-28666 file /mnt/hadoop/dfs/data/current/subdir0/blk_6652749167-127625328
081111 075911 19 INFO dfs.FSDataset: Deleting block blk_4513772639980123655 file /mnt/hadoop/dfs/data/current/blk_4513772639980123655
081111 075911 19 INFO dfs.FSDataset: Deleting block blk_3857106651992547332 file /mnt/hadoop/dfs/data/current/blk_5942976633185152730
081111 075914 19 INFO dfs.FSDataset: Deleting block blk_1838564958520120941 file /mnt/hadoop/dfs/data/current/subdir39/blk_1838564958520120941
081111 075914 19 INFO dfs.FSDataset: Deleting block blk_2151019849856235048 file /mnt/hadoop/dfs/data/current/subdir39/blk_5219435012514889608
081111 075915 19 INFO dfs.FSDataset: Deleting block blk_7985460426680885040 file /mnt/hadoop/dfs/data/current/blk_7985460426680885040
081111 075915 19 INFO dfs.FSDataset: Deleting block blk_6680784865940082450 file /mnt/hadoop/dfs/data/current/blk_8006954208676480854
081111 075920 19 INFO dfs.FSDataset: Deleting block blk_2215517976324634098 file /mnt/hadoop/dfs/data/current/subdir4/blk_2215517976324634098
081111 075920 19 INFO dfs.FSDataset: Deleting block blk_4235604732598719162 file /mnt/hadoop/dfs/data/current/subdir4/blk_6924218077416955332
081111 075920 19 INFO dfs.FSDataset: Deleting block blk_5453150794205420798 file /mnt/hadoop/dfs/data/current/subdir24/blk_5453150794205420798
081111 075920 19 INFO dfs.FSDataset: Deleting block blk_5492555207494370801 file /mnt/hadoop/dfs/data/current/subdir24/blk_3544270582014795905
081111 075933 27 INFO dfs.FSNamesystem: BLOCK* NameSystem.addStoredBlock: blockMap updated: 10.251.194.102:50010 is added to blk_-7522572236891389139 size 67108864
081111 075933 27 INFO dfs.FSNamesystem: BLOCK* NameSystem.addStoredBlock: blockMap updated: 10.251.194.102:50010 is added to blk_398528322752-6939117 size 67108864
081111 075957 19 INFO dfs.FSDataset: Deleting block blk_6163400028286940197 file /mnt/hadoop/dfs/data/current/subdir7/blk_6163400028286940197
081111 075957 19 INFO dfs.FSDataset: Deleting block blk_4301009028786146296 file /mnt/hadoop/dfs/data/current/subdir7/blk_0062642180693901784
081111 080006 19 INFO dfs.FSDataset: Deleting block blk_7583807825342916938 file /mnt/hadoop/dfs/data/current/subdir13/blk_7583807825342916938
081111 080006 19 INFO dfs.FSDataset: Deleting block blk_7595396282838170843 file /mnt/hadoop/dfs/data/current/subdir13/blk_1833609735722588498
081111 080019 23787 INFO dfs.DataNode$DataXceiver: Receiving block blk_-5957060034695163774 src: /10.251.29.239:56334 dest: /10.251.29.239:50010
081111 080019 23787 INFO dfs.DataNode$DataXceiver: Receiving block blk_5065679194706533-740 src: /10.251.29.239:56334 dest: /10.251.29.239:50010
081111 080108 24040 INFO dfs.DataNode$DataXceiver: Receiving block blk_-2250942073136893488 src: /10.251.126.22:59179 dest: /10.251.126.22:50010
081111 080108 24040 INFO dfs.DataNode$DataXceiver: Receiving block blk_8462593408728932013- src: /10.251.126.22:59179 dest: /10.251.126.22:50010
081111 080118 23798 INFO dfs.DataNode$PacketResponder: Received block blk_-3693786175267111588 of size 67108864 from /10.251.71.97
081111 080118 23798 INFO dfs.DataNode$PacketResponder: Received block blk_783-9816568153177612 of size 67108864 from /10.251.71.97
081111 080151 19 INFO dfs.FSDataset: Deleting block blk_8384967715738359346 file /mnt/hadoop/dfs/data/current/subdir27/blk_8384967715738359346
081111 080151 19 INFO dfs.FSDataset: Deleting block blk_8386379184796353754 file /mnt/hadoop/dfs/data/current/subdir27/blk_5677437349888316593
081111 080256 27 INFO dfs.FSNamesystem: BLOCK* NameSystem.addStoredBlock: blockMap updated: 10.250.10.223:50010 is added to blk_-1948505589144820414 size 67108864
081111 080256 27 INFO dfs.FSNamesystem: BLOCK* NameSystem.addStoredBlock: blockMap updated: 10.250.10.223:50010 is added to blk_5110414885909452-844 size 67108864
081111 080309 32 INFO dfs.FSNamesystem: BLOCK* NameSystem.addStoredBlock: blockMap updated: 10.251.202.209:50010 is added to blk_-6224982681533811277 size 67108864
081111 080309 32 INFO dfs.FSNamesystem: BLOCK* NameSystem.addStoredBlock: blockMap updated: 10.251.202.209:50010 is added to blk_7128162-138268954723 size 67108864
081111 080329 30 INFO dfs.FSNamesystem: BLOCK* NameSystem.addStoredBlock: blockMap updated: 10.251.107.196:50010 is added to blk_-2843780069100181052 size 67108864
081111 080329 30 INFO dfs.FSNamesystem: BLOCK* NameSystem.addStoredBlock: blockMap updated: 10.251.107.196:50010 is added to blk_380501042689701-2810 size 67108864
081111 080505 23478 INFO dfs.DataNode$DataXceiver: Receiving block blk_8083872765147994327 src: /10.250.15.67:41990 dest: /10.250.15.67:50010
081111 080505 23478 INFO dfs.DataNode$DataXceiver: Receiving block blk_7598978042373874216 src: /10.250.15.67:41990 dest: /10.250.15.67:50010
081111 080554 24194 INFO dfs.DataNode$PacketResponder: Received block blk_-6502143621885580798 of size 67108864 from /10.251.39.179
081111 080554 24194 INFO dfs.DataNode$PacketResponder: Received block blk_254986581605817-8203 of size 67108864 from /10.251.39.179
081111 080645 23938 INFO dfs.DataNode$DataXceiver: Receiving block blk_-8323785930877970805 src: /10.250.13.240:40589 dest: /10.250.13.240:50010
081111 080645 23938 INFO dfs.DataNode$DataXceiver: Receiving block blk_7039782-078573039858 src: /10.250.13.240:40589 dest: /10.250.13.240:50010
081111 080654 23600 INFO dfs.DataNode$PacketResponder: PacketResponder 0 for block blk_-7587189852169913514 terminating
081111 080654 23600 INFO dfs.DataNode$PacketResponder: PacketResponder 0 for block blk_55-98121589389176471 terminating
081111 080710 26 INFO dfs.FSNamesystem: BLOCK* NameSystem.addStoredBlock: blockMap updated: 10.251.74.192:50010 is added to blk_7439201509602018752 size 67108864
081111 080710 26 INFO dfs.FSNamesystem: BLOCK* NameSystem.addStoredBlock: blockMap updated: 10.251.74.192:50010 is added to blk_0022924955813670710 size 67108864
081111 080803 24149 INFO dfs.DataNode$PacketResponder: Received block blk_3224184805694764748 of size 67108864 from /10.250.18.114
081111 080803 24149 INFO dfs.DataNode$PacketResponder: Received block blk_4854484097763624182 of size 67108864 from /10.250.18.114
081111 080934 19 INFO dfs.FSNamesystem: BLOCK* ask 10.250.14.38:50010 to replicate blk_-7571492020523929240 to datanode(s) 10.251.122.38:50010
081111 080934 19 INFO dfs.FSNamesystem: BLOCK* ask 10.250.14.38:50010 to replicate blk_0234225-947129029057 to datanode(s) 10.251.122.38:50010
081111 081027 28 INFO dfs.FSNamesystem: BLOCK* NameSystem.addStoredBlock: blockMap updated: 10.251.30.6:50010 is added to blk_1119272693889755844 size 67108864
081111 081027 28 INFO dfs.FSNamesystem: BLOCK* NameSystem.addStoredBlock: blockMap updated: 10.251.30.6:50010 is added to blk_4745386927911819528 size 67108864
081111 081029 24268 INFO dfs.DataNode$PacketResponder: Received block blk_1600228140214754078 of size 67108864 from /10.251.90.81
081111 081029 24268 INFO dfs.DataNode$PacketResponder: Received block blk_2420604048171780512 of size 67108864 from /10.251.90.81
081111 081055 24136 INFO dfs.DataNode$DataXceiver: Received block blk_1473949624670719319 src: /10.251.29.239:35617 dest: /10.251.29.239:50010 of size 67108864
081111 081055 24136 INFO dfs.DataNode$DataXceiver: Received block blk_1974304937691214976 src: /10.251.29.239:35617 dest: /10.251.29.239:50010 of size 67108864
081111 081145 23823 INFO dfs.DataNode$DataXceiver: Receiving block blk_-7227576651324043655 src: /10.251.107.227:40740 dest: /10.251.107.227:50010
081111 081145 23823 INFO dfs.DataNode$DataXceiver: Receiving block blk_625465267337-7420515 src: /10.251.107.227:40740 dest: /10.251.107.227:50010
081111 081406 18 INFO dfs.FSDataset: Deleting block blk_-7606467001548719462 file /mnt/hadoop/dfs/data/current/subdir2/blk_-7606467001548719462
081111 081406 18 INFO dfs.FSDataset: Deleting block blk_01570072467948-16466 file /mnt/hadoop/dfs/data/current/subdir2/blk_06168017747-56046429
081111 081416 24027 INFO dfs.DataNode$PacketResponder: Received block blk_2771018387166611008 of size 67108864 from /10.251.26.131
081111 081416 24027 INFO dfs.DataNode$PacketResponder: Received block blk_0661738807611012718 of size 67108864 from /10.251.26.131
081111 081534 34 INFO dfs.FSNamesystem: BLOCK* NameSystem.addStoredBlock: blockMap updated: 10.251.110.160:50010 is added to blk_-2852294661215451806 size 67108864
081111 081534 34 INFO dfs.FSNamesystem: BLOCK* NameSystem.addStoredBlock: blockMap updated: 10.251.110.160:50010 is added to blk_1229-824011682465655 size 67108864
081111 081606 23925 INFO dfs.DataNode$DataXceiver: Receiving block blk_7891129742741763034 src: /10.251.107.227:57000 dest: /10.251.107.227:50010
081111 081606 23925 INFO dfs.DataNode$DataXceiver: Receiving block blk_1621844304217977937 src: /10.251.107.227:57000 dest: /10.251.107.227:50010
081111 081617 26 INFO dfs.FSNamesystem: BLOCK* NameSystem.addStoredBlock: blockMap updated: 10.250.15.240:50010 is added to blk_8512974147315737844 size 67108864
081111 081617 26 INFO dfs.FSNamesystem: BLOCK* NameSystem.addStoredBlock: blockMap updated: 10.250.15.240:50010 is added to blk_4788444752791115733 size 67108864
081111 081640 23985 INFO dfs.DataNode$PacketResponder: Received block blk_427477290315080955 of size 67108864 from /10.251.123.132
081111 081640 23985 INFO dfs.DataNode$PacketResponder: Received block blk_552974307728951400 of size 67108864 from /10.251.123.132
081111 081702 24075 INFO dfs.DataNode$PacketResponder: Received block blk_-7630699912570186723 of size 67108864 from /10.251.71.240
081111 081702 24075 INFO dfs.DataNode$PacketResponder: Received block blk_6673528-099201761379 of size 67108864 from /10.251.71.240
081111 081847 24224 INFO dfs.DataNode$DataXceiver: Receiving block blk_1512136249403454074 src: /10.250.7.244:47958 dest: /10.250.7.244:50010
081111 081847 24224 INFO dfs.DataNode$DataXceiver: Receiving block blk_4442355091064214137 src: /10.250.7.244:47958 dest: /10.250.7.244:50010
081111 081938 23963 INFO dfs.DataNode$PacketResponder: Received block blk_8655748951361667770 of size 67108864 from /10.251.109.236
081111 081938 23963 INFO dfs.DataNode$PacketResponder: Received block blk_7641586570187636579 of size 67108864 from /10.251.109.236
081111 081954 24553 INFO dfs.DataNode$PacketResponder: PacketResponder 2 for block blk_8487226415276391460 terminating
081111 081954 24553 INFO dfs.DataNode$PacketResponder: PacketResponder 2 for block blk_3840426185774696221 terminating
081111 082005 23974 INFO dfs.DataNode$DataXceiver: Receiving block blk_-8162657657061473938 src: /10.251.26.131:35484 dest: /10.251.26.131:50010
081111 082005 23974 INFO dfs.DataNode$DataXceiver: Receiving block blk_03671-86567378259146 src: /10.251.26.131:35484 dest: /10.251.26.131:50010
081111 082039 28 INFO dfs.FSNamesystem: BLOCK* NameSystem.addStoredBlock: blockMap updated: 10.251.66.3:50010 is added to blk_-4970213618915792510 size 67108864
081111 082039 28 INFO dfs.FSNamesystem: BLOCK* NameSystem.addStoredBlock: blockMap updated: 10.251.66.3:50010 is added to blk_9175-974586211003291 size 67108864
081111 082108 24348 INFO dfs.DataNode$DataXceiver: Receiving block blk_9034824096129858680 src: /10.250.6.223:45371 dest: /10.250.6.223:50010
081111 082108 24348 INFO dfs.DataNode$DataXceiver: Receiving block blk_8830298409081942656 src: /10.250.6.223:45371 dest: /10.250.6.223:50010
081111 082322 24292 INFO dfs.DataNode$PacketResponder: Received block blk_-4775386099844009890 of size 67108864 from /10.251.107.19
081111 082322 24292 INFO dfs.DataNode$PacketResponder: Received block blk_87056879-90438400994 of size 67108864 from /10.251.107.19
081111 082527 31 INFO dfs.FSNamesystem: BLOCK* NameSystem.allocateBlock: /user/root/rand7/_temporary/_task_200811101024_0014_m_001049_0/part-01049. blk_-1533191386601391937
081111 082527 31 INFO dfs.FSNamesystem: BLOCK* NameSystem.allocateBlock: /user/root/rand7/_temporary/_task_200811101024_0014_m_001049_0/part-01049. blk_590681179631-3311933
081111 082528 24365 INFO dfs.DataNode$PacketResponder: PacketResponder 0 for block blk_2096199637324483321 terminating
081111 082528 24365 INFO dfs.DataNode$PacketResponder: PacketResponder 0 for block blk_2197439368339041226 terminating
081111 082541 24284 INFO dfs.DataNode$PacketResponder: PacketResponder 2 for block blk_3433046099598424314 terminating
081111 082541 24284 INFO dfs.DataNode$PacketResponder: PacketResponder 2 for block blk_9612083434533944094 terminating
081111 082650 32 INFO dfs.FSNamesystem: BLOCK* NameSystem.addStoredBlock: blockMap updated: 10.250.13.240:50010 is added to blk_4170936278386288557 size 67108864
081111 082650 32 INFO dfs.FSNamesystem: BLOCK* NameSystem.addStoredBlock: blockMap updated: 10.250.13.240:50010 is added to blk_4701665282388758379 size 67108864
081111 082730 24531 INFO dfs.DataNode$PacketResponder: Received block blk_-3023983271692989109 of size 67108864 from /10.251.110.68
081111 082730 24531 INFO dfs.DataNode$PacketResponder: Received block blk_9139269871830299-203 of size 67108864 from /10.251.110.68
081111 082809 24442 INFO dfs.DataNode$DataXceiver: Receiving block blk_469126362137371425 src: /10.251.199.245:53897 dest: /10.251.199.245:50010
081111 082809 24442 INFO dfs.DataNode$DataXceiver: Receiving block blk_712915643263612437 src: /10.251.199.245:53897 dest: /10.251.199.245:50010
081111 082902 24331 INFO dfs.DataNode$PacketResponder: PacketResponder 1 for block blk_3922791077126964673 terminating
081111 082902 24331 INFO dfs.DataNode$PacketResponder: PacketResponder 1 for block blk_7973626764319271902 terminating
081111 082952 24363 INFO dfs.DataNode$PacketResponder: Received block blk_5813923864071791162 of size 67108864 from /10.251.125.193
081111 082952 24363 INFO dfs.DataNode$PacketResponder: Received block blk_7191476892311825360 of size 67108864 from /10.251.125.193
081111 082955 24432 INFO dfs.DataNode$PacketResponder: PacketResponder 0 for block blk_7412933088374169877 terminating
081111 082955 24432 INFO dfs.DataNode$PacketResponder: PacketResponder 0 for block blk_3734129960843778871 terminating
081111 083120 26 INFO dfs.FSNamesystem: BLOCK* NameSystem.addStoredBlock: blockMap updated: 10.251.39.192:50010 is added to blk_-3888538223380979891 size 67108864
081111 083120 26 INFO dfs.FSNamesystem: BLOCK* NameSystem.addStoredBlock: blockMap updated: 10.251.39.192:50010 is added to blk_993-0881583298338782 size 67108864
081111 083143 24261 INFO dfs.DataNode$PacketResponder: Received block blk_-5970165518655489569 of size 67108864 from /10.250.14.196
081111 083143 24261 INFO dfs.DataNode$PacketResponder: Received block blk_195516958667809554-5 of size 67108864 from /10.250.14.196
081111 083148 24344 INFO dfs.DataNode$PacketResponder: PacketResponder 2 for block blk_-7319442762668598889 terminating
081111 083148 24344 INFO dfs.DataNode$PacketResponder: PacketResponder 2 for block blk_698674922541783896-8 terminating
081111 083212 30 INFO dfs.FSNamesystem: BLOCK* NameSystem.allocateBlock: /user/root/rand7/_temporary/_task_200811101024_0014_m_000973_0/part-00973. blk_5844313985011885282
081111 083212 30 INFO dfs.FSNamesystem: BLOCK* NameSystem.allocateBlock: /user/root/rand7/_temporary/_task_200811101024_0014_m_000973_0/part-00973. blk_3854481520181523898
081111 083219 35 INFO dfs.FSNamesystem: BLOCK* NameSystem.allocateBlock: /user/root/rand7/_temporary/_task_200811101024_0014_m_001348_0/part-01348. blk_4531288786306744275
081111 083219 35 INFO dfs.FSNamesystem: BLOCK* NameSystem.allocateBlock: /user/root/rand7/_temporary/_task_200811101024_0014_m_001348_0/part-01348. blk_3672784402841865753
081111 083336 24444 INFO dfs.DataNode$PacketResponder: Received block blk_-3845286823494684378 of size 67108864 from /10.251.107.196
081111 083336 24444 INFO dfs.DataNode$PacketResponder: Received block blk_8364322485349684878- of size 67108864 from /10.251.107.196
081111 083338 31 INFO dfs.FSNamesystem: BLOCK* NameSystem.addStoredBlock: blockMap updated: 10.251.203.129:50010 is added to blk_6170586659371027531 size 67108864
081111 083338 31 INFO dfs.FSNamesystem: BLOCK* NameSystem.addStoredBlock: blockMap updated: 10.251.203.129:50010 is added to blk_1573609081577256631 size 67108864
081111 083418 24490 INFO dfs.DataNode$PacketResponder: PacketResponder 1 for block blk_-808401720390253471 terminating
081111 083418 24490 INFO dfs.DataNode$PacketResponder: PacketResponder 1 for block blk_54-7008730109183422 terminating
081111 083426 35 INFO dfs.FSNamesystem: BLOCK* NameSystem.addStoredBlock: blockMap updated: 10.251.123.33:50010 is added to blk_1447281351164457761 size 67108864
081111 083426 35 INFO dfs.FSNamesystem: BLOCK* NameSystem.addStoredBlock: blockMap updated: 10.251.123.33:50010 is added to blk_7446171631154487521 size 67108864
081111 083427 24635 INFO dfs.DataNode$DataXceiver: Receiving block blk_-7911408976820434495 src: /10.251.42.191:35834 dest: /10.251.42.191:50010
081111 083427 24635 INFO dfs.DataNode$DataXceiver: Receiving block blk_499582444-6879130701 src: /10.251.42.191:35834 dest: /10.251.42.191:50010
081111 083439 32 INFO dfs.FSNamesystem: BLOCK* NameSystem.addStoredBlock: blockMap updated: 10.251.89.155:50010 is added to blk_-5455316994110506037 size 67108864
081111 083439 32 INFO dfs.FSNamesystem: BLOCK* NameSystem.addStoredBlock: blockMap updated: 10.251.89.155:50010 is added to blk_0365554919740165-130 size 67108864
081111 083443 24635 INFO dfs.DataNode$PacketResponder: PacketResponder 0 for block blk_-917268749136585019 terminating
081111 083443 24635 INFO dfs.DataNode$PacketResponder: PacketResponder 0 for block blk_37751618094689519-2 terminating
081111 083506 24609 INFO dfs.DataNode$DataXceiver: Receiving block blk_1122812501843755360 src: /10.251.198.196:51036 dest: /10.251.198.196:50010
081111 083506 24609 INFO dfs.DataNode$DataXceiver: Receiving block blk_5304750811831516222 src: /10.251.198.196:51036 dest: /10.251.198.196:50010
081111 083742 24575 INFO dfs.DataNode$DataXceiver: Receiving block blk_5983149244832683042 src: /10.251.42.191:52748 dest: /10.251.42.191:50010
081111 083742 24575 INFO dfs.DataNode$DataXceiver: Receiving block blk_5801422483394329486 src: /10.251.42.191:52748 dest: /10.251.42.191:50010
081111 083753 24539 INFO dfs.DataNode$PacketResponder: PacketResponder 1 for block blk_-5263787695149681326 terminating
081111 083753 24539 INFO dfs.DataNode$PacketResponder: PacketResponder 1 for block blk_9664781-698132253756 terminating
081111 083755 24394 INFO dfs.DataNode$DataXceiver: Receiving block blk_5781019224640206392 src: /10.250.11.194:37060 dest: /10.250.11.194:50010
081111 083755 24394 INFO dfs.DataNode$DataXceiver: Receiving block blk_1952642480206793210 src: /10.250.11.194:37060 dest: /10.250.11.194:50010
081111 083839 24534 INFO dfs.DataNode$PacketResponder: PacketResponder 2 for block blk_4786794545180705888 terminating
081111 083839 24534 INFO dfs.DataNode$PacketResponder: PacketResponder 2 for block blk_7788858494108640755 terminating
081111 083839 28 INFO dfs.FSNamesystem: BLOCK* NameSystem.addStoredBlock: blockMap updated: 10.251.73.220:50010 is added to blk_1303107722036031233 size 67108864
081111 083839 28 INFO dfs.FSNamesystem: BLOCK* NameSystem.addStoredBlock: blockMap updated: 10.251.73.220:50010 is added to blk_2233031701060373231 size 67108864
081111 083955 24547 INFO dfs.DataNode$PacketResponder: Received block blk_4539833452749813987 of size 67108864 from /10.251.42.16
081111 083955 24547 INFO dfs.DataNode$PacketResponder: Received block blk_5495843489793873123 of size 67108864 from /10.251.42.16
081111 084003 24758 INFO dfs.DataNode$PacketResponder: PacketResponder 0 for block blk_703387617548630438 terminating
081111 084003 24758 INFO dfs.DataNode$PacketResponder: PacketResponder 0 for block blk_133678476458083730 terminating
081111 084102 24677 INFO dfs.DataNode$PacketResponder: PacketResponder 1 for block blk_5689516499354445029 terminating
081111 084102 24677 INFO dfs.DataNode$PacketResponder: PacketResponder 1 for block blk_5845404599529196634 terminating
081111 084148 34 INFO dfs.FSNamesystem: BLOCK* NameSystem.addStoredBlock: blockMap updated: 10.250.11.100:50010 is added to blk_-4595094649363595358 size 67108864
081111 084148 34 INFO dfs.FSNamesystem: BLOCK* NameSystem.addStoredBlock: blockMap updated: 10.250.11.100:50010 is added to blk_5659385599035446-394 size 67108864
081111 084149 24657 INFO dfs.DataNode$DataXceiver: Receiving block blk_-1733026139299872187 src: /10.251.29.239:52800 dest: /10.251.29.239:50010
081111 084149 24657 INFO dfs.DataNode$DataXceiver: Receiving block blk_9207-379316238918271 src: /10.251.29.239:52800 dest: /10.251.29.239:50010
081111 084214 24555 INFO dfs.DataNode$PacketResponder: PacketResponder 0 for block blk_-1910608563003942187 terminating
081111 084214 24555 INFO dfs.DataNode$PacketResponder: PacketResponder 0 for block blk_00199368361-78051204 terminating
081111 084228 31 INFO dfs.FSNamesystem: BLOCK* NameSystem.allocateBlock: /user/root/rand7/_temporary/_task_200811101024_0014_m_001394_0/part-01394. blk_-1101091099241306483
081111 084228 31 INFO dfs.FSNamesystem: BLOCK* NameSystem.allocateBlock: /user/root/rand7/_temporary/_task_200811101024_0014_m_001394_0/part-01394. blk_911401090132486-0913
081111 084233 24661 INFO dfs.DataNode$PacketResponder: PacketResponder 1 for block blk_7901008236334420364 terminating
081111 084233 24661 INFO dfs.DataNode$PacketResponder: PacketResponder 1 for block blk_6871640232009330443 terminating
081111 084322 29 INFO dfs.FSNamesystem: BLOCK* NameSystem.addStoredBlock: blockMap updated: 10.251.42.207:50010 is added to blk_2119401975697524206 size 67108864
081111 084322 29 INFO dfs.FSNamesystem: BLOCK* NameSystem.addStoredBlock: blockMap updated: 10.251.42.207:50010 is added to blk_2650901619275294714 size 67108864
081111 084405 24786 INFO dfs.DataNode$PacketResponder: PacketResponder 0 for block blk_6204056282927975796 terminating
081111 084405 24786 INFO dfs.DataNode$PacketResponder: PacketResponder 0 for block blk_7276209296545789206 terminating
081111 084423 24772 INFO dfs.DataNode$PacketResponder: PacketResponder 2 for block blk_215466486430758887 terminating
081111 084423 24772 INFO dfs.DataNode$PacketResponder: PacketResponder 2 for block blk_715548683826046487 terminating
081111 084619 26 INFO dfs.FSNamesystem: BLOCK* NameSystem.allocateBlock: /user/root/rand7/_temporary/_task_200811101024_0014_m_001736_0/part-01736. blk_-3055230140330616860
081111 084619 26 INFO dfs.FSNamesystem: BLOCK* NameSystem.allocateBlock: /user/root/rand7/_temporary/_task_200811101024_0014_m_001736_0/part-01736. blk_61643-35235030100086
081111 084721 33 INFO dfs.FSNamesystem: BLOCK* NameSystem.addStoredBlock: blockMap updated: 10.251.73.220:50010 is added to blk_4473390551542202999 size 67108864
081111 084721 33 INFO dfs.FSNamesystem: BLOCK* NameSystem.addStoredBlock: blockMap updated: 10.251.73.220:50010 is added to blk_9279542140054293593 size 67108864
081111 084728 31 INFO dfs.FSNamesystem: BLOCK* NameSystem.allocateBlock: /user/root/rand7/_temporary/_task_200811101024_0014_m_001649_0/part-01649. blk_-5581540863377925517
081111 084728 31 INFO dfs.FSNamesystem: BLOCK* NameSystem.allocateBlock: /user/root/rand7/_temporary/_task_200811101024_0014_m_001649_0/part-01649. blk_72337-51567158408559
081111 084732 24650 INFO dfs.DataNode$PacketResponder: Received block blk_7864850143895703065 of size 67108864 from /10.251.107.98
081111 084732 24650 INFO dfs.DataNode$PacketResponder: Received block blk_8773459063684500851 of size 67108864 from /10.251.107.98
081111 084757 31 INFO dfs.FSNamesystem: BLOCK* NameSystem.addStoredBlock: blockMap updated: 10.251.91.32:50010 is added to blk_423916008836295480 size 67108864
081111 084757 31 INFO dfs.FSNamesystem: BLOCK* NameSystem.addStoredBlock: blockMap updated: 10.251.91.32:50010 is added to blk_820412349588963060 size 67108864
081111 084759 24704 INFO dfs.DataNode$DataXceiver: Receiving block blk_2166777223671724319 src: /10.251.214.175:52741 dest: /10.251.214.175:50010
081111 084759 24704 INFO dfs.DataNode$DataXceiver: Receiving block blk_7724179276123163276 src: /10.251.214.175:52741 dest: /10.251.214.175:50010
081111 084818 25055 INFO dfs.DataNode$PacketResponder: Received block blk_4031738712701565209 of size 67108864 from /10.251.199.150
081111 084818 25055 INFO dfs.DataNode$PacketResponder: Received block blk_1761874031073252590 of size 67108864 from /10.251.199.150
081111 084831 26 INFO dfs.FSNamesystem: BLOCK* NameSystem.allocateBlock: /user/root/rand7/_temporary/_task_200811101024_0014_m_001940_0/part-01940. blk_1910319264393500537
081111 084831 26 INFO dfs.FSNamesystem: BLOCK* NameSystem.allocateBlock: /user/root/rand7/_temporary/_task_200811101024_0014_m_001940_0/part-01940. blk_4910339132106035957
081111 084842 24787 INFO dfs.DataNode$PacketResponder: Received block blk_-8789402864074203800 of size 67108864 from /10.251.193.224
081111 084842 24787 INFO dfs.DataNode$PacketResponder: Received block blk_64924370-88870200048 of size 67108864 from /10.251.193.224
081111 084906 27 INFO dfs.FSNamesystem: BLOCK* NameSystem.addStoredBlock: blockMap updated: 10.250.17.177:50010 is added to blk_5733038550092620376 size 67108864
081111 084906 27 INFO dfs.FSNamesystem: BLOCK* NameSystem.addStoredBlock: blockMap updated: 10.250.17.177:50010 is added to blk_7336597530306085202 size 67108864
081111 085059 31 INFO dfs.FSNamesystem: BLOCK* NameSystem.allocateBlock: /user/root/rand7/_temporary/_task_200811101024_0014_m_001642_0/part-01642. blk_8215843708467112607
081111 085059 31 INFO dfs.FSNamesystem: BLOCK* NameSystem.allocateBlock: /user/root/rand7/_temporary/_task_200811101024_0014_m_001642_0/part-01642. blk_0471857673148821620
081111 085146 24834 INFO dfs.DataNode$PacketResponder: Received block blk_-954856062493437881 of size 67108864 from /10.251.106.10
081111 085146 24834 INFO dfs.DataNode$PacketResponder: Received block blk_480484683-297965351 of size 67108864 from /10.251.106.10
081111 085221 24607 INFO dfs.DataNode$PacketResponder: Received block blk_241585185788373386 of size 67108864 from /10.251.111.80
081111 085221 24607 INFO dfs.DataNode$PacketResponder: Received block blk_816317853485837825 of size 67108864 from /10.251.111.80
081111 085351 24958 INFO dfs.DataNode$DataXceiver: Receiving block blk_3808164640986377400 src: /10.251.75.79:36685 dest: /10.251.75.79:50010
081111 085351 24958 INFO dfs.DataNode$DataXceiver: Receiving block blk_6707481303069404868 src: /10.251.75.79:36685 dest: /10.251.75.79:50010
081111 085429 25314 INFO dfs.DataNode$PacketResponder: Received block blk_-6719337521981113643 of size 3538321 from /10.250.15.198
081111 085429 25314 INFO dfs.DataNode$PacketResponder: Received block blk_61397181265193-34731 of size 3538321 from /10.250.15.198
081111 085432 34 INFO dfs.FSNamesystem: BLOCK* NameSystem.addStoredBlock: blockMap updated: 10.251.197.226:50010 is added to blk_-23492739449820023 size 67108864
081111 085432 34 INFO dfs.FSNamesystem: BLOCK* NameSystem.addStoredBlock: blockMap updated: 10.251.197.226:50010 is added to blk_-43282370499932204 size 67108864
081111 085502 24832 INFO dfs.DataNode$PacketResponder: PacketResponder 1 for block blk_-8969188698416564850 terminating
081111 085502 24832 INFO dfs.DataNode$PacketResponder: PacketResponder 1 for block blk_41485896988596-60618 terminating
081111 085529 24695 INFO dfs.DataNode$PacketResponder: PacketResponder 1 for block blk_-5144548163293169177 terminating
081111 085529 24695 INFO dfs.DataNode$PacketResponder: PacketResponder 1 for block blk_43165495211463-79817 terminating
081111 085620 27 INFO dfs.FSNamesystem: BLOCK* NameSystem.addStoredBlock: blockMap updated: 10.251.122.79:50010 is added to blk_-2895171018912807248 size 67108864
081111 085620 27 INFO dfs.FSNamesystem: BLOCK* NameSystem.addStoredBlock: blockMap updated: 10.251.122.79:50010 is added to blk_1950248-018898721172 size 67108864
081111 085634 24881 INFO dfs.DataNode$DataXceiver: Receiving block blk_-5892603381347650390 src: /10.250.14.143:57484 dest: /10.250.14.143:50010
081111 085634 24881 INFO dfs.DataNode$DataXceiver: Receiving block blk_09633462-10338578905 src: /10.250.14.143:57484 dest: /10.250.14.143:50010
081111 085634 30 INFO dfs.FSNamesystem: BLOCK* NameSystem.allocateBlock: /user/root/rand7/_temporary/_task_200811101024_0014_m_002007_0/part-02007. blk_7908524857056299716
081111 085634 30 INFO dfs.FSNamesystem: BLOCK* NameSystem.allocateBlock: /user/root/rand7/_temporary/_task_200811101024_0014_m_002007_0/part-02007. blk_4922010685657797598
081111 085859 30 INFO dfs.FSNamesystem: BLOCK* NameSystem.delete: blk_3492869167398569662 is added to invalidSet of 10.250.5.161:50010
081111 085859 30 INFO dfs.FSNamesystem: BLOCK* NameSystem.delete: blk_5688622997366364919 is added to invalidSet of 10.250.5.161:50010
081111 085906 27 INFO dfs.FSNamesystem: BLOCK* NameSystem.delete: blk_-3894803026385053344 is added to invalidSet of 10.251.43.21:50010
081111 085906 27 INFO dfs.FSNamesystem: BLOCK* NameSystem.delete: blk_8339828454330640-053 is added to invalidSet of 10.251.43.21:50010
081111 085906 27 INFO dfs.FSNamesystem: BLOCK* NameSystem.delete: blk_-7873581794069372986 is added to invalidSet of 10.251.194.147:50010
081111 085906 27 INFO dfs.FSNamesystem: BLOCK* NameSystem.delete: blk_9719286073-493876875 is added to invalidSet of 10.251.194.147:50010
081111 085907 27 INFO dfs.FSNamesystem: BLOCK* NameSystem.delete: blk_2060553104861908174 is added to invalidSet of 10.251.201.204:50010
081111 085907 27 INFO dfs.FSNamesystem: BLOCK* NameSystem.delete: blk_0105427043896106581 is added to invalidSet of 10.251.201.204:50010
081111 085909 27 INFO dfs.FSNamesystem: BLOCK* NameSystem.delete: blk_-6783506473540833076 is added to invalidSet of 10.251.202.209:50010
081111 085909 27 INFO dfs.FSNamesystem: BLOCK* NameSystem.delete: blk_70456068603375847-33 is added to invalidSet of 10.251.202.209:50010
081111 085910 27 INFO dfs.FSNamesystem: BLOCK* NameSystem.delete: blk_-8863130543753323383 is added to invalidSet of 10.251.123.1:50010
081111 085910 27 INFO dfs.FSNamesystem: BLOCK* NameSystem.delete: blk_05335883363331-43872 is added to invalidSet of 10.251.123.1:50010
081111 085911 27 INFO dfs.FSNamesystem: BLOCK* NameSystem.delete: blk_-8769398708439834546 is added to invalidSet of 10.251.127.243:50010
081111 085911 27 INFO dfs.FSNamesystem: BLOCK* NameSystem.delete: blk_4886334996348750987- is added to invalidSet of 10.251.127.243:50010
081111 085912 27 INFO dfs.FSNamesystem: BLOCK* NameSystem.delete: blk_-3316519570098743145 is added to invalidSet of 10.251.70.211:50010
081111 085912 27 INFO dfs.FSNamesystem: BLOCK* NameSystem.delete: blk_4705356347-199311580 is added to invalidSet of 10.251.70.211:50010
081111 085912 27 INFO dfs.FSNamesystem: BLOCK* NameSystem.delete: blk_-6068451475575444798 is added to invalidSet of 10.251.43.210:50010
081111 085912 27 INFO dfs.FSNamesystem: BLOCK* NameSystem.delete: blk_548544569-6440775187 is added to invalidSet of 10.251.43.210:50010
081111 085912 27 INFO dfs.FSNamesystem: BLOCK* NameSystem.delete: blk_-7709713535298137702 is added to invalidSet of 10.251.215.50:50010
081111 085912 27 INFO dfs.FSNamesystem: BLOCK* NameSystem.delete: blk_977733511753-7902802 is added to invalidSet of 10.251.215.50:50010
081111 085914 27 INFO dfs.FSNamesystem: BLOCK* NameSystem.delete: blk_-1030832046197982436 is added to invalidSet of 10.251.89.155:50010
081111 085914 27 INFO dfs.FSNamesystem: BLOCK* NameSystem.delete: blk_8460499687023-132031 is added to invalidSet of 10.251.89.155:50010
081111 085914 27 INFO dfs.FSNamesystem: BLOCK* NameSystem.delete: blk_4738781172941319823 is added to invalidSet of 10.251.91.32:50010
081111 085914 27 INFO dfs.FSNamesystem: BLOCK* NameSystem.delete: blk_3793922834178741118 is added to invalidSet of 10.251.91.32:50010
081111 085916 27 INFO dfs.FSNamesystem: BLOCK* NameSystem.delete: blk_2869833078504290822 is added to invalidSet of 10.251.123.132:50010
081111 085916 27 INFO dfs.FSNamesystem: BLOCK* NameSystem.delete: blk_8002285704393298628 is added to invalidSet of 10.251.123.132:50010
081111 085916 27 INFO dfs.FSNamesystem: BLOCK* NameSystem.delete: blk_-6261136177206340449 is added to invalidSet of 10.251.70.37:50010
081111 085916 27 INFO dfs.FSNamesystem: BLOCK* NameSystem.delete: blk_640631627790-4142316 is added to invalidSet of 10.251.70.37:50010
081111 085917 27 INFO dfs.FSNamesystem: BLOCK* NameSystem.delete: blk_-1755309160709170318 is added to invalidSet of 10.251.39.209:50010
081111 085917 27 INFO dfs.FSNamesystem: BLOCK* NameSystem.delete: blk_019008155707113769-3 is added to invalidSet of 10.251.39.209:50010
081111 085917 27 INFO dfs.FSNamesystem: BLOCK* NameSystem.delete: blk_-8312238797251504127 is added to invalidSet of 10.251.89.155:50010
081111 085917 27 INFO dfs.FSNamesystem: BLOCK* NameSystem.delete: blk_415873-7902123182275 is added to invalidSet of 10.251.89.155:50010
081111 085922 27 INFO dfs.FSNamesystem: BLOCK* NameSystem.delete: blk_2713941272199175167 is added to invalidSet of 10.251.38.53:50010
081111 085922 27 INFO dfs.FSNamesystem: BLOCK* NameSystem.delete: blk_1131297142797615297 is added to invalidSet of 10.251.38.53:50010
081111 085922 27 INFO dfs.FSNamesystem: BLOCK* NameSystem.delete: blk_-7846283874350947646 is added to invalidSet of 10.251.199.150:50010
081111 085922 27 INFO dfs.FSNamesystem: BLOCK* NameSystem.delete: blk_2386657449064-843877 is added to invalidSet of 10.251.199.150:50010
081111 085924 27 INFO dfs.FSNamesystem: BLOCK* NameSystem.delete: blk_-793506372912437289 is added to invalidSet of 10.250.17.225:50010
081111 085924 27 INFO dfs.FSNamesystem: BLOCK* NameSystem.delete: blk_7582971-02243396973 is added to invalidSet of 10.250.17.225:50010
081111 085926 27 INFO dfs.FSNamesystem: BLOCK* NameSystem.delete: blk_-5293091556505218722 is added to invalidSet of 10.251.125.237:50010
081111 085926 27 INFO dfs.FSNamesystem: BLOCK* NameSystem.delete: blk_212850506157953229-5 is added to invalidSet of 10.251.125.237:50010
081111 085929 27 INFO dfs.FSNamesystem: BLOCK* NameSystem.delete: blk_4516306414837452219 is added to invalidSet of 10.251.127.47:50010
081111 085929 27 INFO dfs.FSNamesystem: BLOCK* NameSystem.delete: blk_4391421267130485546 is added to invalidSet of 10.251.127.47:50010
081111 090008 19 INFO dfs.FSDataset: Deleting block blk_-8792837405349224102 file /mnt/hadoop/dfs/data/current/subdir35/blk_-8792837405349224102
081111 090008 19 INFO dfs.FSDataset: Deleting block blk_2244-508104323729789 file /mnt/hadoop/dfs/data/current/subdir35/blk_9223747513094880-224
081111 090031 19 INFO dfs.FSDataset: Deleting block blk_-8131422413299851907 file /mnt/hadoop/dfs/data/current/subdir46/blk_-8131422413299851907
081111 090031 19 INFO dfs.FSDataset: Deleting block blk_-1931417189232048295 file /mnt/hadoop/dfs/data/current/subdir46/blk_32190381752-24981914
081111 090034 24870 INFO dfs.DataNode$PacketResponder: PacketResponder 0 for block blk_-2268477281422551537 terminating
081111 090034 24870 INFO dfs.DataNode$PacketResponder: PacketResponder 0 for block blk_24622217-43125858775 terminating
081111 090056 19 INFO dfs.FSDataset: Deleting block blk_-6177194341369822651 file /mnt/hadoop/dfs/data/current/subdir38/blk_-6177194341369822651
081111 090056 19 INFO dfs.FSDataset: Deleting block blk_1943185212716473696- file /mnt/hadoop/dfs/data/current/subdir38/blk_4612338195197-627641
081111 090113 18 INFO dfs.FSDataset: Deleting block blk_1369784431092292099 file /mnt/hadoop/dfs/data/current/subdir36/blk_1369784431092292099
081111 090113 18 INFO dfs.FSDataset: Deleting block blk_1923209149799468032 file /mnt/hadoop/dfs/data/current/subdir36/blk_2291290189336404997
081111 090113 19 INFO dfs.FSDataset: Deleting block blk_-8060252929692927663 file /mnt/hadoop/dfs/data/current/subdir21/blk_-8060252929692927663
081111 090113 19 INFO dfs.FSDataset: Deleting block blk_6679936-892006225922 file /mnt/hadoop/dfs/data/current/subdir21/blk_992826369602-2057296
081111 090118 19 INFO dfs.FSDataset: Deleting block blk_-5344266425789048231 file /mnt/hadoop/dfs/data/current/subdir47/blk_-5344266425789048231
081111 090118 19 INFO dfs.FSDataset: Deleting block blk_32617-48453224895460 file /mnt/hadoop/dfs/data/current/subdir47/blk_64586431-02842354279
081111 090126 19 INFO dfs.FSDataset: Deleting block blk_-2518425063392446785 file /mnt/hadoop/dfs/data/current/subdir6/blk_-2518425063392446785
081111 090126 19 INFO dfs.FSDataset: Deleting block blk_35632-25819670824454 file /mnt/hadoop/dfs/data/current/subdir6/blk_02854364368172945-25
081111 090129 19 INFO dfs.FSDataset: Deleting block blk_-5598693099021996971 file /mnt/hadoop/dfs/data/current/subdir19/blk_-5598693099021996971
081111 090129 19 INFO dfs.FSDataset: Deleting block blk_99603958709119659-92 file /mnt/hadoop/dfs/data/current/subdir19/blk_152-0371899059966999
081111 090131 19 INFO dfs.FSDataset: Deleting block blk_901963876338651405 file /mnt/hadoop/dfs/data/current/subdir1/blk_901963876338651405
081111 090131 19 INFO dfs.FSDataset: Deleting block blk_835616714563080993 file /mnt/hadoop/dfs/data/current/subdir1/blk_078053158931663964
081111 090136 19 INFO dfs.FSDataset: Deleting block blk_-2722768686407017386 file /mnt/hadoop/dfs/data/current/subdir36/blk_-2722768686407017386
081111 090136 19 INFO dfs.FSDataset: Deleting block blk_7-668208782710632674 file /mnt/hadoop/dfs/data/current/subdir36/blk_2-470163807667862287
081111 090138 19 INFO dfs.FSDataset: Deleting block blk_92946806844541836 file /mnt/hadoop/dfs/data/current/subdir59/blk_92946806844541836
081111 090138 19 INFO dfs.FSDataset: Deleting block blk_06948664341898524 file /mnt/hadoop/dfs/data/current/subdir59/blk_93248684681904564
081111 090139 19 INFO dfs.FSDataset: Deleting block blk_1824928871191121429 file /mnt/hadoop/dfs/data/current/subdir2/blk_1824928871191121429
081111 090139 19 INFO dfs.FSDataset: Deleting block blk_9199178841412221281 file /mnt/hadoop/dfs/data/current/subdir2/blk_1229471811912481298
081111 090140 18 INFO dfs.FSDataset: Deleting block blk_-4301178988618507084 file /mnt/hadoop/dfs/data/current/subdir46/blk_-4301178988618507084
081111 090140 18 INFO dfs.FSDataset: Deleting block blk_7808130741985886-401 file /mnt/hadoop/dfs/data/current/subdir46/blk_151970068483087184-8
081111 090140 19 INFO dfs.FSDataset: Deleting block blk_-2098161025946048013 file /mnt/hadoop/dfs/data/current/subdir17/blk_-2098161025946048013
081111 090140 19 INFO dfs.FSDataset: Deleting block blk_0889429453020-161610 file /mnt/hadoop/dfs/data/current/subdir17/blk_00298923658161-04104
081111 090149 19 INFO dfs.FSDataset: Deleting block blk_-1451819169209310732 file /mnt/hadoop/dfs/data/current/subdir23/blk_-1451819169209310732
081111 090149 19 INFO dfs.FSDataset: Deleting block blk_111035194-2302969178 file /mnt/hadoop/dfs/data/current/subdir23/blk_-1123590136998121740
081111 090150 19 INFO dfs.FSDataset: Deleting block blk_2403370969415186087 file /mnt/hadoop/dfs/data/current/subdir6/blk_2403370969415186087
081111 090150 19 INFO dfs.FSDataset: Deleting block blk_4058976463193800271 file /mnt/hadoop/dfs/data/current/subdir6/blk_9964043360817501872
081111 090154 19 INFO dfs.FSDataset: Deleting block blk_5701964561533648583 file /mnt/hadoop/dfs/data/current/subdir10/blk_5701964561533648583
081111 090154 19 INFO dfs.FSDataset: Deleting block blk_3968445385155107636 file /mnt/hadoop/dfs/data/current/subdir10/blk_6184541353876036595
081111 090159 19 INFO dfs.FSDataset: Deleting block blk_4007982883396598426 file /mnt/hadoop/dfs/data/current/subdir13/blk_4007982883396598426
081111 090159 19 INFO dfs.FSDataset: Deleting block blk_4088698954896337202 file /mnt/hadoop/dfs/data/current/subdir13/blk_7034245830868982699
081111 090207 27 INFO dfs.FSNamesystem: BLOCK* NameSystem.addStoredBlock: blockMap updated: 10.251.197.161:50010 is added to blk_-3724350946705225881 size 67108864
081111 090207 27 INFO dfs.FSNamesystem: BLOCK* NameSystem.addStoredBlock: blockMap updated: 10.251.197.161:50010 is added to blk_407658243-9258312075 size 67108864
081111 090208 19 INFO dfs.FSDataset: Deleting block blk_6051144263842600010 file /mnt/hadoop/dfs/data/current/subdir42/blk_6051144263842600010
081111 090208 19 INFO dfs.FSDataset: Deleting block blk_6254401182100366040 file /mnt/hadoop/dfs/data/current/subdir42/blk_0016612360400854412
081111 090223 19 INFO dfs.FSDataset: Deleting block blk_8436095180790908547 file /mnt/hadoop/dfs/data/current/subdir43/blk_8436095180790908547
081111 090223 19 INFO dfs.FSDataset: Deleting block blk_5139704086098574908 file /mnt/hadoop/dfs/data/current/subdir43/blk_9588309087075094146
081111 090229 18 INFO dfs.FSDataset: Deleting block blk_5100975846124291571 file /mnt/hadoop/dfs/data/current/subdir38/blk_5100975846124291571
081111 090229 18 INFO dfs.FSDataset: Deleting block blk_1618471742505991520 file /mnt/hadoop/dfs/data/current/subdir38/blk_1515952871210906744
081111 090246 19 INFO dfs.FSDataset: Deleting block blk_-4941547144875557718 file /mnt/hadoop/dfs/data/current/subdir61/blk_-4941547144875557718
081111 090246 19 INFO dfs.FSDataset: Deleting block blk_8444777159-714555184 file /mnt/hadoop/dfs/data/current/subdir61/blk_758-7158414577441954
081111 090339 24904 INFO dfs.DataNode$PacketResponder: PacketResponder 2 for block blk_6791628131402590260 terminating
081111 090339 24904 INFO dfs.DataNode$PacketResponder: PacketResponder 2 for block blk_1600546260992728113 terminating
081111 090816 31 INFO dfs.FSNamesystem: BLOCK* NameSystem.addStoredBlock: blockMap updated: 10.251.107.196:50010 is added to blk_-6308508598639278892 size 67108864
081111 090816 31 INFO dfs.FSNamesystem: BLOCK* NameSystem.addStoredBlock: blockMap updated: 10.251.107.196:50010 is added to blk_23008-98885638769925 size 67108864
081111 090818 25109 INFO dfs.DataNode$DataXceiver: Receiving block blk_6585429064641693815 src: /10.250.10.6:38158 dest: /10.250.10.6:50010
081111 090818 25109 INFO dfs.DataNode$DataXceiver: Receiving block blk_5259656863860441914 src: /10.250.10.6:38158 dest: /10.250.10.6:50010
081111 091002 25162 INFO dfs.DataNode$PacketResponder: Received block blk_6000837850922531821 of size 67108864 from /10.251.197.226
081111 091002 25162 INFO dfs.DataNode$PacketResponder: Received block blk_1702023182985008563 of size 67108864 from /10.251.197.226
081111 091027 25209 INFO dfs.DataNode$PacketResponder: Received block blk_7330803663603700184 of size 67108864 from /10.251.42.246
081111 091027 25209 INFO dfs.DataNode$PacketResponder: Received block blk_7381333300660870640 of size 67108864 from /10.251.42.246
081111 091200 27 INFO dfs.FSNamesystem: BLOCK* NameSystem.allocateBlock: /user/root/rand8/_temporary/_task_200811101024_0015_m_000480_0/part-00480. blk_-5613694521084380933
081111 091200 27 INFO dfs.FSNamesystem: BLOCK* NameSystem.allocateBlock: /user/root/rand8/_temporary/_task_200811101024_0015_m_000480_0/part-00480. blk_8853440519369-602313
081111 091244 19683 INFO dfs.DataNode$DataXceiver: Receiving block blk_-4967783186426171722 src: /10.251.39.192:57105 dest: /10.251.39.192:50010
081111 091244 19683 INFO dfs.DataNode$DataXceiver: Receiving block blk_89471174232667-67182 src: /10.251.39.192:57105 dest: /10.251.39.192:50010
081111 091317 31 INFO dfs.FSNamesystem: BLOCK* NameSystem.addStoredBlock: blockMap updated: 10.250.11.100:50010 is added to blk_-1970947032352756307 size 67108864
081111 091317 31 INFO dfs.FSNamesystem: BLOCK* NameSystem.addStoredBlock: blockMap updated: 10.250.11.100:50010 is added to blk_76-22477530793510309 size 67108864
081111 091351 32 INFO dfs.FSNamesystem: BLOCK* NameSystem.allocateBlock: /user/root/rand8/_temporary/_task_200811101024_0015_m_000737_0/part-00737. blk_5894088883762961800
081111 091351 32 INFO dfs.FSNamesystem: BLOCK* NameSystem.allocateBlock: /user/root/rand8/_temporary/_task_200811101024_0015_m_000737_0/part-00737. blk_7819240808863906588
081111 091439 25116 INFO dfs.DataNode$DataXceiver: Receiving block blk_-4861262918414696307 src: /10.251.198.196:34168 dest: /10.251.198.196:50010
081111 091439 25116 INFO dfs.DataNode$DataXceiver: Receiving block blk_21901642486-69364781 src: /10.251.198.196:34168 dest: /10.251.198.196:50010
081111 091555 25051 INFO dfs.DataNode$DataXceiver: Receiving block blk_2583600095045026513 src: /10.250.15.67:59629 dest: /10.250.15.67:50010
081111 091555 25051 INFO dfs.DataNode$DataXceiver: Receiving block blk_5556600958001223403 src: /10.250.15.67:59629 dest: /10.250.15.67:50010
081111 091647 25353 INFO dfs.DataNode$PacketResponder: Received block blk_7872746846750105239 of size 67108864 from /10.251.43.21
081111 091647 25353 INFO dfs.DataNode$PacketResponder: Received block blk_6271769570478402385 of size 67108864 from /10.251.43.21
081111 091728 33 INFO dfs.FSNamesystem: BLOCK* NameSystem.addStoredBlock: blockMap updated: 10.251.39.160:50010 is added to blk_-3510473878877779134 size 67108864
081111 091728 33 INFO dfs.FSNamesystem: BLOCK* NameSystem.addStoredBlock: blockMap updated: 10.251.39.160:50010 is added to blk_51-38748043777789173 size 67108864
081111 091733 19 INFO dfs.FSNamesystem: BLOCK* ask 10.251.126.5:50010 to delete  blk_-9016567407076718172 blk_-8695715290502978219 blk_-7168328752988473716 blk_-4355192005224403537 blk_-3757501769775889193 blk_-154600013573668394 blk_167132135416677587 blk_2654596473569751784 blk_5202581916713319258
081111 091733 19 INFO dfs.FSNamesystem: BLOCK* ask 10.251.126.5:50010 to delete  blk_72-78761901461670075 blk_95689981229775201-50 blk_-8778812737864391256 blk_54-50523142205739403 blk_791985956170-3778573 blk_34415390163-6006758 blk_271718375671163654 blk_7975255639576144684 blk_8515523712906218391
081111 091742 19 INFO dfs.FSDataset: Deleting block blk_-2808875502459981198 file /mnt/hadoop/dfs/data/current/subdir3/blk_-2808875502459981198
081111 091742 19 INFO dfs.FSDataset: Deleting block blk_719958980-5282185804 file /mnt/hadoop/dfs/data/current/subdir3/blk_85095148012-27889958
081111 091837 24935 INFO dfs.DataNode$PacketResponder: PacketResponder 0 for block blk_34905976850091068 terminating
081111 091837 24935 INFO dfs.DataNode$PacketResponder: PacketResponder 0 for block blk_09697518600589043 terminating
081111 092003 25315 INFO dfs.DataNode$PacketResponder: Received block blk_4774383661473695119 of size 67108864 from /10.251.110.68
081111 092003 25315 INFO dfs.DataNode$PacketResponder: Received block blk_9434415337716176968 of size 67108864 from /10.251.110.68
081111 092023 25367 INFO dfs.DataNode$DataXceiver: Receiving block blk_465845235850106928 src: /10.251.70.112:39499 dest: /10.251.70.112:50010
081111 092023 25367 INFO dfs.DataNode$DataXceiver: Receiving block blk_190045623456552888 src: /10.251.70.112:39499 dest: /10.251.70.112:50010
081111 092213 25595 INFO dfs.DataNode$PacketResponder: PacketResponder 1 for block blk_8882415653769775762 terminating
081111 092213 25595 INFO dfs.DataNode$PacketResponder: PacketResponder 1 for block blk_6577476852961358827 terminating
081111 092239 25403 INFO dfs.DataNode$PacketResponder: PacketResponder 2 for block blk_4207359722112667226 terminating
081111 092239 25403 INFO dfs.DataNode$PacketResponder: PacketResponder 2 for block blk_2692517027123246672 terminating
081111 092311 35 INFO dfs.FSNamesystem: BLOCK* NameSystem.allocateBlock: /user/root/rand8/_temporary/_task_200811101024_0015_m_000882_0/part-00882. blk_-3152434225121092058
081111 092311 35 INFO dfs.FSNamesystem: BLOCK* NameSystem.allocateBlock: /user/root/rand8/_temporary/_task_200811101024_0015_m_000882_0/part-00882. blk_522192250215434308-1
081111 092425 25331 INFO dfs.DataNode$DataXceiver: Receiving block blk_4820650745157199554 src: /10.251.127.243:49726 dest: /10.251.127.243:50010
081111 092425 25331 INFO dfs.DataNode$DataXceiver: Receiving block blk_8504459901776455251 src: /10.251.127.243:49726 dest: /10.251.127.243:50010
081111 092436 29 INFO dfs.FSNamesystem: BLOCK* NameSystem.addStoredBlock: blockMap updated: 10.250.6.223:50010 is added to blk_-6390296685077811803 size 3546314
081111 092436 29 INFO dfs.FSNamesystem: BLOCK* NameSystem.addStoredBlock: blockMap updated: 10.250.6.223:50010 is added to blk_356918-0010796673882 size 3546314
081111 092617 19 INFO dfs.FSDataset: Deleting block blk_9173199815015538212 file /mnt/hadoop/dfs/data/current/subdir24/blk_9173199815015538212
081111 092617 19 INFO dfs.FSDataset: Deleting block blk_1092585123799181513 file /mnt/hadoop/dfs/data/current/subdir24/blk_1158573199819102532
081111 092649 28 INFO dfs.FSNamesystem: BLOCK* NameSystem.allocateBlock: /user/root/rand8/_temporary/_task_200811101024_0015_m_001033_0/part-01033. blk_-8948316319329891645
081111 092649 28 INFO dfs.FSNamesystem: BLOCK* NameSystem.allocateBlock: /user/root/rand8/_temporary/_task_200811101024_0015_m_001033_0/part-01033. blk_95-83193196829483614
081111 092720 27 INFO dfs.FSNamesystem: BLOCK* NameSystem.addStoredBlock: blockMap updated: 10.251.42.207:50010 is added to blk_-6314365697827006048 size 67108864
081111 092720 27 INFO dfs.FSNamesystem: BLOCK* NameSystem.addStoredBlock: blockMap updated: 10.251.42.207:50010 is added to blk_7038-693012564784066 size 67108864
081111 092751 28 INFO dfs.FSNamesystem: BLOCK* NameSystem.allocateBlock: /user/root/rand8/_temporary/_task_200811101024_0015_m_000939_0/part-00939. blk_-3522956055443924791
081111 092751 28 INFO dfs.FSNamesystem: BLOCK* NameSystem.allocateBlock: /user/root/rand8/_temporary/_task_200811101024_0015_m_000939_0/part-00939. blk_53743695051242-99524
081111 092821 25409 INFO dfs.DataNode$PacketResponder: PacketResponder 2 for block blk_5454423648092670683 terminating
081111 092821 25409 INFO dfs.DataNode$PacketResponder: PacketResponder 2 for block blk_6204597654884362304 terminating
081111 092915 25283 INFO dfs.DataNode$PacketResponder: PacketResponder 1 for block blk_4565822428702518889 terminating
081111 092915 25283 INFO dfs.DataNode$PacketResponder: PacketResponder 1 for block blk_2458826848025127859 terminating
081111 093026 34 INFO dfs.FSNamesystem: BLOCK* NameSystem.addStoredBlock: blockMap updated: 10.251.29.239:50010 is added to blk_-409558225151784282 size 67108864
081111 093026 34 INFO dfs.FSNamesystem: BLOCK* NameSystem.addStoredBlock: blockMap updated: 10.251.29.239:50010 is added to blk_845282781590-122455 size 67108864
081111 093208 25332 INFO dfs.DataNode$PacketResponder: PacketResponder 1 for block blk_-3967261531426400230 terminating
081111 093208 25332 INFO dfs.DataNode$PacketResponder: PacketResponder 1 for block blk_-1026640335762032491 terminating
081111 093316 25596 INFO dfs.DataNode$DataXceiver: Receiving block blk_-4655280636272058732 src: /10.251.26.8:48892 dest: /10.251.26.8:50010
081111 093316 25596 INFO dfs.DataNode$DataXceiver: Receiving block blk_620655237243068257-8 src: /10.251.26.8:48892 dest: /10.251.26.8:50010
081111 093350 25537 INFO dfs.DataNode$PacketResponder: PacketResponder 2 for block blk_-5799866343936729403 terminating
081111 093350 25537 INFO dfs.DataNode$PacketResponder: PacketResponder 2 for block blk_7899036-967353934264 terminating
081111 093407 35 INFO dfs.FSNamesystem: BLOCK* NameSystem.allocateBlock: /user/root/rand8/_temporary/_task_200811101024_0015_m_001294_0/part-01294. blk_4214952053910973364
081111 093407 35 INFO dfs.FSNamesystem: BLOCK* NameSystem.allocateBlock: /user/root/rand8/_temporary/_task_200811101024_0015_m_001294_0/part-01294. blk_5731294423940103569
081111 093429 25813 INFO dfs.DataNode$DataXceiver: Receiving block blk_-6135061626100136978 src: /10.251.31.180:48900 dest: /10.251.31.180:50010
081111 093429 25813 INFO dfs.DataNode$DataXceiver: Receiving block blk_90007163683126511-66 src: /10.251.31.180:48900 dest: /10.251.31.180:50010
081111 093513 25793 INFO dfs.DataNode$DataXceiver: Receiving block blk_-5057534532247887258 src: /10.250.5.237:45766 dest: /10.250.5.237:50010
081111 093513 25793 INFO dfs.DataNode$DataXceiver: Receiving block blk_5273528552478-530487 src: /10.250.5.237:45766 dest: /10.250.5.237:50010
081111 093550 25550 INFO dfs.DataNode$PacketResponder: Received block blk_9103049989653819836 of size 67108864 from /10.250.10.223
081111 093550 25550 INFO dfs.DataNode$PacketResponder: Received block blk_1833304999580916986 of size 67108864 from /10.250.10.223
081111 093657 25789 INFO dfs.DataNode$DataXceiver: Receiving block blk_-4365612131648152536 src: /10.251.107.227:57736 dest: /10.251.107.227:50010
081111 093657 25789 INFO dfs.DataNode$DataXceiver: Receiving block blk_3655614115823623-461 src: /10.251.107.227:57736 dest: /10.251.107.227:50010
081111 093701 24237 INFO dfs.DataNode$DataXceiver: Receiving block blk_3598226258881465924 src: /10.251.199.159:41752 dest: /10.251.199.159:50010
081111 093701 24237 INFO dfs.DataNode$DataXceiver: Receiving block blk_8894842563255622891 src: /10.251.199.159:41752 dest: /10.251.199.159:50010
081111 093703 25622 INFO dfs.DataNode$PacketResponder: PacketResponder 0 for block blk_3378157549705391333 terminating
081111 093703 25622 INFO dfs.DataNode$PacketResponder: PacketResponder 0 for block blk_8343773937931351055 terminating
081111 093742 13 INFO dfs.DataBlockScanner: Verification succeeded for blk_-8347949825960763812
081111 093742 13 INFO dfs.DataBlockScanner: Verification succeeded for blk_430582197823979864-6
081111 093814 25929 INFO dfs.DataNode$PacketResponder: Received block blk_-2934265883100282310 of size 67108864 from /10.251.39.144
081111 093814 25929 INFO dfs.DataNode$PacketResponder: Received block blk_02198183406052-83232 of size 67108864 from /10.251.39.144
081111 093823 25642 INFO dfs.DataNode$PacketResponder: PacketResponder 2 for block blk_1259893634804870815 terminating
081111 093823 25642 INFO dfs.DataNode$PacketResponder: PacketResponder 2 for block blk_7083948598315610824 terminating
081111 093913 25312 INFO dfs.DataNode$PacketResponder: PacketResponder 2 for block blk_412956398445037066 terminating
081111 093913 25312 INFO dfs.DataNode$PacketResponder: PacketResponder 2 for block blk_314667049320548659 terminating
081111 093952 25849 INFO dfs.DataNode$PacketResponder: Received block blk_-9167880724995702718 of size 67108864 from /10.251.214.225
081111 093952 25849 INFO dfs.DataNode$PacketResponder: Received block blk_82784895760719-29071 of size 67108864 from /10.251.214.225
081111 094008 26005 INFO dfs.DataNode$DataXceiver: Receiving block blk_-7764040409370932316 src: /10.251.125.237:58496 dest: /10.251.125.237:50010
081111 094008 26005 INFO dfs.DataNode$DataXceiver: Receiving block blk_743643390971-0206074 src: /10.251.125.237:58496 dest: /10.251.125.237:50010
081111 094052 25242 INFO dfs.DataNode$DataXceiver: Receiving block blk_931297048899943584 src: /10.251.67.113:54324 dest: /10.251.67.113:50010
081111 094052 25242 INFO dfs.DataNode$DataXceiver: Receiving block blk_415949988974280339 src: /10.251.67.113:54324 dest: /10.251.67.113:50010
081111 094221 25770 INFO dfs.DataNode$PacketResponder: PacketResponder 2 for block blk_2833019093942278701 terminating
081111 094221 25770 INFO dfs.DataNode$PacketResponder: PacketResponder 2 for block blk_0282397924138701093 terminating
081111 094319 25340 INFO dfs.DataNode$PacketResponder: Received block blk_-5785220384376578831 of size 67108864 from /10.251.203.80
081111 094319 25340 INFO dfs.DataNode$PacketResponder: Received block blk_81738-36082354275875 of size 67108864 from /10.251.203.80
081111 094331 26028 INFO dfs.DataNode$PacketResponder: Received block blk_3386670145292909259 of size 67108864 from /10.251.110.68
081111 094331 26028 INFO dfs.DataNode$PacketResponder: Received block blk_4080996293796512235 of size 67108864 from /10.251.110.68
081111 094415 25901 INFO dfs.DataNode$DataXceiver: Receiving block blk_1859772752119590543 src: /10.251.42.246:57741 dest: /10.251.42.246:50010
081111 094415 25901 INFO dfs.DataNode$DataXceiver: Receiving block blk_3557197790218215945 src: /10.251.42.246:57741 dest: /10.251.42.246:50010
081111 094439 32 INFO dfs.FSNamesystem: BLOCK* NameSystem.allocateBlock: /user/root/rand8/_temporary/_task_200811101024_0015_m_001425_0/part-01425. blk_2630223487595425525
081111 094439 32 INFO dfs.FSNamesystem: BLOCK* NameSystem.allocateBlock: /user/root/rand8/_temporary/_task_200811101024_0015_m_001425_0/part-01425. blk_2526493875352052254
081111 094633 25926 INFO dfs.DataNode$PacketResponder: Received block blk_-5385105076403314787 of size 67108864 from /10.251.42.9
081111 094633 25926 INFO dfs.DataNode$PacketResponder: Received block blk_15-57368134507378004 of size 67108864 from /10.251.42.9
081111 094713 29 INFO dfs.FSNamesystem: BLOCK* NameSystem.allocateBlock: /user/root/rand8/_temporary/_task_200811101024_0015_m_001757_0/part-01757. blk_-5343533992609553091
081111 094713 29 INFO dfs.FSNamesystem: BLOCK* NameSystem.allocateBlock: /user/root/rand8/_temporary/_task_200811101024_0015_m_001757_0/part-01757. blk_19423960955-53350339
081111 094825 35 INFO dfs.FSNamesystem: BLOCK* NameSystem.allocateBlock: /user/root/rand8/_temporary/_task_200811101024_0015_m_001473_0/part-01473. blk_-4390972361898978900
081111 094825 35 INFO dfs.FSNamesystem: BLOCK* NameSystem.allocateBlock: /user/root/rand8/_temporary/_task_200811101024_0015_m_001473_0/part-01473. blk_80298999417730-08963
081111 094832 26039 INFO dfs.DataNode$PacketResponder: Received block blk_1190791818440776717 of size 67108864 from /10.251.43.147
081111 094832 26039 INFO dfs.DataNode$PacketResponder: Received block blk_1178791704687971014 of size 67108864 from /10.251.43.147
081111 094918 25951 INFO dfs.DataNode$PacketResponder: Received block blk_-7202857144668308473 of size 67108864 from /10.251.43.21
081111 094918 25951 INFO dfs.DataNode$PacketResponder: Received block blk_8613082-654034778472 of size 67108864 from /10.251.43.21
081111 094921 25993 INFO dfs.DataNode$DataXceiver: Receiving block blk_5565611615515783341 src: /10.251.126.5:35656 dest: /10.251.126.5:50010
081111 094921 25993 INFO dfs.DataNode$DataXceiver: Receiving block blk_3651554565138651171 src: /10.251.126.5:35656 dest: /10.251.126.5:50010
081111 094930 26178 INFO dfs.DataNode$PacketResponder: Received block blk_-3283153974358895314 of size 67108864 from /10.251.111.228
081111 094930 26178 INFO dfs.DataNode$PacketResponder: Received block blk_843993552153881-7433 of size 67108864 from /10.251.111.228
081111 094936 25537 INFO dfs.DataNode$PacketResponder: PacketResponder 1 for block blk_-1484647023667047838 terminating
081111 094936 25537 INFO dfs.DataNode$PacketResponder: PacketResponder 1 for block blk_86123384-48067467074 terminating
081111 094939 29 INFO dfs.FSNamesystem: BLOCK* NameSystem.addStoredBlock: blockMap updated: 10.250.6.223:50010 is added to blk_7474737521119026445 size 67108864
081111 094939 29 INFO dfs.FSNamesystem: BLOCK* NameSystem.addStoredBlock: blockMap updated: 10.250.6.223:50010 is added to blk_7124564739047114752 size 67108864
081111 095020 25962 INFO dfs.DataNode$DataXceiver: Receiving block blk_-8571819028995448536 src: /10.251.197.226:34801 dest: /10.251.197.226:50010
081111 095020 25962 INFO dfs.DataNode$DataXceiver: Receiving block blk_0178246491538-958859 src: /10.251.197.226:34801 dest: /10.251.197.226:50010
081111 095035 28 INFO dfs.FSNamesystem: BLOCK* NameSystem.addStoredBlock: blockMap updated: 10.251.214.67:50010 is added to blk_-8428590803682810851 size 67108864
081111 095035 28 INFO dfs.FSNamesystem: BLOCK* NameSystem.addStoredBlock: blockMap updated: 10.251.214.67:50010 is added to blk_8188-088955132802460 size 67108864
081111 095039 35 INFO dfs.FSNamesystem: BLOCK* NameSystem.allocateBlock: /user/root/rand8/_temporary/_task_200811101024_0015_m_001860_0/part-01860. blk_8716294289715825928
081111 095039 35 INFO dfs.FSNamesystem: BLOCK* NameSystem.allocateBlock: /user/root/rand8/_temporary/_task_200811101024_0015_m_001860_0/part-01860. blk_2799885291521842876
081111 095238 28 INFO dfs.FSNamesystem: BLOCK* NameSystem.addStoredBlock: blockMap updated: 10.251.123.132:50010 is added to blk_8527475857502481768 size 67108864
081111 095238 28 INFO dfs.FSNamesystem: BLOCK* NameSystem.addStoredBlock: blockMap updated: 10.251.123.132:50010 is added to blk_2808747748155628557 size 67108864
081111 095309 26010 INFO dfs.DataNode$PacketResponder: PacketResponder 0 for block blk_406835586147450451 terminating
081111 095309 26010 INFO dfs.DataNode$PacketResponder: PacketResponder 0 for block blk_584867634015505414 terminating
081111 095434 26090 INFO dfs.DataNode$PacketResponder: Received block blk_7294821275446427348 of size 67108864 from /10.251.43.210
081111 095434 26090 INFO dfs.DataNode$PacketResponder: Received block blk_4443822614277795284 of size 67108864 from /10.251.43.210
081111 095535 28 INFO dfs.FSNamesystem: BLOCK* NameSystem.addStoredBlock: blockMap updated: 10.251.127.243:50010 is added to blk_1793140687921032046 size 67108864
081111 095535 28 INFO dfs.FSNamesystem: BLOCK* NameSystem.addStoredBlock: blockMap updated: 10.251.127.243:50010 is added to blk_1299873466710310402 size 67108864
081111 095618 33 INFO dfs.FSNamesystem: BLOCK* NameSystem.addStoredBlock: blockMap updated: 10.251.126.5:50010 is added to blk_4361294871479973840 size 67108864
081111 095618 33 INFO dfs.FSNamesystem: BLOCK* NameSystem.addStoredBlock: blockMap updated: 10.251.126.5:50010 is added to blk_9047348197967482134 size 67108864
081111 095632 31 INFO dfs.FSNamesystem: BLOCK* NameSystem.addStoredBlock: blockMap updated: 10.250.6.4:50010 is added to blk_-6945615463687647586 size 67108864
081111 095632 31 INFO dfs.FSNamesystem: BLOCK* NameSystem.addStoredBlock: blockMap updated: 10.250.6.4:50010 is added to blk_7516674495368-546866 size 67108864
081111 095636 26319 INFO dfs.DataNode$PacketResponder: PacketResponder 1 for block blk_1216611589160220108 terminating
081111 095636 26319 INFO dfs.DataNode$PacketResponder: PacketResponder 1 for block blk_8015161022129611086 terminating
081111 095653 25890 INFO dfs.DataNode$DataXceiver: Receiving block blk_-3265479347842446682 src: /10.250.14.224:47278 dest: /10.250.14.224:50010
081111 095653 25890 INFO dfs.DataNode$DataXceiver: Receiving block blk_64972344568262374-84 src: /10.250.14.224:47278 dest: /10.250.14.224:50010
081111 095702 30 INFO dfs.FSNamesystem: BLOCK* NameSystem.addStoredBlock: blockMap updated: 10.250.10.6:50010 is added to blk_8527562124953828227 size 67108864
081111 095702 30 INFO dfs.FSNamesystem: BLOCK* NameSystem.addStoredBlock: blockMap updated: 10.250.10.6:50010 is added to blk_2147272529253588268 size 67108864
081111 095726 32 INFO dfs.FSNamesystem: BLOCK* NameSystem.addStoredBlock: blockMap updated: 10.251.30.134:50010 is added to blk_2749066163012162435 size 67108864
081111 095726 32 INFO dfs.FSNamesystem: BLOCK* NameSystem.addStoredBlock: blockMap updated: 10.251.30.134:50010 is added to blk_2230667164329614105 size 67108864
081111 095733 32 INFO dfs.FSNamesystem: BLOCK* NameSystem.addStoredBlock: blockMap updated: 10.251.111.228:50010 is added to blk_-1305222006484630743 size 67108864
081111 095733 32 INFO dfs.FSNamesystem: BLOCK* NameSystem.addStoredBlock: blockMap updated: 10.251.111.228:50010 is added to blk_032060350-1374422648 size 67108864
081111 095813 26362 INFO dfs.DataNode$PacketResponder: Received block blk_-3702595599317472079 of size 67108864 from /10.251.25.237
081111 095813 26362 INFO dfs.DataNode$PacketResponder: Received block blk_43527539709-19072975 of size 67108864 from /10.251.25.237
081111 095840 26225 INFO dfs.DataNode$PacketResponder: Received block blk_6446927133528675675 of size 67108864 from /10.251.39.209
081111 095840 26225 INFO dfs.DataNode$PacketResponder: Received block blk_2779348356146572656 of size 67108864 from /10.251.39.209
081111 095844 30 INFO dfs.FSNamesystem: BLOCK* NameSystem.addStoredBlock: blockMap updated: 10.251.215.192:50010 is added to blk_2015610615789582788 size 67108864
081111 095844 30 INFO dfs.FSNamesystem: BLOCK* NameSystem.addStoredBlock: blockMap updated: 10.251.215.192:50010 is added to blk_8680976821102518557 size 67108864
081111 095957 26 INFO dfs.FSNamesystem: BLOCK* NameSystem.addStoredBlock: blockMap updated: 10.251.75.49:50010 is added to blk_-2959268996938658555 size 15715490
081111 095957 26 INFO dfs.FSNamesystem: BLOCK* NameSystem.addStoredBlock: blockMap updated: 10.251.75.49:50010 is added to blk_6995658532826995859- size 15715490
081111 100210 19 INFO dfs.FSDataset: Deleting block blk_-1082541280306680938 file /mnt/hadoop/dfs/data/current/subdir38/blk_-1082541280306680938
081111 100210 19 INFO dfs.FSDataset: Deleting block blk_3810850288294601603- file /mnt/hadoop/dfs/data/current/subdir38/blk_88168089314006-22305
081111 100223 26181 INFO dfs.DataNode$PacketResponder: PacketResponder 1 for block blk_-191333338640084691 terminating
081111 100223 26181 INFO dfs.DataNode$PacketResponder: PacketResponder 1 for block blk_-613630394083914381 terminating
081111 100226 26261 INFO dfs.DataNode$DataXceiver: Receiving block blk_3972778210951456006 src: /10.251.121.224:56526 dest: /10.251.121.224:50010
081111 100226 26261 INFO dfs.DataNode$DataXceiver: Receiving block blk_0528195714030796276 src: /10.251.121.224:56526 dest: /10.251.121.224:50010
081111 100245 26152 INFO dfs.DataNode$PacketResponder: PacketResponder 0 for block blk_1408672604432845193 terminating
081111 100245 26152 INFO dfs.DataNode$PacketResponder: PacketResponder 0 for block blk_3687212380454106944 terminating
081111 100323 14118 INFO dfs.DataNode$PacketResponder: Received block blk_7679838117000095334 of size 67108864 from /10.251.30.85
081111 100323 14118 INFO dfs.DataNode$PacketResponder: Received block blk_0930708361391470758 of size 67108864 from /10.251.30.85
081111 100350 32 INFO dfs.FSNamesystem: BLOCK* NameSystem.addStoredBlock: blockMap updated: 10.250.13.240:50010 is added to blk_2593937801738981947 size 67108864
081111 100350 32 INFO dfs.FSNamesystem: BLOCK* NameSystem.addStoredBlock: blockMap updated: 10.250.13.240:50010 is added to blk_7099779811325398483 size 67108864
081111 100414 35 INFO dfs.FSNamesystem: BLOCK* NameSystem.addStoredBlock: blockMap updated: 10.251.71.193:50010 is added to blk_5489815612272797790 size 67108864
081111 100414 35 INFO dfs.FSNamesystem: BLOCK* NameSystem.addStoredBlock: blockMap updated: 10.251.71.193:50010 is added to blk_9775497225182896107 size 67108864
081111 100417 30 INFO dfs.FSNamesystem: BLOCK* NameSystem.addStoredBlock: blockMap updated: 10.251.30.101:50010 is added to blk_6451403582950672007 size 67108864
081111 100417 30 INFO dfs.FSNamesystem: BLOCK* NameSystem.addStoredBlock: blockMap updated: 10.251.30.101:50010 is added to blk_0352096575270468140 size 67108864
081111 100646 26268 INFO dfs.DataNode$DataXceiver: Receiving block blk_-7048088870427586736 src: /10.250.10.100:56512 dest: /10.250.10.100:50010
081111 100646 26268 INFO dfs.DataNode$DataXceiver: Receiving block blk_7088680776578-240834 src: /10.250.10.100:56512 dest: /10.250.10.100:50010
081111 100729 26320 INFO dfs.DataNode$PacketResponder: Received block blk_7589872946955471867 of size 67108864 from /10.251.195.70
081111 100729 26320 INFO dfs.DataNode$PacketResponder: Received block blk_5884778567542991697 of size 67108864 from /10.251.195.70
081111 100752 26527 INFO dfs.DataNode$DataXceiver: Receiving block blk_-178934379749864379 src: /10.251.71.97:55517 dest: /10.251.71.97:50010
081111 100752 26527 INFO dfs.DataNode$DataXceiver: Receiving block blk_6344143793978797-98 src: /10.251.71.97:55517 dest: /10.251.71.97:50010
081111 100820 26329 INFO dfs.DataNode$PacketResponder: PacketResponder 0 for block blk_2026200052147887341 terminating
081111 100820 26329 INFO dfs.DataNode$PacketResponder: PacketResponder 0 for block blk_1027020224634581807 terminating
081111 100824 26391 INFO dfs.DataNode$DataXceiver: Receiving block blk_8303284829424905326 src: /10.251.70.37:47359 dest: /10.251.70.37:50010
081111 100824 26391 INFO dfs.DataNode$DataXceiver: Receiving block blk_8392345828342269040 src: /10.251.70.37:47359 dest: /10.251.70.37:50010
081111 100903 33 INFO dfs.FSNamesystem: BLOCK* NameSystem.addStoredBlock: blockMap updated: 10.251.111.130:50010 is added to blk_5646792755154529338 size 67108864
081111 100903 33 INFO dfs.FSNamesystem: BLOCK* NameSystem.addStoredBlock: blockMap updated: 10.251.111.130:50010 is added to blk_6135775293485245695 size 67108864
081111 101115 26281 INFO dfs.DataNode$PacketResponder: PacketResponder 0 for block blk_712730845180531820 terminating
081111 101115 26281 INFO dfs.DataNode$PacketResponder: PacketResponder 0 for block blk_030235187210758418 terminating
081111 101117 26526 INFO dfs.DataNode$PacketResponder: PacketResponder 2 for block blk_8418106412701718933 terminating
081111 101117 26526 INFO dfs.DataNode$PacketResponder: PacketResponder 2 for block blk_1161374113080748928 terminating
081111 101120 31 INFO dfs.FSNamesystem: BLOCK* NameSystem.addStoredBlock: blockMap updated: 10.251.67.225:50010 is added to blk_-6325232815283133921 size 67108864
081111 101120 31 INFO dfs.FSNamesystem: BLOCK* NameSystem.addStoredBlock: blockMap updated: 10.251.67.225:50010 is added to blk_13-15352839263231228 size 67108864
081111 101131 26402 INFO dfs.DataNode$PacketResponder: PacketResponder 1 for block blk_-800664075087524591 terminating
081111 101131 26402 INFO dfs.DataNode$PacketResponder: PacketResponder 1 for block blk_84060-7682057545190 terminating
081111 101153 26436 INFO dfs.DataNode$PacketResponder: Received block blk_6516880861186877710 of size 67108864 from /10.251.42.84
081111 101153 26436 INFO dfs.DataNode$PacketResponder: Received block blk_6861687085187811067 of size 67108864 from /10.251.42.84
081111 101206 26380 INFO dfs.DataNode$PacketResponder: PacketResponder 1 for block blk_-3228470001178394592 terminating
081111 101206 26380 INFO dfs.DataNode$PacketResponder: PacketResponder 1 for block blk_487870919004325221-3 terminating
081111 101225 34 INFO dfs.FSNamesystem: BLOCK* NameSystem.allocateBlock: /user/root/randtxt9/_temporary/_task_200811101024_0016_m_000347_0/part-00347. blk_-8426741581316629266
081111 101225 34 INFO dfs.FSNamesystem: BLOCK* NameSystem.allocateBlock: /user/root/randtxt9/_temporary/_task_200811101024_0016_m_000347_0/part-00347. blk_6538221142794-668166
081111 101230 34 INFO dfs.FSNamesystem: BLOCK* NameSystem.addStoredBlock: blockMap updated: 10.251.29.239:50010 is added to blk_-762982068597249045 size 67108864
081111 101230 34 INFO dfs.FSNamesystem: BLOCK* NameSystem.addStoredBlock: blockMap updated: 10.251.29.239:50010 is added to blk_02495768-4925276098 size 67108864
081111 101238 26399 INFO dfs.DataNode$DataXceiver: Receiving block blk_-5224756755359850354 src: /10.251.43.192:38028 dest: /10.251.43.192:50010
081111 101238 26399 INFO dfs.DataNode$DataXceiver: Receiving block blk_04335485-27755655592 src: /10.251.43.192:38028 dest: /10.251.43.192:50010
081111 101243 26312 INFO dfs.DataNode$PacketResponder: Received block blk_-1440254020029439248 of size 67108864 from /10.251.30.85
081111 101243 26312 INFO dfs.DataNode$PacketResponder: Received block blk_4521-044422909380024 of size 67108864 from /10.251.30.85
081111 101316 29 INFO dfs.FSNamesystem: BLOCK* NameSystem.addStoredBlock: blockMap updated: 10.251.90.64:50010 is added to blk_1441315972355360459 size 67108864
081111 101316 29 INFO dfs.FSNamesystem: BLOCK* NameSystem.addStoredBlock: blockMap updated: 10.251.90.64:50010 is added to blk_4931465523713915054 size 67108864
081111 101356 26434 INFO dfs.DataNode$PacketResponder: PacketResponder 0 for block blk_-9001895211102825241 terminating
081111 101356 26434 INFO dfs.DataNode$PacketResponder: PacketResponder 0 for block blk_1481108-592292501012 terminating
081111 101415 26449 INFO dfs.DataNode$PacketResponder: PacketResponder 1 for block blk_-2025617675484194470 terminating
081111 101415 26449 INFO dfs.DataNode$PacketResponder: PacketResponder 1 for block blk_41556447016294-27780 terminating
081111 101444 26469 INFO dfs.DataNode$PacketResponder: Received block blk_-1592043549272047369 of size 67108864 from /10.251.105.189
081111 101444 26469 INFO dfs.DataNode$PacketResponder: Received block blk_391475002539-2794246 of size 67108864 from /10.251.105.189
081111 101455 26895 INFO dfs.DataNode$DataXceiver: Receiving block blk_2583125615128303019 src: /10.251.71.97:54431 dest: /10.251.71.97:50010
081111 101455 26895 INFO dfs.DataNode$DataXceiver: Receiving block blk_3531261592058138210 src: /10.251.71.97:54431 dest: /10.251.71.97:50010
081111 101621 24902 INFO dfs.DataNode$DataXceiver: Receiving block blk_4198733391373026104 src: /10.251.106.10:46843 dest: /10.251.106.10:50010
081111 101621 24902 INFO dfs.DataNode$DataXceiver: Receiving block blk_0971124393343071386 src: /10.251.106.10:46843 dest: /10.251.106.10:50010
081111 101735 26595 INFO dfs.DataNode$PacketResponder: Received block blk_-5815145248455404269 of size 67108864 from /10.251.121.224
081111 101735 26595 INFO dfs.DataNode$PacketResponder: Received block blk_55158-44015444598226 of size 67108864 from /10.251.121.224
081111 101804 26494 INFO dfs.DataNode$DataXceiver: Receiving block blk_-295306975763175640 src: /10.250.9.207:53270 dest: /10.250.9.207:50010
081111 101804 26494 INFO dfs.DataNode$DataXceiver: Receiving block blk_0995365-72701543766 src: /10.250.9.207:53270 dest: /10.250.9.207:50010
081111 101954 26414 INFO dfs.DataNode$PacketResponder: PacketResponder 0 for block blk_5225719677049010638 terminating
081111 101954 26414 INFO dfs.DataNode$PacketResponder: PacketResponder 0 for block blk_2167906900583172574 terminating
081111 102017 26347 INFO dfs.DataNode$DataXceiver: Receiving block blk_4343207286455274569 src: /10.250.9.207:59759 dest: /10.250.9.207:50010
081111 102017 26347 INFO dfs.DataNode$DataXceiver: Receiving block blk_0398644422657352547 src: /10.250.9.207:59759 dest: /10.250.9.207:50010
